94187788293906: ret; 
94187788293905: pop rdi; ret; 
94187788293904: pop r15; ret; 
94187788293903: pop rsi; pop r15; ret; 
94187788293902: pop r14; pop r15; ret; 
94187788293901: pop rbp; pop r14; pop r15; ret; 
94187788293900: pop r13; pop r14; pop r15; ret; 
94187788293899: pop rsp; pop r13; pop r14; pop r15; ret; 
94187788293898: pop r12; pop r13; pop r14; pop r15; ret; 
94187788293914: ret; 
94187788293906: ret; 
94187788294169: ret; 
94187788295059: ret; 
94187788295481: ret; 
94187788295478: dec dword ptr [rax - 0x77]; ret; 
94187788295877: ret; 
94187788295889: ret; 
94187788295901: ret; 
94187788295913: ret; 
94187788295912: movsb byte ptr [rdi], byte ptr [rsi]; ret; 
94187788295925: ret; 
94187788295924: cwde; ret; 
94187788294026: jmp rcx; 
94187788294025: int1; jmp rcx; 
94187788294024: add ecx, esi; jmp rcx; 
94187788294023: add rcx, r14; jmp rcx; 
94187788294022: mov cs, word ptr [rcx + rax - 0xf]; jmp rcx; 
94187788294021: or al, 0x8e; add rcx, r14; jmp rcx; 
94187788294019: movsxd rcx, dword ptr [r14 + rcx*4]; add rcx, r14; jmp rcx; 
94187788294018: leave; movsxd rcx, dword ptr [r14 + rcx*4]; add rcx, r14; jmp rcx; 
94187788294017: mov dh, 0xc9; movsxd rcx, dword ptr [r14 + rcx*4]; add rcx, r14; jmp rcx; 
94187788294016: movzx ecx, cl; movsxd rcx, dword ptr [r14 + rcx*4]; add rcx, r14; jmp rcx; 
94187788294015: add byte ptr [rdi], cl; mov dh, 0xc9; movsxd rcx, dword ptr [r14 + rcx*4]; add rcx, r14; jmp rcx; 
94187788294014: add byte ptr [rax], al; movzx ecx, cl; movsxd rcx, dword ptr [r14 + rcx*4]; add rcx, r14; jmp rcx; 
94187788293794: jmp qword ptr [rsi + 0x2e]; 
94187788292338: ret 0xe2b; 
94187788292850: ret 0xe2a; 
94187788293362: ret 0xe29; 
94187788295351: ret 0xee72; 
94187788295348: add dword ptr [rax + 0x39], ecx; ret 0xee72; 
94187788295665: ret 0x8548; 
94187788295662: add byte ptr [rax - 0x77], cl; ret 0x8548; 
94187788295660: xor dword ptr [rax], eax; add byte ptr [rax - 0x77], cl; ret 0x8548; 
94187788296121: ret 0xf; 
94187788296133: ret 0xf; 
94187788296145: ret 0xf; 
94187788296157: ret 0xf; 
94187788296169: ret 0xf; 
94187788296168: lodsb al, byte ptr [rsi]; ret 0xf; 
94187788296164: dec dword ptr [rcx + rcx*4 + 0x1d]; lodsb al, byte ptr [rsi]; ret 0xf; 
94187788296157: ret 0xf; 
94187788296181: ret 0xf; 
94187788288022: ret; 
94187788288019: add esp, 8; ret; 
94187788288018: add rsp, 8; ret; 
94187788288016: call rax; add rsp, 8; ret; 
94187788288013: sal byte ptr [rdx + rax - 1], 0xd0; add rsp, 8; ret; 
94187788288010: add byte ptr [rax - 0x7b], cl; sal byte ptr [rdx + rax - 1], 0xd0; add rsp, 8; ret; 
94187788291175: ret; 
94187788288016: call rax; 
94187788288242: ret 0xe33; 
94187788288754: ret 0xe32; 
94187788289266: ret 0xe31; 
94187788289778: ret 0xe30; 
94187788290290: ret 0xe2f; 
94187788290802: ret 0xe2e; 
94187788291159: ret 0; 
94187788291314: ret 0xe2d; 
94187788291826: ret 0xe2c; 
94187788456158: ret; 
94187788456496: ret; 
94187788457079: ret; 
94187788457076: add esp, 0x28; ret; 
94187788457075: add rsp, 0x28; ret; 
94187788457074: add eax, 0x28c48348; ret; 
94187788457072: add byte ptr [rbp + 5], dh; add rsp, 0x28; ret; 
94187788457070: add byte ptr [rax], al; add byte ptr [rbp + 5], dh; add rsp, 0x28; ret; 
94187788457127: ret; 
94187788457126: pop rbx; ret; 
94187788457123: add esp, 0x10; pop rbx; ret; 
94187788457122: add rsp, 0x10; pop rbx; ret; 
94187788457120: add byte ptr [rax], al; add rsp, 0x10; pop rbx; ret; 
94187788457115: add dword ptr [rbx + 0x14], 0x76c; add rsp, 0x10; pop rbx; ret; 
94187788457114: add dword ptr [rcx + 0x76c1443], eax; add byte ptr [rax], al; add rsp, 0x10; pop rbx; ret; 
94187788457113: adc byte ptr [rcx], al; add dword ptr [rbx + 0x14], 0x76c; add rsp, 0x10; pop rbx; ret; 
94187788457112: adc byte ptr [r9], al; add dword ptr [rbx + 0x14], 0x76c; add rsp, 0x10; pop rbx; ret; 
94187788457111: add dword ptr [rbx + 0x10], 1; add dword ptr [rbx + 0x14], 0x76c; add rsp, 0x10; pop rbx; ret; 
94187788457159: ret; 
94187788457156: add esp, 0x18; ret; 
94187788457155: add rsp, 0x18; ret; 
94187788457150: call 0x55a9cda9d220; add rsp, 0x18; ret; 
94187788457148: and al, 8; call 0x55a9cda9d220; add rsp, 0x18; ret; 
94187788457146: lea edi, dword ptr [rsp + 8]; call 0x55a9cda9d220; add rsp, 0x18; ret; 
94187788457145: lea rdi, qword ptr [rsp + 8]; call 0x55a9cda9d220; add rsp, 0x18; ret; 
94187788457143: and al, 8; lea rdi, qword ptr [rsp + 8]; call 0x55a9cda9d220; add rsp, 0x18; ret; 
94187788457141: mov dword ptr [rsp + 8], edi; lea rdi, qword ptr [rsp + 8]; call 0x55a9cda9d220; add rsp, 0x18; ret; 
94187788457140: mov qword ptr [rsp + 8], rdi; lea rdi, qword ptr [rsp + 8]; call 0x55a9cda9d220; add rsp, 0x18; ret; 
94187788457191: ret; 
94187788457188: add esp, 0x18; ret; 
94187788457187: add rsp, 0x18; ret; 
94187788457183: cmp eax, 0x48fffd75; add esp, 0x18; ret; 
94187788457182: call 0x55a9cda9ca20; add rsp, 0x18; ret; 
94187788457181: or al, ch; cmp eax, 0x48fffd75; add esp, 0x18; ret; 
94187788457180: and al, 8; call 0x55a9cda9ca20; add rsp, 0x18; ret; 
94187788457178: lea edi, dword ptr [rsp + 8]; call 0x55a9cda9ca20; add rsp, 0x18; ret; 
94187788457177: lea rdi, qword ptr [rsp + 8]; call 0x55a9cda9ca20; add rsp, 0x18; ret; 
94187788457175: and al, 8; lea rdi, qword ptr [rsp + 8]; call 0x55a9cda9ca20; add rsp, 0x18; ret; 
94187788457173: mov dword ptr [rsp + 8], edi; lea rdi, qword ptr [rsp + 8]; call 0x55a9cda9ca20; add rsp, 0x18; ret; 
94187788457172: mov qword ptr [rsp + 8], rdi; lea rdi, qword ptr [rsp + 8]; call 0x55a9cda9ca20; add rsp, 0x18; ret; 
94187788457262: ret; 
94187788457261: pop rbx; ret; 
94187788457259: add eax, ebx; pop rbx; ret; 
94187788457258: add rax, rbx; pop rbx; ret; 
94187788457255: cmp ch, 0xff; add rax, rbx; pop rbx; ret; 
94187788457254: push rsi; cmp ch, 0xff; add rax, rbx; pop rbx; ret; 
94187788457253: call 0x55a9cda9d580; add rax, rbx; pop rbx; ret; 
94187788457251: mov edx, ebx; call 0x55a9cda9d580; add rax, rbx; pop rbx; ret; 
94187788457250: mov rdx, rbx; call 0x55a9cda9d580; add rax, rbx; pop rbx; ret; 
94187788457375: ret; 
94187788457442: ret; 
94187788457441: pop rsi; ret; 
94187788457440: pop r14; ret; 
94187788457439: pop rbp; pop r14; ret; 
94187788457438: pop r13; pop r14; ret; 
94187788457437: pop rsp; pop r13; pop r14; ret; 
94187788457436: pop r12; pop r13; pop r14; ret; 
94187788457435: pop rbp; pop r12; pop r13; pop r14; ret; 
94187788457434: lcall ptr [rbp + 0x41]; pop rsp; pop r13; pop r14; ret; 
94187788457458: ret; 
94187788457457: pop rsi; ret; 
94187788457456: pop r14; ret; 
94187788457455: pop rbp; pop r14; ret; 
94187788457454: pop r13; pop r14; ret; 
94187788457453: pop rsp; pop r13; pop r14; ret; 
94187788457452: pop r12; pop r13; pop r14; ret; 
94187788457451: pop rbp; pop r12; pop r13; pop r14; ret; 
94187788457450: rcr byte ptr [rbp + 0x41], 0x5c; pop r13; pop r14; ret; 
94187788457489: ret; 
94187788457486: dec dword ptr [rax - 0x77]; ret; 
94187788457485: std; dec dword ptr [rax - 0x77]; ret; 
94187788457484: outsb dx, byte ptr [rsi]; std; dec dword ptr [rax - 0x77]; ret; 
94187788457510: ret; 
94187788457509: pop rsp; ret; 
94187788457508: pop r12; ret; 
94187788457507: pop rbp; pop r12; ret; 
94187788457506: pop rbx; pop rbp; pop r12; ret; 
94187788457505: fcomp dword ptr [rbx + 0x5d]; pop r12; ret; 
94187788457504: mov eax, ebx; pop rbx; pop rbp; pop r12; ret; 
94187788457503: mov rax, rbx; pop rbx; pop rbp; pop r12; ret; 
94187788457502: adc dword ptr [rax - 0x77], ecx; fcomp dword ptr [rbx + 0x5d]; pop r12; ret; 
94187788457557: ret; 
94187788457556: pop rsp; ret; 
94187788457555: pop r12; ret; 
94187788457554: pop rbp; pop r12; ret; 
94187788457553: pop rbx; pop rbp; pop r12; ret; 
94187788457552: fcomp dword ptr [rbx + 0x5d]; pop r12; ret; 
94187788457551: mov eax, ebx; pop rbx; pop rbp; pop r12; ret; 
94187788457550: mov rax, rbx; pop rbx; pop rbp; pop r12; ret; 
94187788457549: dec dword ptr [rax - 0x77]; fcomp dword ptr [rbx + 0x5d]; pop r12; ret; 
94187788457548: std; dec dword ptr [rax - 0x77]; fcomp dword ptr [rbx + 0x5d]; pop r12; ret; 
94187788457653: ret; 
94187788457652: pop rbx; ret; 
94187788457650: mov eax, ecx; pop rbx; ret; 
94187788457649: mov rax, rcx; pop rbx; ret; 
94187788457648: ror dword ptr [rax - 0x77], -0x38; pop rbx; ret; 
94187788457647: mov ecx, eax; mov rax, rcx; pop rbx; ret; 
94187788457646: mov rcx, rax; mov rax, rcx; pop rbx; ret; 
94187788457645: dec dword ptr [rax - 0x77]; ror dword ptr [rax - 0x77], -0x38; pop rbx; ret; 
94187788457644: std; dec dword ptr [rax - 0x77]; ror dword ptr [rax - 0x77], -0x38; pop rbx; ret; 
94187788457643: push -3; dec dword ptr [rax - 0x77]; ror dword ptr [rax - 0x77], -0x38; pop rbx; ret; 
94187788457641: call 0x55a9cda9c170; mov rcx, rax; mov rax, rcx; pop rbx; ret; 
94187788457761: ret; 
94187788457760: pop rbp; ret; 
94187788457759: pop r13; ret; 
94187788457758: pop rsp; pop r13; ret; 
94187788457757: pop r12; pop r13; ret; 
94187788457756: pop rbp; pop r12; pop r13; ret; 
94187788457755: pop rbx; pop rbp; pop r12; pop r13; ret; 
94187788457754: sbb byte ptr [rbx + 0x5d], bl; pop r12; pop r13; ret; 
94187788457978: ret; 
94187788457975: mov dword ptr [rdi + 0x10], edx; ret; 
94187788457974: mov qword ptr [rdi + 0x10], r10; ret; 
94187788457971: mov dword ptr [rdi + 8], ecx; mov qword ptr [rdi + 0x10], r10; ret; 
94187788457970: mov qword ptr [rdi + 8], r9; mov qword ptr [rdi + 0x10], r10; ret; 
94187788457968: xor edx, edx; mov qword ptr [rdi + 8], r9; mov qword ptr [rdi + 0x10], r10; ret; 
94187788457967: xor r10d, r10d; mov qword ptr [rdi + 8], r9; mov qword ptr [rdi + 0x10], r10; ret; 
94187788457966: leave; xor r10d, r10d; mov qword ptr [rdi + 8], r9; mov qword ptr [rdi + 0x10], r10; ret; 
94187788457965: xor ecx, ecx; xor r10d, r10d; mov qword ptr [rdi + 8], r9; mov qword ptr [rdi + 0x10], r10; ret; 
94187788457964: xor r9d, r9d; xor r10d, r10d; mov qword ptr [rdi + 8], r9; mov qword ptr [rdi + 0x10], r10; ret; 
94187788457963: mov dword ptr [rbp + 0x31], 0xd23145c9; mov qword ptr [rdi + 8], r9; mov qword ptr [rdi + 0x10], r10; ret; 
94187788457961: or bl, ch; mov dword ptr [rbp + 0x31], 0xd23145c9; mov qword ptr [rdi + 8], r9; mov qword ptr [rdi + 0x10], r10; ret; 
94187788457960: or r11b, bpl; mov dword ptr [rbp + 0x31], 0xd23145c9; mov qword ptr [rdi + 8], r9; mov qword ptr [rdi + 0x10], r10; ret; 
94187788458048: ret; 
94187788458047: pop rsp; ret; 
94187788458046: pop r12; ret; 
94187788458045: pop rbp; pop r12; ret; 
94187788458044: pop rbx; pop rbp; pop r12; ret; 
94187788458043: sbb al, 0x5b; pop rbp; pop r12; ret; 
94187788458041: adc byte ptr [rbp + 0x1c], dh; pop rbx; pop rbp; pop r12; ret; 
94187788458115: ret; 
94187788458114: pop rsp; ret; 
94187788458113: pop r12; ret; 
94187788458112: pop rbp; pop r12; ret; 
94187788458111: pop rbx; pop rbp; pop r12; ret; 
94187788458110: pop rdx; pop rbx; pop rbp; pop r12; ret; 
94187788458412: ret; 
94187788458411: pop rdi; ret; 
94187788458410: pop r15; ret; 
94187788458409: pop rsi; pop r15; ret; 
94187788458408: pop r14; pop r15; ret; 
94187788458407: pop rbp; pop r14; pop r15; ret; 
94187788458406: pop r13; pop r14; pop r15; ret; 
94187788458405: pop rsp; pop r13; pop r14; pop r15; ret; 
94187788458404: pop r12; pop r13; pop r14; pop r15; ret; 
94187788458527: ret; 
94187788458526: pop rbp; ret; 
94187788458525: pop r13; ret; 
94187788458524: pop rsp; pop r13; ret; 
94187788458523: pop r12; pop r13; ret; 
94187788458522: pop rbp; pop r12; pop r13; ret; 
94187788458521: pop rbx; pop rbp; pop r12; pop r13; ret; 
94187788458520: call 0x55aa29edb778; pop r13; ret; 
94187788458756: ret; 
94187788458755: pop rsi; ret; 
94187788458754: pop r14; ret; 
94187788458753: pop rbp; pop r14; ret; 
94187788458752: pop r13; pop r14; ret; 
94187788458751: pop rsp; pop r13; pop r14; ret; 
94187788458750: pop r12; pop r13; pop r14; ret; 
94187788458749: pop rbp; pop r12; pop r13; pop r14; ret; 
94187788458775: ret; 
94187788458774: pop rsi; ret; 
94187788458773: pop r14; ret; 
94187788458772: pop rbp; pop r14; ret; 
94187788458771: pop r13; pop r14; ret; 
94187788458770: pop rsp; pop r13; pop r14; ret; 
94187788458769: pop r12; pop r13; pop r14; ret; 
94187788458768: pop rbp; pop r12; pop r13; pop r14; ret; 
94187788458767: lcall ptr [rbp + 0x41]; pop rsp; pop r13; pop r14; ret; 
94187788458818: ret; 
94187788458817: pop rsi; ret; 
94187788458816: pop r14; ret; 
94187788458815: pop rbp; pop r14; ret; 
94187788458814: pop r13; pop r14; ret; 
94187788458813: pop rsp; pop r13; pop r14; ret; 
94187788458812: pop r12; pop r13; pop r14; ret; 
94187788458811: pop rbp; pop r12; pop r13; pop r14; ret; 
94187788458810: xor byte ptr [rbp + 0x41], bl; pop rsp; pop r13; pop r14; ret; 
94187788458809: xor byte ptr [rbp + 0x41], bl; pop rsp; pop r13; pop r14; ret; 
94187788459092: ret; 
94187788459104: ret; 
94187788459241: ret; 
94187788459240: pop rdi; ret; 
94187788459239: pop r15; ret; 
94187788459238: pop rsi; pop r15; ret; 
94187788459237: pop r14; pop r15; ret; 
94187788459236: pop rbp; pop r14; pop r15; ret; 
94187788459235: pop r13; pop r14; pop r15; ret; 
94187788459234: pop rsp; pop r13; pop r14; pop r15; ret; 
94187788459233: pop r12; pop r13; pop r14; pop r15; ret; 
94187788459331: ret; 
94187788459348: ret; 
94187788459347: pop rsp; ret; 
94187788459346: pop r12; ret; 
94187788459345: pop rbp; pop r12; ret; 
94187788459344: pop rbx; pop rbp; pop r12; ret; 
94187788459343: fcomp dword ptr [rbx + 0x5d]; pop r12; ret; 
94187788459342: mov eax, ebx; pop rbx; pop rbp; pop r12; ret; 
94187788459341: or cl, byte ptr [rcx + 0x415d5bd8]; pop rsp; ret; 
94187788459339: in al, 0x74; or cl, byte ptr [rcx + 0x415d5bd8]; pop rsp; ret; 
94187788459336: add eax, 0x74e4854d; or cl, byte ptr [rcx + 0x415d5bd8]; pop rsp; ret; 
94187788459331: ret; 
94187788459366: ret; 
94187788459365: pop rsp; ret; 
94187788459364: pop r12; ret; 
94187788459363: pop rbp; pop r12; ret; 
94187788459362: pop rbx; pop rbp; pop r12; ret; 
94187788459361: fcomp dword ptr [rbx + 0x5d]; pop r12; ret; 
94187788459360: mov eax, ebx; pop rbx; pop rbp; pop r12; ret; 
94187788459359: dec dword ptr [rcx + 0x415d5bd8]; pop rsp; ret; 
94187788459358: std; dec dword ptr [rcx + 0x415d5bd8]; pop rsp; ret; 
94187788459357: std; dec dword ptr [rcx + 0x415d5bd8]; pop rsp; ret; 
94187788459356: mov al, 0x67; std; dec dword ptr [rcx + 0x415d5bd8]; pop rsp; ret; 
94187788459688: ret; 
94187788459687: pop rdi; ret; 
94187788459686: pop r15; ret; 
94187788459685: pop rsi; pop r15; ret; 
94187788459684: pop r14; pop r15; ret; 
94187788459683: pop rbp; pop r14; pop r15; ret; 
94187788459682: pop r13; pop r14; pop r15; ret; 
94187788459681: pop rsp; pop r13; pop r14; pop r15; ret; 
94187788459680: pop r12; pop r13; pop r14; pop r15; ret; 
94187788456980: jmp qword ptr [rsi + 0x2e]; 
94187788456979: std; jmp qword ptr [rsi + 0x2e]; 
94187788456978: jp 0x55a9cdac5411; jmp qword ptr [rsi + 0x2e]; 
94187788456977: jnp 0x55a9cdac548d; std; jmp qword ptr [rsi + 0x2e]; 
94187788458145: jmp qword ptr [rsi + 0x66]; 
94187788458435: jmp qword ptr [rsi + 0x66]; 
94187788458434: std; jmp qword ptr [rsi + 0x66]; 
94187788459009: jmp qword ptr [rsi + 0x66]; 
94187788459286: jmp qword ptr [rsi + 0xf]; 
94187788456623: ret 0x12b; 
94187788456936: ret 0xa3e9; 
94187788456933: dec dword ptr [rax - 0x77]; ret 0xa3e9; 
94187788457048: ret 8; 
94187788457642: ret 0xfd6a; 
94187788457776: ret 0x894d; 
94187788457909: ret 0x8949; 
94187788457906: or byte ptr [rbp + 1], cl; ret 0x8949; 
94187788457905: or byte ptr [r13 + 1], cl; ret 0x8949; 
94187788457902: adc dword ptr [rcx + rcx*4 + 0x41], ecx; or byte ptr [rbp + 1], cl; ret 0x8949; 
94187788457899: cmovs ecx, dword ptr [rcx + 0x41894c11]; or byte ptr [rbp + 1], cl; ret 0x8949; 
94187788458735: ret 0xc748; 
94187788458732: add byte ptr [rax - 0x77], cl; ret 0xc748; 
94187788458730: add byte ptr [rax], al; add byte ptr [rax - 0x77], cl; ret 0xc748; 
94187788458729: rol byte ptr [rax], 0; add byte ptr [rax - 0x77], cl; ret 0xc748; 
94187788458728: xchg eax, ebx; rol byte ptr [rax], 0; add byte ptr [rax - 0x77], cl; ret 0xc748; 
94187788458726: sub bh, bh; xchg eax, ebx; rol byte ptr [rax], 0; add byte ptr [rax - 0x77], cl; ret 0xc748; 
94187788458725: push -0x3f6c00d8; add byte ptr [rax], al; add byte ptr [rax - 0x77], cl; ret 0xc748; 
94187788458722: sbb byte ptr [rax - 0x77], cl; push -0x3f6c00d8; add byte ptr [rax], al; add byte ptr [rax - 0x77], cl; ret 0xc748; 
94187788459315: ret 0; 
94187788460026: ret 0xc748; 
94187788460023: add byte ptr [rax - 0x77], cl; ret 0xc748; 
94187788460021: add byte ptr [rax], al; add byte ptr [rax - 0x77], cl; ret 0xc748; 
94187788460020: rol byte ptr [rax], 0; add byte ptr [rax - 0x77], cl; ret 0xc748; 
94187788460019: xchg eax, ebx; rol byte ptr [rax], 0; add byte ptr [rax - 0x77], cl; ret 0xc748; 
94187788460017: sub bh, bh; xchg eax, ebx; rol byte ptr [rax], 0; add byte ptr [rax - 0x77], cl; ret 0xc748; 
94187788460016: push -0x3f6c00d8; add byte ptr [rax], al; add byte ptr [rax - 0x77], cl; ret 0xc748; 
94187788460013: and byte ptr [rax - 0x77], cl; push -0x3f6c00d8; add byte ptr [rax], al; add byte ptr [rax - 0x77], cl; ret 0xc748; 
94187788458727: call qword ptr [rbx + 0xc0]; 
94187788458724: mov dword ptr [rax + 0x28], ebp; call qword ptr [rbx + 0xc0]; 
94187788458723: mov qword ptr [rax + 0x28], rbp; call qword ptr [rbx + 0xc0]; 
94187788458720: mov dword ptr [rax + 0x18], esp; mov qword ptr [rax + 0x28], rbp; call qword ptr [rbx + 0xc0]; 
94187788458719: mov qword ptr [rax + 0x18], r12; mov qword ptr [rax + 0x28], rbp; call qword ptr [rbx + 0xc0]; 
94187788458716: mov dword ptr [rax + 0x10], ebp; mov qword ptr [rax + 0x18], r12; mov qword ptr [rax + 0x28], rbp; call qword ptr [rbx + 0xc0]; 
94187788458715: mov qword ptr [rax + 0x10], r13; mov qword ptr [rax + 0x18], r12; mov qword ptr [rax + 0x28], rbp; call qword ptr [rbx + 0xc0]; 
94187788458713: add byte ptr [rax], al; mov qword ptr [rax + 0x10], r13; mov qword ptr [rax + 0x18], r12; mov qword ptr [rax + 0x28], rbp; call qword ptr [rbx + 0xc0]; 
94187788460018: call qword ptr [rbx + 0xc0]; 
94187788460015: mov dword ptr [rax + 0x28], ebp; call qword ptr [rbx + 0xc0]; 
94187788460014: mov qword ptr [rax + 0x28], rbp; call qword ptr [rbx + 0xc0]; 
94187788460011: mov dword ptr [rax + 0x20], esp; mov qword ptr [rax + 0x28], rbp; call qword ptr [rbx + 0xc0]; 
94187788460010: mov qword ptr [rax + 0x20], r12; mov qword ptr [rax + 0x28], rbp; call qword ptr [rbx + 0xc0]; 
94187788460008: add byte ptr [rax], al; mov qword ptr [rax + 0x20], r12; mov qword ptr [rax + 0x28], rbp; call qword ptr [rbx + 0xc0]; 
94187788460006: add dword ptr [rax], eax; add byte ptr [rax], al; mov qword ptr [rax + 0x20], r12; mov qword ptr [rax + 0x28], rbp; call qword ptr [rbx + 0xc0]; 
94187788460003: mov dword ptr [rax + 8], 1; mov qword ptr [rax + 0x20], r12; mov qword ptr [rax + 0x28], rbp; call qword ptr [rbx + 0xc0]; 
94187788460002: mov qword ptr [rax + 8], 1; mov qword ptr [rax + 0x20], r12; mov qword ptr [rax + 0x28], rbp; call qword ptr [rbx + 0xc0]; 
94187788460000: mov dword ptr [rax], edx; mov qword ptr [rax + 8], 1; mov qword ptr [rax + 0x20], r12; mov qword ptr [rax + 0x28], rbp; call qword ptr [rbx + 0xc0]; 
94187788300318: ret; 
94187788300315: cmovne eax, edx; ret; 
94187788300314: cmovne rax, rdx; ret; 
94187788300313: pop rbx; cmovne rax, rdx; ret; 
94187788300312: add byte ptr [rbx + 0x48], bl; cmovne eax, edx; ret; 
94187788300311: or al, byte ptr [rax]; pop rbx; cmovne rax, rdx; ret; 
94187788300308: add eax, 0xae0f9; pop rbx; cmovne rax, rdx; ret; 
94187788300307: lea eax, dword ptr [rip + 0xae0f9]; pop rbx; cmovne rax, rdx; ret; 
94187788300306: lea rax, qword ptr [rip + 0xae0f9]; pop rbx; cmovne rax, rdx; ret; 
94187788300305: dec dword ptr [rax - 0x73]; add eax, 0xae0f9; pop rbx; cmovne rax, rdx; ret; 
94187788300336: ret; 
94187788300334: xor eax, eax; ret; 
94187788300331: mov dword ptr [rdx + 0x20], eax; xor eax, eax; ret; 
94187788300330: mov qword ptr [rdx + 0x20], rax; xor eax, eax; ret; 
94187788300328: mov eax, dword ptr [rax]; mov qword ptr [rdx + 0x20], rax; xor eax, eax; ret; 
94187788300327: mov rax, qword ptr [rax]; mov qword ptr [rdx + 0x20], rax; xor eax, eax; ret; 
94187788300325: adc dword ptr [rax], eax; mov rax, qword ptr [rax]; mov qword ptr [rdx + 0x20], rax; xor eax, eax; ret; 
94187788300365: ret; 
94187788300495: ret; 
94187788300494: pop rsi; ret; 
94187788300493: pop r14; ret; 
94187788300492: pop rbp; pop r14; ret; 
94187788300491: pop r13; pop r14; ret; 
94187788300490: pop rsp; pop r13; pop r14; ret; 
94187788300489: pop r12; pop r13; pop r14; ret; 
94187788300488: pop rbp; pop r12; pop r13; pop r14; ret; 
94187788301210: ret; 
94187788301209: pop rdi; ret; 
94187788301208: pop r15; ret; 
94187788301207: pop rsi; pop r15; ret; 
94187788301206: pop r14; pop r15; ret; 
94187788301205: pop rbp; pop r14; pop r15; ret; 
94187788301204: pop r13; pop r14; pop r15; ret; 
94187788301203: pop rsp; pop r13; pop r14; pop r15; ret; 
94187788301202: pop r12; pop r13; pop r14; pop r15; ret; 
94187788301370: ret; 
94187788301367: add byte ptr [rax - 0x77], cl; ret; 
94187788301365: sbb byte ptr [rax], al; add byte ptr [rax - 0x77], cl; ret; 
94187788301856: ret; 
94187788301853: add dword ptr [rax - 0x7f], ecx; ret; 
94187788301849: ror byte ptr [rcx - 0x7d], 0xc6; add dword ptr [rax - 0x7f], ecx; ret; 
94187788301954: ret; 
94187788301951: add byte ptr [rax - 0x7d], cl; ret; 
94187788301992: ret; 
94187788301989: add byte ptr [rax - 0x7d], cl; ret; 
94187788301987: add eax, dword ptr [rax]; add byte ptr [rax - 0x7d], cl; ret; 
94187788301984: shr al, 0xda; add eax, dword ptr [rax]; add byte ptr [rax - 0x7d], cl; ret; 
94187788301982: add byte ptr [rcx], dh; shr al, 0xda; add eax, dword ptr [rax]; add byte ptr [rax - 0x7d], cl; ret; 
94187788302046: ret; 
94187788302070: ret; 
94187788302128: ret; 
94187788302127: pop rdi; ret; 
94187788302126: pop r15; ret; 
94187788302125: pop rsi; pop r15; ret; 
94187788302124: pop r14; pop r15; ret; 
94187788302123: pop rbp; pop r14; pop r15; ret; 
94187788302122: pop r13; pop r14; pop r15; ret; 
94187788302121: pop rsp; pop r13; pop r14; pop r15; ret; 
94187788302120: pop r12; pop r13; pop r14; pop r15; ret; 
94187788302457: ret; 
94187788302455: xor eax, eax; ret; 
94187788302478: ret; 
94187788302474: lea eax, dword ptr [rax + rcx - 0x80]; ret; 
94187788302473: lea rax, qword ptr [rax + rcx - 0x80]; ret; 
94187788302471: loope 0x55a9cda9f890; lea rax, qword ptr [rax + rcx - 0x80]; ret; 
94187788302470: shl ecx, 7; lea rax, qword ptr [rax + rcx - 0x80]; ret; 
94187788302469: shl rcx, 7; lea rax, qword ptr [rax + rcx - 0x80]; ret; 
94187788302468: or ecx, dword ptr [rax - 0x3f]; loope 0x55a9cda9f890; lea rax, qword ptr [rax + rcx - 0x80]; ret; 
94187788302487: ret; 
94187788302486: clc; ret; 
94187788302485: add eax, edi; ret; 
94187788302484: add rax, rdi; ret; 
94187788302482: out 7, eax; add rax, rdi; ret; 
94187788302481: shl edi, 7; add rax, rdi; ret; 
94187788302480: shl rdi, 7; add rax, rdi; ret; 
94187788302479: nop; shl rdi, 7; add rax, rdi; ret; 
94187788302478: ret; 
94187788302532: ret; 
94187788302530: mov eax, edx; ret; 
94187788302529: mov rax, rdx; ret; 
94187788302527: add al, 0x12; mov rax, rdx; ret; 
94187788302526: or dword ptr [rdx + rdx], eax; mov rax, rdx; ret; 
94187788302525: or qword ptr [rdx + r10], rax; mov rax, rdx; ret; 
94187788302523: shl eax, cl; or qword ptr [rdx + r10], rax; mov rax, rdx; ret; 
94187788302522: shl rax, cl; or qword ptr [rdx + r10], rax; mov rax, rdx; ret; 
94187788302520: add byte ptr [rax], al; shl rax, cl; or qword ptr [rdx + r10], rax; mov rax, rdx; ret; 
94187788302593: ret; 
94187788302590: mov dword ptr [rdi + 0x48], esi; ret; 
94187788302589: mov qword ptr [rdi + 0x48], rsi; ret; 
94187788302586: sal byte ptr [rbp - 0x15], 0x48; mov dword ptr [rdi + 0x48], esi; ret; 
94187788302726: ret; 
94187788302725: pop rsp; ret; 
94187788302724: pop r12; ret; 
94187788302723: pop rbp; pop r12; ret; 
94187788302722: pop rbx; pop rbp; pop r12; ret; 
94187788302721: pop rbx; pop rbp; pop r12; ret; 
94187788302719: mov dword ptr [rdi + 0x48], esi; pop rbx; pop rbp; pop r12; ret; 
94187788302718: mov qword ptr [rdi + 0x48], rsi; pop rbx; pop rbp; pop r12; ret; 
94187788302717: mov qword ptr [rdi + 0x48], rsi; pop rbx; pop rbp; pop r12; ret; 
94187788302716: mov qword ptr [rdi + 0x48], rsi; pop rbx; pop rbp; pop r12; ret; 
94187788302744: ret; 
94187788302741: mov dword ptr [rdi + 0x48], esi; ret; 
94187788302740: mov qword ptr [rdi + 0x48], rsi; ret; 
94187788302739: mov qword ptr [rdi + 0x48], rsi; ret; 
94187788302738: mov qword ptr [rdi + 0x48], rsi; ret; 
94187788302737: mov dword ptr [rsi + 0x48], eax; mov qword ptr [rdi + 0x48], rsi; ret; 
94187788302736: mov qword ptr [rsi + 0x48], rax; mov qword ptr [rdi + 0x48], rsi; ret; 
94187788302735: add byte ptr [rax - 0x77], cl; mov qword ptr [rdi + 0x48], rsi; ret; 
94187788302734: add byte ptr [rax], al; mov qword ptr [rsi + 0x48], rax; mov qword ptr [rdi + 0x48], rsi; ret; 
94187788302733: add byte ptr [rax], al; add byte ptr [rax - 0x77], cl; mov qword ptr [rdi + 0x48], rsi; ret; 
94187788302732: add byte ptr [rax], al; add byte ptr [rax], al; mov qword ptr [rsi + 0x48], rax; mov qword ptr [rdi + 0x48], rsi; ret; 
94187788302731: add byte ptr [rax], al; add byte ptr [rax], al; add byte ptr [rax - 0x77], cl; mov qword ptr [rdi + 0x48], rsi; ret; 
94187788302874: ret; 
94187788302873: pop rbp; ret; 
94187788302872: pop r13; ret; 
94187788302871: pop rsp; pop r13; ret; 
94187788302870: pop r12; pop r13; ret; 
94187788302869: pop rbp; pop r12; pop r13; ret; 
94187788302868: pop rbx; pop rbp; pop r12; pop r13; ret; 
94187788302867: or byte ptr [rbx + 0x5d], bl; pop r12; pop r13; ret; 
94187788302953: ret; 
94187788302950: add byte ptr [rax + 0x39], cl; ret; 
94187788302947: mov dword ptr [rdx + 2], ebx; add byte ptr [rax + 0x39], cl; ret; 
94187788302969: ret; 
94187788302968: pop rbp; ret; 
94187788302967: pop rbx; pop rbp; ret; 
94187788302966: or byte ptr [rbx + 0x5d], bl; ret; 
94187788302964: add esp, 8; pop rbx; pop rbp; ret; 
94187788302963: add rsp, 8; pop rbx; pop rbp; ret; 
94187788302961: rol byte ptr [rcx], 0x48; add esp, 8; pop rbx; pop rbp; ret; 
94187788302960: add eax, 1; add rsp, 8; pop rbx; pop rbp; ret; 
94187788302959: add rax, 1; add rsp, 8; pop rbx; pop rbp; ret; 
94187788303461: ret; 
94187788303458: add byte ptr [rax + 0x39], cl; ret; 
94187788303457: add byte ptr [r8 + 0x39], r9b; ret; 
94187788303677: ret; 
94187788303676: pop rdi; ret; 
94187788303675: pop r15; ret; 
94187788303674: pop rsi; pop r15; ret; 
94187788303673: pop r14; pop r15; ret; 
94187788303672: pop rbp; pop r14; pop r15; ret; 
94187788303671: pop r13; pop r14; pop r15; ret; 
94187788303670: pop rsp; pop r13; pop r14; pop r15; ret; 
94187788303669: pop r12; pop r13; pop r14; pop r15; ret; 
94187788304078: ret; 
94187788304077: pop rbp; ret; 
94187788304076: pop rbx; pop rbp; ret; 
94187788304075: add byte ptr [rbx + 0x5d], bl; ret; 
94187788304074: add byte ptr [rax], al; pop rbx; pop rbp; ret; 
94187788304073: add al, 0; add byte ptr [rbx + 0x5d], bl; ret; 
94187788304072: call 0x55aa28a9fed1; pop rbp; ret; 
94187788304070: add esp, 0x4e8; pop rbx; pop rbp; ret; 
94187788304069: add rsp, 0x4e8; pop rbx; pop rbp; ret; 
94187788304066: add byte ptr [rbp + 0xa], dh; add rsp, 0x4e8; pop rbx; pop rbp; ret; 
94187788304114: ret; 
94187788304113: pop rbx; ret; 
94187788304111: add byte ptr [rax], al; pop rbx; ret; 
94187788304109: add byte ptr [rax], al; add byte ptr [rax], al; pop rbx; ret; 
94187788304106: mov dword ptr [rbx + 0x38], 0; pop rbx; ret; 
94187788304105: mov qword ptr [rbx + 0x38], 0; pop rbx; ret; 
94187788304102: adc byte ptr [rbp + 0xf], dh; mov qword ptr [rbx + 0x38], 0; pop rbx; ret; 
94187788304153: ret; 
94187788304152: pop rbx; ret; 
94187788304150: add byte ptr [rax], al; pop rbx; ret; 
94187788304148: add byte ptr [rax], al; add byte ptr [rax], al; pop rbx; ret; 
94187788304145: mov dword ptr [rbx + 0x38], 0; pop rbx; ret; 
94187788304144: mov qword ptr [rbx + 0x38], 0; pop rbx; ret; 
94187788304139: call 0x55a9cda9fa80; mov qword ptr [rbx + 0x38], 0; pop rbx; ret; 
94187788304137: add byte ptr [rax], al; call 0x55a9cda9fa80; mov qword ptr [rbx + 0x38], 0; pop rbx; ret; 
94187788303370: call rcx; 
94187788303368: sub edx, eax; call rcx; 
94187788303367: sub rdx, rax; call rcx; 
94187788303366: out dx, eax; sub rdx, rax; call rcx; 
94187788303365: mov edi, ebp; sub rdx, rax; call rcx; 
94187788303364: mov rdi, r13; sub rdx, rax; call rcx; 
94187788303362: mov esi, eax; mov rdi, r13; sub rdx, rax; call rcx; 
94187788303361: mov rsi, rax; mov rdi, r13; sub rdx, rax; call rcx; 
94187788303359: add byte ptr [rax], al; mov rsi, rax; mov rdi, r13; sub rdx, rax; call rcx; 
94187788303444: call rax; 
94187788303443: out dx, eax; call rax; 
94187788303442: mov edi, ebp; call rax; 
94187788303441: mov rdi, r13; call rax; 
94187788303440: fimul word ptr [rcx + rcx*4 - 0x11]; call rax; 
94187788303439: mov esi, ebx; mov rdi, r13; call rax; 
94187788303438: mov rsi, rbx; mov rdi, r13; call rax; 
94187788303436: mov edx, ebp; mov rsi, rbx; mov rdi, r13; call rax; 
94187788303435: mov rdx, rbp; mov rsi, rbx; mov rdi, r13; call rax; 
94187788303434: int1; mov rdx, rbp; mov rsi, rbx; mov rdi, r13; call rax; 
94187788303433: mov ecx, esi; mov rdx, rbp; mov rsi, rbx; mov rdi, r13; call rax; 
94187788303432: mov rcx, r14; mov rdx, rbp; mov rsi, rbx; mov rdi, r13; call rax; 
94187788303431: add byte ptr [rcx + rcx*4 - 0xf], cl; mov rdx, rbp; mov rsi, rbx; mov rdi, r13; call rax; 
94187788303430: add byte ptr [rcx + rcx*4 - 0xf], cl; mov rdx, rbp; mov rsi, rbx; mov rdi, r13; call rax; 
94187788303778: jmp qword ptr [rsi + 0x66]; 
94187788303776: sar bh, 1; jmp qword ptr [rsi + 0x66]; 
94187788303775: in eax, dx; sar bh, 1; jmp qword ptr [rsi + 0x66]; 
94187788304083: jmp qword ptr [rsi + 0x66]; 
94187788300317: ret 0x90c3; 
94187788302386: ret 0x4801; 
94187788302942: ret 0x8948; 
94187788303369: ret 0xd1ff; 
94187788302318: call qword ptr [rax - 0x6efa72b8]; 
94187788321423: ret; 
94187788321420: dec dword ptr [rax + 0x39]; ret; 
94187788321418: idiv bh; dec dword ptr [rax + 0x39]; ret; 
94187788322130: ret; 
94187788322127: add byte ptr [rax + 0x39], cl; ret; 
94187788322421: ret; 
94187788322419: add byte ptr [rax], al; ret; 
94187788322417: fadd dword ptr [rax]; add byte ptr [rax], al; ret; 
94187788322415: add esp, 0xd8; ret; 
94187788322414: add rsp, 0xd8; ret; 
94187788322411: add byte ptr [rbp + 8], dh; add rsp, 0xd8; ret; 
94187788322409: add byte ptr [rax], al; add byte ptr [rbp + 8], dh; add rsp, 0xd8; ret; 
94187788322601: ret; 
94187788322599: add byte ptr [rax], al; ret; 
94187788322597: fadd dword ptr [rax]; add byte ptr [rax], al; ret; 
94187788322595: add esp, 0xd8; ret; 
94187788322594: add rsp, 0xd8; ret; 
94187788322591: add byte ptr [rbp + 8], dh; add rsp, 0xd8; ret; 
94187788322589: add byte ptr [rax], al; add byte ptr [rbp + 8], dh; add rsp, 0xd8; ret; 
94187788322774: ret; 
94187788322772: add byte ptr [rax], al; ret; 
94187788322770: fadd dword ptr [rax]; add byte ptr [rax], al; ret; 
94187788322768: add esp, 0xd8; ret; 
94187788322767: add rsp, 0xd8; ret; 
94187788322764: add byte ptr [rbp + 8], dh; add rsp, 0xd8; ret; 
94187788322762: add byte ptr [rax], al; add byte ptr [rbp + 8], dh; add rsp, 0xd8; ret; 
94187788322853: ret; 
94187788322867: ret; 
94187788322865: sub eax, eax; ret; 
94187788322864: sub rax, r8; ret; 
94187788322863: add byte ptr [rcx + rbp - 0x40], cl; ret; 
94187788322862: add byte ptr [rax], al; sub rax, r8; ret; 
94187788322861: add byte ptr [rax], al; add byte ptr [rcx + rbp - 0x40], cl; ret; 
94187788322860: add byte ptr [rax], al; add byte ptr [rax], al; sub rax, r8; ret; 
94187788322859: add byte ptr [rax], al; add byte ptr [rax], al; add byte ptr [rcx + rbp - 0x40], cl; ret; 
94187788322858: test byte ptr [rax], al; add byte ptr [rax], al; add byte ptr [rax], al; sub rax, r8; ret; 
94187788322856: nop dword ptr [rax + rax]; sub rax, r8; ret; 
94187788322855: nop dword ptr cs:[rax + rax]; sub rax, r8; ret; 
94187788322854: nop word ptr cs:[rax + rax]; sub rax, r8; ret; 
94187788322853: ret; 
94187788322963: ret; 
94187788322961: xor eax, eax; ret; 
94187788322958: sal byte ptr [rbp - 0x49], cl; xor eax, eax; ret; 
94187788322971: ret; 
94187788322969: sub eax, ecx; ret; 
94187788322968: sub rax, r9; ret; 
94187788322967: add byte ptr [rcx + rbp - 0x38], cl; ret; 
94187788322966: add byte ptr [rcx + rbp - 0x38], cl; ret; 
94187788322964: nop dword ptr [rax]; sub rax, r9; ret; 
94187788322963: ret; 
94187788323095: ret; 
94187788323094: pop rdi; ret; 
94187788323093: pop r15; ret; 
94187788323092: pop rsi; pop r15; ret; 
94187788323091: pop r14; pop r15; ret; 
94187788323090: pop rbp; pop r14; pop r15; ret; 
94187788323089: pop r13; pop r14; pop r15; ret; 
94187788323088: pop rsp; pop r13; pop r14; pop r15; ret; 
94187788323087: pop r12; pop r13; pop r14; pop r15; ret; 
94187788323201: ret; 
94187788323200: pop rsi; ret; 
94187788323199: pop r14; ret; 
94187788323198: pop rbp; pop r14; ret; 
94187788323197: pop r13; pop r14; ret; 
94187788323196: pop rsp; pop r13; pop r14; ret; 
94187788323195: pop r12; pop r13; pop r14; ret; 
94187788323194: pop rbp; pop r12; pop r13; pop r14; ret; 
94187788323193: call 0x55aa0f068adb; pop rbp; pop r14; ret; 
94187788323218: ret; 
94187788323217: pop rsi; ret; 
94187788323216: pop r14; ret; 
94187788323215: pop rbp; pop r14; ret; 
94187788323214: pop r13; pop r14; ret; 
94187788323213: pop rsp; pop r13; pop r14; ret; 
94187788323212: pop r12; pop r13; pop r14; ret; 
94187788323211: pop rbp; pop r12; pop r13; pop r14; ret; 
94187788323210: rcr byte ptr [rbp + 0x41], 0x5c; pop r13; pop r14; ret; 
94187788323354: ret; 
94187788323353: pop rsi; ret; 
94187788323352: pop r14; ret; 
94187788323351: pop rbp; pop r14; ret; 
94187788323350: pop r13; pop r14; ret; 
94187788323349: pop rsp; pop r13; pop r14; ret; 
94187788323348: pop r12; pop r13; pop r14; ret; 
94187788323347: pop rbp; pop r12; pop r13; pop r14; ret; 
94187788323346: call 0x55aa0f068b74; pop rbp; pop r14; ret; 
94187788323370: ret; 
94187788323369: pop rsi; ret; 
94187788323368: pop r14; ret; 
94187788323367: pop rbp; pop r14; ret; 
94187788323366: pop r13; pop r14; ret; 
94187788323365: pop rsp; pop r13; pop r14; ret; 
94187788323364: pop r12; pop r13; pop r14; ret; 
94187788323363: pop rbp; pop r12; pop r13; pop r14; ret; 
94187788323362: rcr byte ptr [rbp + 0x41], 0x5c; pop r13; pop r14; ret; 
94187788323520: ret; 
94187788323519: pop rdi; ret; 
94187788323518: pop r15; ret; 
94187788323517: pop rsi; pop r15; ret; 
94187788323516: pop r14; pop r15; ret; 
94187788323515: pop rbp; pop r14; pop r15; ret; 
94187788323514: pop r13; pop r14; pop r15; ret; 
94187788323513: pop rsp; pop r13; pop r14; pop r15; ret; 
94187788323512: pop r12; pop r13; pop r14; pop r15; ret; 
94187788323544: ret; 
94187788323543: pop rdi; ret; 
94187788323542: pop r15; ret; 
94187788323541: pop rsi; pop r15; ret; 
94187788323540: pop r14; pop r15; ret; 
94187788323539: pop rbp; pop r14; pop r15; ret; 
94187788323538: pop r13; pop r14; pop r15; ret; 
94187788323537: pop rsp; pop r13; pop r14; pop r15; ret; 
94187788323536: pop r12; pop r13; pop r14; pop r15; ret; 
94187788323621: ret; 
94187788323619: movsxd rax, eax; ret; 
94187788323618: movsxd rax, r8d; ret; 
94187788323616: sub eax, edx; movsxd rax, r8d; ret; 
94187788323615: sub r8d, edx; movsxd rax, r8d; ret; 
94187788323612: sal byte ptr [rcx + rbp*8 + 0x41], 1; sub eax, edx; movsxd rax, r8d; ret; 
94187788323634: ret; 
94187788323632: xor eax, eax; ret; 
94187788323630: add byte ptr [rax], al; xor eax, eax; ret; 
94187788323628: add byte ptr [rax], al; add byte ptr [rax], al; xor eax, eax; ret; 
94187788323626: test byte ptr [rax], al; add byte ptr [rax], al; add byte ptr [rax], al; xor eax, eax; ret; 
94187788323624: nop dword ptr [rax + rax]; xor eax, eax; ret; 
94187788323623: nop dword ptr cs:[rax + rax]; xor eax, eax; ret; 
94187788323622: nop word ptr cs:[rax + rax]; xor eax, eax; ret; 
94187788323621: ret; 
94187788323635: ret; 
94187788323634: ret; 
94187788323725: ret; 
94187788323724: cwde; ret; 
94187788323723: cdqe; ret; 
94187788323721: sub eax, ecx; cdqe; ret; 
94187788323720: shr byte ptr [rcx], 0xc8; cdqe; ret; 
94187788323719: mov dh, 0xc0; sub eax, ecx; cdqe; ret; 
94187788323718: movzx eax, al; sub eax, ecx; cdqe; ret; 
94187788323717: leave; movzx eax, al; sub eax, ecx; cdqe; ret; 
94187788323716: mov dh, 0xc9; movzx eax, al; sub eax, ecx; cdqe; ret; 
94187788323715: movzx ecx, cl; movzx eax, al; sub eax, ecx; cdqe; ret; 
94187788323730: ret; 
94187788323728: xor eax, eax; ret; 
94187788323727: nop; xor eax, eax; ret; 
94187788323726: nop; xor eax, eax; ret; 
94187788323725: ret; 
94187788323804: ret; 
94187788323803: pop rsp; ret; 
94187788323802: pop r12; ret; 
94187788323801: pop rbp; pop r12; ret; 
94187788323800: pop rbx; pop rbp; pop r12; ret; 
94187788323798: mov eax, esp; pop rbx; pop rbp; pop r12; ret; 
94187788323797: mov rax, r12; pop rbx; pop rbp; pop r12; ret; 
94187788323796: or ecx, dword ptr [rcx + rcx*4 - 0x20]; pop rbx; pop rbp; pop r12; ret; 
94187788323818: ret; 
94187788323817: pop rsp; ret; 
94187788323816: pop r12; ret; 
94187788323814: mov eax, esp; pop r12; ret; 
94187788323813: mov rax, r12; pop r12; ret; 
94187788323812: pop rbp; mov rax, r12; pop r12; ret; 
94187788323811: pop rbx; pop rbp; mov rax, r12; pop r12; ret; 
94187788323893: ret; 
94187788323928: ret; 
94187788323926: sub eax, eax; ret; 
94187788323925: sub rax, r8; ret; 
94187788323922: cmove eax, edx; sub rax, r8; ret; 
94187788323921: cmove r8, rdx; sub rax, r8; ret; 
94187788323920: cmove r8, rdx; sub rax, r8; ret; 
94187788323919: clc; cmove r8, rdx; sub rax, r8; ret; 
94187788323918: cmp eax, 0x2e; cmove r8, rdx; sub rax, r8; ret; 
94187788323917: cmp r8, 0x2e; cmove r8, rdx; sub rax, r8; ret; 
94187788323914: cmove eax, edx; cmp r8, 0x2e; cmove r8, rdx; sub rax, r8; ret; 
94187788323913: cmove rax, rdx; cmp r8, 0x2e; cmove r8, rdx; sub rax, r8; ret; 
94187788323912: cmove rax, rdx; cmp r8, 0x2e; cmove r8, rdx; sub rax, r8; ret; 
94187788323958: ret; 
94187788324003: ret; 
94187788324001: xor eax, eax; ret; 
94187788324045: ret; 
94187788324042: cmovne eax, edx; ret; 
94187788324041: cmovne rax, rdx; ret; 
94187788324038: cmp eax, 0x2f; cmovne rax, rdx; ret; 
94187788324037: cmp r8, 0x2f; cmovne rax, rdx; ret; 
94187788324035: sub edx, eax; cmp r8, 0x2f; cmovne rax, rdx; ret; 
94187788324034: sub rdx, r8; cmp r8, 0x2f; cmovne rax, rdx; ret; 
94187788324032: mov edx, eax; sub rdx, r8; cmp r8, 0x2f; cmovne rax, rdx; ret; 
94187788324031: mov rdx, rax; sub rdx, r8; cmp r8, 0x2f; cmovne rax, rdx; ret; 
94187788324051: ret; 
94187788324049: sub eax, eax; ret; 
94187788324048: sub rax, r8; ret; 
94187788324047: nop; sub rax, r8; ret; 
94187788324046: nop; sub rax, r8; ret; 
94187788324045: ret; 
94187788324183: ret; 
94187788324177: mov eax, 0xffffffff; ret; 
94187788324176: mov rax, -1; ret; 
94187788324174: add byte ptr [rax], al; mov rax, -1; ret; 
94187788324172: add byte ptr [rax], al; add byte ptr [rax], al; mov rax, -1; ret; 
94187788324170: test byte ptr [rax], al; add byte ptr [rax], al; add byte ptr [rax], al; mov rax, -1; ret; 
94187788324168: nop dword ptr [rax + rax]; mov rax, -1; ret; 
94187788324167: nop dword ptr cs:[rax + rax]; mov rax, -1; ret; 
94187788324166: nop word ptr cs:[rax + rax]; mov rax, -1; ret; 
94187788324163: shr bl, 0xca; nop word ptr cs:[rax + rax]; mov rax, -1; ret; 
94187788324160: cmovl ecx, dword ptr [rcx + 0x66caebc0]; nop dword ptr cs:[rax + rax]; mov rax, -1; ret; 
94187788324192: ret; 
94187788324190: add byte ptr [rax], al; ret; 
94187788324188: add byte ptr [rax], al; add byte ptr [rax], al; ret; 
94187788324186: test byte ptr [rax], al; add byte ptr [rax], al; add byte ptr [rax], al; ret; 
94187788324184: nop dword ptr [rax + rax]; ret; 
94187788324183: ret; 
94187788324327: ret; 
94187788324321: mov eax, 0xffffffff; ret; 
94187788324320: mov rax, -1; ret; 
94187788324317: sal byte ptr [rbp - 0x40], cl; mov rax, -1; ret; 
94187788324422: ret; 
94187788324419: push qword ptr [rbp - 0x16]; ret; 
94187788324418: stc; push qword ptr [rbp - 0x16]; ret; 
94187788324415: ror byte ptr [rax - 0x7d], 0xf9; push qword ptr [rbp - 0x16]; ret; 
94187788324412: add dword ptr [rax + 1], ecx; ror byte ptr [rax - 0x7d], 0xf9; push qword ptr [rbp - 0x16]; ret; 
94187788324408: or byte ptr [rax - 0x7d], 0xe9; add dword ptr [rax + 1], ecx; ror byte ptr [rax - 0x7d], 0xf9; push qword ptr [rbp - 0x16]; ret; 
94187788324423: ret; 
94187788324422: ret; 
94187788324591: ret; 
94187788324599: ret; 
94187788324593: mov eax, 0xffffffff; ret; 
94187788324592: mov rax, -1; ret; 
94187788324591: ret; 
94187788324683: ret; 
94187788324682: push rdi; ret; 
94187788324681: add al, 0x57; ret; 
94187788324680: lea eax, dword ptr [rdi + rdx*2]; ret; 
94187788324679: lea rax, qword ptr [rdi + rdx*2]; ret; 
94187788324678: ror dword ptr [rax - 0x73], 1; add al, 0x57; ret; 
94187788324676: bnd jne 0x55a9cdaa4f18; lea rax, qword ptr [rdi + rdx*2]; ret; 
94187788324673: dec dword ptr [rcx + 0x39]; bnd jne 0x55a9cdaa4f18; lea rax, qword ptr [rdi + rdx*2]; ret; 
94187788324672: dec qword ptr [rcx + 0x39]; bnd jne 0x55a9cdaa4f18; lea rax, qword ptr [rdi + rdx*2]; ret; 
94187788324669: or dword ptr [rcx - 0x78], eax; dec qword ptr [rcx + 0x39]; bnd jne 0x55a9cdaa4f18; lea rax, qword ptr [rdi + rdx*2]; ret; 
94187788324691: ret; 
94187788324690: clc; ret; 
94187788324689: mov eax, edi; ret; 
94187788324688: mov rax, rdi; ret; 
94187788324687: add byte ptr [rax - 0x77], cl; clc; ret; 
94187788324686: add byte ptr [rax - 0x77], cl; clc; ret; 
94187788324684: nop dword ptr [rax]; mov rax, rdi; ret; 
94187788324683: ret; 
94187788320953: jmp qword ptr [rsi + 0xf]; 
94187788321017: jmp qword ptr [rsi + 0xf]; 
94187788324436: jmp qword ptr [rsi + 0x66]; 
94187788324452: jmp qword ptr [rsi + 0x66]; 
94187788324468: jmp qword ptr [rsi + 0x66]; 
94187788324465: imul edi, esi, -1; jmp qword ptr [rsi + 0x66]; 
94187788324463: add cl, ch; imul edi, esi, -1; jmp qword ptr [rsi + 0x66]; 
94187788324461: add byte ptr [rax], al; add cl, ch; imul edi, esi, -1; jmp qword ptr [rsi + 0x66]; 
94187788324459: add byte ptr [rax], al; add byte ptr [rax], al; add cl, ch; imul edi, esi, -1; jmp qword ptr [rsi + 0x66]; 
94187788324452: jmp qword ptr [rsi + 0x66]; 
94187788324793: jmp qword ptr [rsi + 0xf]; 
94187788324825: jmp qword ptr [rsi + 0xf]; 
94187788323760: call qword ptr [rbp + 0x48]; 
94187788320907: ret 0x4808; 
94187788320975: ret 0x4808; 
94187788321044: ret 0x4808; 
94187788321088: ret 0x4808; 
94187788321128: ret 0x4808; 
94187788321184: ret 0x4808; 
94187788321237: ret 0x4810; 
94187788321402: ret 0x4501; 
94187788321478: ret 0x4808; 
94187788321527: ret 0x4808; 
94187788321603: ret 0x4808; 
94187788321623: ret 0x8b44; 
94187788321676: ret 0x4808; 
94187788321754: ret 0x4808; 
94187788321898: ret 0x4808; 
94187788321961: ret 0x4808; 
94187788322806: ret 0xc983; 
94187788322838: ret 0x394c; 
94187788322834: sbb dword ptr [rdi + rcx + 0x46], ecx; ret 0x394c; 
94187788322833: stc; sbb dword ptr [rdi + rcx + 0x46], ecx; ret 0x394c; 
94187788322830: ror byte ptr [rax - 0x7d], cl; stc; sbb dword ptr [rdi + rcx + 0x46], ecx; ret 0x394c; 
94187788322823: movabs rdi, 0x8348d2b60f20ca83; stc; sbb dword ptr [rdi + rcx + 0x46], ecx; ret 0x394c; 
94187788322954: ret 0x4c01; 
94187788322951: or dword ptr [rcx - 0x7d], ecx; ret 0x4c01; 
94187788322949: sal byte ptr [rcx + rcx + 0x49], 0x83; ret 0x4c01; 
94187788322946: adc eax, 0x74c08548; or dword ptr [rcx - 0x7d], ecx; ret 0x4c01; 
94187788323576: ret 0x2475; 
94187788323846: ret 0xc983; 
94187788323878: ret 0x394c; 
94187788323874: sbb dword ptr [rdi + rcx + 0x46], ecx; ret 0x394c; 
94187788323873: stc; sbb dword ptr [rdi + rcx + 0x46], ecx; ret 0x394c; 
94187788323870: ror byte ptr [rax - 0x7d], cl; stc; sbb dword ptr [rdi + rcx + 0x46], ecx; ret 0x394c; 
94187788323863: movabs rdi, 0x8348d2b60f20ca83; stc; sbb dword ptr [rdi + rcx + 0x46], ecx; ret 0x394c; 
94187788323916: ret 0x8349; 
94187788323924: ret 0x294c; 
94187788323916: ret 0x8349; 
94187788324030: ret 0x8948; 
94187788324033: ret 0x294c; 
94187788324030: ret 0x8948; 
94187788324036: ret 0x8349; 
94187788324033: ret 0x294c; 
94187788324044: ret 0x66c3; 
94187788324036: ret 0x8349; 
94187788324302: ret 0x6348; 
94187788324567: ret 0xc148; 
94187788322606: call qword ptr [rax - 0x27137eb8]; 
94187788322604: xchg edi, edi; call qword ptr [rax - 0x27137eb8]; 
94187788316728: ret; 
94187788316725: dec dword ptr [rcx - 0x77]; ret; 
94187788316722: mov bl, byte ptr [rbp - 0x76b60001]; ret; 
94187788316716: test byte ptr [rsi - 0x17000002], bl; mov bl, byte ptr [rbp - 0x76b60001]; ret; 
94187788316714: add al, 0xf; test byte ptr [rsi - 0x17000002], bl; mov bl, byte ptr [rbp - 0x76b60001]; ret; 
94187788316713: and byte ptr [rdi + rcx], al; test byte ptr [rsi - 0x17000002], bl; mov bl, byte ptr [rbp - 0x76b60001]; ret; 
94187788316712: and byte ptr [r15 + rcx], r8b; test byte ptr [rsi - 0x17000002], bl; mov bl, byte ptr [rbp - 0x76b60001]; ret; 
94187788318007: ret; 
94187788318006: popfq; ret; 
94187788318410: ret; 
94187788318407: shr al, 0xb3; ret; 
94187788318404: add dword ptr [rax + 0x31], edx; shr al, 0xb3; ret; 
94187788318718: ret; 
94187788318743: ret; 
94187788318844: ret; 
94187788318843: pop rsi; ret; 
94187788318842: pop r14; ret; 
94187788318841: pop rbp; pop r14; ret; 
94187788318840: pop r13; pop r14; ret; 
94187788318839: pop rsp; pop r13; pop r14; ret; 
94187788318838: pop r12; pop r13; pop r14; ret; 
94187788318837: pop rbp; pop r12; pop r13; pop r14; ret; 
94187788318836: rcr byte ptr [rbp + 0x41], 0x5c; pop r13; pop r14; ret; 
94187788318970: ret; 
94187788318969: pop rsi; ret; 
94187788318968: pop r14; ret; 
94187788318967: pop rbp; pop r14; ret; 
94187788318966: pop r13; pop r14; ret; 
94187788318965: pop rsp; pop r13; pop r14; ret; 
94187788318964: pop r12; pop r13; pop r14; ret; 
94187788318963: pop rbp; pop r12; pop r13; pop r14; ret; 
94187788319007: ret; 
94187788319006: pop rsi; ret; 
94187788319005: pop r14; ret; 
94187788319004: pop rbp; pop r14; ret; 
94187788319003: pop r13; pop r14; ret; 
94187788319002: pop rsp; pop r13; pop r14; ret; 
94187788319001: pop r12; pop r13; pop r14; ret; 
94187788319000: pop rbp; pop r12; pop r13; pop r14; ret; 
94187788318999: lcall ptr [rbp + 0x41]; pop rsp; pop r13; pop r14; ret; 
94187788319215: ret; 
94187788319212: ror dword ptr [rax - 0x7d], cl; ret; 
94187788319222: ret; 
94187788319215: ret; 
94187788319324: ret; 
94187788319323: pop rsi; ret; 
94187788319322: pop r14; ret; 
94187788319321: pop rbx; pop r14; ret; 
94187788319320: sub byte ptr [rbx + 0x41], bl; pop rsi; ret; 
94187788319318: add esp, 0x28; pop rbx; pop r14; ret; 
94187788319317: add rsp, 0x28; pop rbx; pop r14; ret; 
94187788319315: add byte ptr [rax], al; add rsp, 0x28; pop rbx; pop r14; ret; 
94187788319312: test dword ptr [rdi + 0x48000000], edx; add esp, 0x28; pop rbx; pop r14; ret; 
94187788319734: ret; 
94187788319732: mov dword ptr [rdi], edx; ret; 
94187788319731: mov qword ptr [rdi], r10; ret; 
94187788319729: sub edx, dword ptr [rsi]; mov qword ptr [rdi], r10; ret; 
94187788319728: sub r10, qword ptr [rsi]; mov qword ptr [rdi], r10; ret; 
94187788319727: add dword ptr [rbx + rbp + 0x16], ecx; mov qword ptr [rdi], r10; ret; 
94187788319726: push rdx; add dword ptr [rbx + rbp + 0x16], ecx; mov qword ptr [rdi], r10; ret; 
94187788319725: lea edx, dword ptr [rdx + 1]; sub r10, qword ptr [rsi]; mov qword ptr [rdi], r10; ret; 
94187788319724: lea r10, qword ptr [rdx + 1]; sub r10, qword ptr [rsi]; mov qword ptr [rdi], r10; ret; 
94187788319723: cmp eax, 0x1528d4c; sub r10, qword ptr [rsi]; mov qword ptr [rdi], r10; ret; 
94187788319722: add bh, byte ptr [rip + 0x1528d4c]; sub r10, qword ptr [rsi]; mov qword ptr [rdi], r10; ret; 
94187788319721: mov byte ptr [rdx], 0x3d; lea r10, qword ptr [rdx + 1]; sub r10, qword ptr [rsi]; mov qword ptr [rdi], r10; ret; 
94187788320043: ret; 
94187788320139: ret; 
94187788320138: pop rbp; ret; 
94187788320137: pop rbx; pop rbp; ret; 
94187788320135: xor eax, eax; pop rbx; pop rbp; ret; 
94187788320133: mov dword ptr [rdi], eax; xor eax, eax; pop rbx; pop rbp; ret; 
94187788320132: mov qword ptr [rdi], rax; xor eax, eax; pop rbx; pop rbp; ret; 
94187788320167: ret; 
94187788320161: mov eax, 0xffffffff; ret; 
94187788320160: mov rax, -1; ret; 
94187788320158: add byte ptr [rax], al; mov rax, -1; ret; 
94187788320156: add byte ptr [rax], al; add byte ptr [rax], al; mov rax, -1; ret; 
94187788320154: test byte ptr [rax], al; add byte ptr [rax], al; add byte ptr [rax], al; mov rax, -1; ret; 
94187788320152: nop dword ptr [rax + rax]; mov rax, -1; ret; 
94187788320195: ret; 
94187788320193: xor eax, eax; ret; 
94187788320191: mov dword ptr [rdi], eax; xor eax, eax; ret; 
94187788320190: mov qword ptr [rdi], rax; xor eax, eax; ret; 
94187788320189: ror byte ptr [rax - 0x77], 7; xor eax, eax; ret; 
94187788320188: sub eax, eax; mov qword ptr [rdi], rax; xor eax, eax; ret; 
94187788320187: sub rax, rax; mov qword ptr [rdi], rax; xor eax, eax; ret; 
94187788320185: mov eax, dword ptr [rsi]; sub rax, rax; mov qword ptr [rdi], rax; xor eax, eax; ret; 
94187788320184: mov rax, qword ptr [rsi]; sub rax, rax; mov qword ptr [rdi], rax; xor eax, eax; ret; 
94187788320210: ret; 
94187788320291: ret; 
94187788320288: sal dword ptr [rbp - 0x23], 1; ret; 
94187788320285: add dword ptr [rax + 0x39], ecx; sal dword ptr [rbp - 0x23], 1; ret; 
94187788320281: cmovs eax, dword ptr [rbx + 0x394801c1]; sal dword ptr [rbp - 0x23], 1; ret; 
94187788320278: ror byte ptr [rax - 0x7cb7f0fc], 0xc1; add dword ptr [rax + 0x39], ecx; sal dword ptr [rbp - 0x23], 1; ret; 
94187788320277: ror byte ptr [rax - 0x7cb7f0fc], 0xc1; add dword ptr [rax + 0x39], ecx; sal dword ptr [rbp - 0x23], 1; ret; 
94187788320274: sbb al, byte ptr [rcx + 0xf]; ror byte ptr [rax - 0x7cb7f0fc], 0xc1; add dword ptr [rax + 0x39], ecx; sal dword ptr [rbp - 0x23], 1; ret; 
94187788320343: ret; 
94187788320342: int1; ret; 
94187788320340: sal byte ptr [rbp - 0xf], 1; ret; 
94187788320337: add dword ptr [rax + 0x39], ecx; sal byte ptr [rbp - 0xf], 1; ret; 
94187788320355: ret; 
94187788320353: mov eax, edx; ret; 
94187788320352: mov rax, rdx; ret; 
94187788320350: add byte ptr [rax], al; mov rax, rdx; ret; 
94187788320348: add byte ptr [rax], al; add byte ptr [rax], al; mov rax, rdx; ret; 
94187788320346: test byte ptr [rax], al; add byte ptr [rax], al; add byte ptr [rax], al; mov rax, rdx; ret; 
94187788320344: nop dword ptr [rax + rax]; mov rax, rdx; ret; 
94187788320343: ret; 
94187788320358: ret; 
94187788320356: xor eax, eax; ret; 
94187788320355: ret; 
94187788320429: ret; 
94187788320427: add byte ptr [rax], al; ret; 
94187788320426: mov byte ptr [rax], 0; ret; 
94187788320425: out 0xc6, al; add byte ptr [rax], al; ret; 
94187788320435: ret; 
94187788320434: clc; ret; 
94187788320433: mov eax, edi; ret; 
94187788320432: mov rax, rdi; ret; 
94187788320431: nop; mov rax, rdi; ret; 
94187788320430: nop; mov rax, rdi; ret; 
94187788320429: ret; 
94187788320490: ret; 
94187788320489: pop rbx; ret; 
94187788320487: mov eax, ecx; pop rbx; ret; 
94187788320486: mov rax, rcx; pop rbx; ret; 
94187788320485: ror dword ptr [rax - 0x77], -0x38; pop rbx; ret; 
94187788320484: mov ecx, eax; mov rax, rcx; pop rbx; ret; 
94187788320483: mov rcx, rax; mov rax, rcx; pop rbx; ret; 
94187788320482: dec dword ptr [rax - 0x77]; ror dword ptr [rax - 0x77], -0x38; pop rbx; ret; 
94187788320478: call 0x55a9cda9d580; mov rcx, rax; mov rax, rcx; pop rbx; ret; 
94187788320584: ret; 
94187788320583: pop rdi; ret; 
94187788320582: pop r15; ret; 
94187788320581: pop rsi; pop r15; ret; 
94187788320580: pop r14; pop r15; ret; 
94187788320579: pop rbp; pop r14; pop r15; ret; 
94187788320578: pop r13; pop r14; pop r15; ret; 
94187788320577: pop rsp; pop r13; pop r14; pop r15; ret; 
94187788320576: pop r12; pop r13; pop r14; pop r15; ret; 
94187788320679: ret; 
94187788320676: add byte ptr [rcx - 0x39], cl; ret; 
94187788320674: add byte ptr [rax], al; add byte ptr [rcx - 0x39], cl; ret; 
94187788320749: jmp rsi; 
94187788320747: add esi, esp; jmp rsi; 
94187788320746: add rsi, r12; jmp rsi; 
94187788320745: mov ah, 0x4c; add esi, esp; jmp rsi; 
94187788320744: xor al, 0xb4; add rsi, r12; jmp rsi; 
94187788320742: movsxd rsi, dword ptr [r12 + rsi*4]; add rsi, r12; jmp rsi; 
94187788320741: test byte ptr [rcx + 0x63], 0x34; mov ah, 0x4c; add esi, esp; jmp rsi; 
94187788320740: mov dh, 0xf6; movsxd rsi, dword ptr [r12 + rsi*4]; add rsi, r12; jmp rsi; 
94187788320739: movzx esi, dh; movsxd rsi, dword ptr [r12 + rsi*4]; add rsi, r12; jmp rsi; 
94187788320738: movzx esi, sil; movsxd rsi, dword ptr [r12 + rsi*4]; add rsi, r12; jmp rsi; 
94187788320737: add byte ptr [rax + 0xf], al; mov dh, 0xf6; movsxd rsi, dword ptr [r12 + rsi*4]; add rsi, r12; jmp rsi; 
94187788320736: add byte ptr [rax], al; movzx esi, sil; movsxd rsi, dword ptr [r12 + rsi*4]; add rsi, r12; jmp rsi; 
94187788316781: jmp qword ptr [rsi - 0x70]; 
94187788316917: jmp qword ptr [rsi + 0x2e]; 
94187788316937: jmp qword ptr [rsi + 0xf]; 
94187788317209: jmp qword ptr [rsi + 0xf]; 
94187788317273: jmp qword ptr [rsi + 0xf]; 
94187788317309: jmp qword ptr [rsi - 0x70]; 
94187788317574: jmp qword ptr [rsi + 0xf]; 
94187788317985: jmp qword ptr [rsi + 0xf]; 
94187788317983: idiv edi; jmp qword ptr [rsi + 0xf]; 
94187788318068: jmp qword ptr [rsi + 0x66]; 
94187788319373: jmp qword ptr [rsi - 0x70]; 
94187788319472: jmp qword ptr [rsi + 0x66]; 
94187788317918: call qword ptr [rbp + 0x78]; 
94187788317916: mov esi, esp; call qword ptr [rbp + 0x78]; 
94187788317915: mov rsi, r12; call qword ptr [rbp + 0x78]; 
94187788317914: add byte ptr [rcx + rcx*4 - 0x1a], cl; call qword ptr [rbp + 0x78]; 
94187788317913: add byte ptr [rax], al; mov rsi, r12; call qword ptr [rbp + 0x78]; 
94187788317912: add byte ptr [rax], al; add byte ptr [rcx + rcx*4 - 0x1a], cl; call qword ptr [rbp + 0x78]; 
94187788317911: add byte ptr [rax], 0; add byte ptr [rcx + rcx*4 - 0x1a], cl; call qword ptr [rbp + 0x78]; 
94187788317910: mov ebp, 0x80; mov rsi, r12; call qword ptr [rbp + 0x78]; 
94187788317909: mov edi, dword ptr [rbp + 0x80]; mov rsi, r12; call qword ptr [rbp + 0x78]; 
94187788317908: mov rdi, qword ptr [rbp + 0x80]; mov rsi, r12; call qword ptr [rbp + 0x78]; 
94187788317907: add byte ptr [rax - 0x75], cl; mov ebp, 0x80; mov rsi, r12; call qword ptr [rbp + 0x78]; 
94187788317906: add byte ptr [rax], al; mov rdi, qword ptr [rbp + 0x80]; mov rsi, r12; call qword ptr [rbp + 0x78]; 
94187788317905: add byte ptr [rax], al; add byte ptr [rax - 0x75], cl; mov ebp, 0x80; mov rsi, r12; call qword ptr [rbp + 0x78]; 
94187788317904: xchg byte ptr [rax], al; add byte ptr [rax], al; mov rdi, qword ptr [rbp + 0x80]; mov rsi, r12; call qword ptr [rbp + 0x78]; 
94187788317903: test dword ptr [rsi + 0x48000000], eax; mov edi, dword ptr [rbp + 0x80]; mov rsi, r12; call qword ptr [rbp + 0x78]; 
94187788318029: call qword ptr [rbp + 0x78]; 
94187788318027: xor esi, esi; call qword ptr [rbp + 0x78]; 
94187788318025: add byte ptr [rax], al; xor esi, esi; call qword ptr [rbp + 0x78]; 
94187788318022: mov edi, 0x80; xor esi, esi; call qword ptr [rbp + 0x78]; 
94187788318021: mov edi, dword ptr [rdi + 0x80]; xor esi, esi; call qword ptr [rbp + 0x78]; 
94187788318020: mov rdi, qword ptr [rdi + 0x80]; xor esi, esi; call qword ptr [rbp + 0x78]; 
94187788318019: dec dword ptr [rax - 0x75]; mov edi, 0x80; xor esi, esi; call qword ptr [rbp + 0x78]; 
94187788318709: call qword ptr [rbp + 0x38]; 
94187788318708: out dx, eax; call qword ptr [rbp + 0x38]; 
94187788318707: mov edi, ebp; call qword ptr [rbp + 0x38]; 
94187788318706: mov rdi, rbp; call qword ptr [rbp + 0x38]; 
94187788318705: and byte ptr [rax - 0x77], cl; out dx, eax; call qword ptr [rbp + 0x38]; 
94187788318704: push rsi; and byte ptr [rax - 0x77], cl; out dx, eax; call qword ptr [rbp + 0x38]; 
94187788318703: mov edx, dword ptr [rsi + 0x20]; mov rdi, rbp; call qword ptr [rbp + 0x38]; 
94187788318702: mov rdx, qword ptr [r14 + 0x20]; mov rdi, rbp; call qword ptr [rbp + 0x38]; 
94187788318701: mov rdx, qword ptr ss:[r14 + 0x20]; mov rdi, rbp; call qword ptr [rbp + 0x38]; 
94187788318700: mov esi, dword ptr [rsi]; mov rdx, qword ptr [r14 + 0x20]; mov rdi, rbp; call qword ptr [rbp + 0x38]; 
94187788318699: mov rsi, qword ptr [r14]; mov rdx, qword ptr [r14 + 0x20]; mov rdi, rbp; call qword ptr [rbp + 0x38]; 
94187788318698: add byte ptr [rcx - 0x75], cl; mov rdx, qword ptr ss:[r14 + 0x20]; mov rdi, rbp; call qword ptr [rbp + 0x38]; 
94187788318697: add byte ptr [rax], al; mov rsi, qword ptr [r14]; mov rdx, qword ptr [r14 + 0x20]; mov rdi, rbp; call qword ptr [rbp + 0x38]; 
94187788318696: add byte ptr [rax], al; add byte ptr [rcx - 0x75], cl; mov rdx, qword ptr ss:[r14 + 0x20]; mov rdi, rbp; call qword ptr [rbp + 0x38]; 
94187788316762: ret 1; 
94187788318004: ret 0x9d0f; 
94187788318656: ret 0xffff; 
94187788318653: shr al, 0xbd; ret 0xffff; 
94187788318650: add dword ptr [rax + 0x31], edx; shr al, 0xbd; ret 0xffff; 
94187788319145: ret 0x860f; 
94187788319509: ret 0x4804; 
94187788319506: add dword ptr [rcx - 0x7d], ecx; ret 0x4804; 
94187788319763: ret 0xeb02; 
94187788320336: ret 0x4801; 
94187788320333: adc cl, byte ptr [rax - 0x7d]; ret 0x4801; 
94187788320327: add byte ptr [rax + 0x7400173c], al; adc cl, byte ptr [rax - 0x7d]; ret 0x4801; 
94187788320325: add byte ptr [rax], al; add byte ptr [rax + 0x7400173c], al; adc cl, byte ptr [rax - 0x7d]; ret 0x4801; 
94187788320320: or eax, 0x801f0f; add byte ptr [rax], al; add byte ptr [rax + 0x7400173c], al; adc cl, byte ptr [rax - 0x7d]; ret 0x4801; 
94187788324919: ret; 
94187788324916: cmovae eax, edx; ret; 
94187788324911: mov edx, 0xffffffff; cmovae eax, edx; ret; 
94187788324909: cmp ecx, eax; mov edx, 0xffffffff; cmovae eax, edx; ret; 
94187788324908: cmp r9d, eax; mov edx, 0xffffffff; cmovae eax, edx; ret; 
94187788324907: in al, 0x41; cmp ecx, eax; mov edx, 0xffffffff; cmovae eax, edx; ret; 
94187788324905: bnd jne 0x55a9cdaa5010; cmp r9d, eax; mov edx, 0xffffffff; cmovae eax, edx; ret; 
94187788324963: ret; 
94187788324958: mov eax, 0xfffffffe; ret; 
94187788324957: cmpsd dword ptr [rsi], dword ptr [rdi]; mov eax, 0xfffffffe; ret; 
94187788325005: ret; 
94187788325000: mov eax, 0xffffffff; ret; 
94187788324999: add byte ptr [rax - 1], bh; ret; 
94187788324998: add byte ptr [rax], al; mov eax, 0xffffffff; ret; 
94187788324997: add byte ptr [rax], r8b; mov eax, 0xffffffff; ret; 
94187788324995: nop dword ptr [rax + rax]; mov eax, 0xffffffff; ret; 
94187788324994: nop word ptr [rax + rax]; mov eax, 0xffffffff; ret; 
94187788325018: ret; 
94187788325016: mov dword ptr [rdi], eax; ret; 
94187788325015: mov qword ptr [rdi], r8; ret; 
94187788325014: dec dword ptr [rcx + rcx*4 + 7]; ret; 
94187788325010: mov eax, 0xffffffff; mov qword ptr [rdi], r8; ret; 
94187788325009: add dword ptr [rax - 1], edi; mov qword ptr [rdi], r8; ret; 
94187788325007: add eax, 1; mov eax, 0xffffffff; mov qword ptr [rdi], r8; ret; 
94187788325006: add r8, 1; mov eax, 0xffffffff; mov qword ptr [rdi], r8; ret; 
94187788325005: ret; 
94187788325070: ret; 
94187788325067: add dword ptr [rax - 0x7d], ecx; ret; 
94187788325112: ret; 
94187788325109: or byte ptr [rax - 0x7d], cl; ret; 
94187788325132: ret; 
94187788325131: pop rbp; ret; 
94187788325130: pop r13; ret; 
94187788325129: pop rsp; pop r13; ret; 
94187788325128: pop r12; pop r13; ret; 
94187788325127: pop rbp; pop r12; pop r13; ret; 
94187788325126: pop rbx; pop rbp; pop r12; pop r13; ret; 
94187788325125: fcomp dword ptr [rbx + 0x5d]; pop r12; pop r13; ret; 
94187788325152: ret; 
94187788325151: pop rbp; ret; 
94187788325150: pop r13; ret; 
94187788325149: pop rsp; pop r13; ret; 
94187788325148: pop r12; pop r13; ret; 
94187788325147: pop rbp; pop r12; pop r13; ret; 
94187788325146: pop rbx; pop rbp; pop r12; pop r13; ret; 
94187788325145: fcomp dword ptr [rbx + 0x5d]; pop r12; pop r13; ret; 
94187788325228: ret; 
94187788325275: ret; 
94187788325274: pop rsp; ret; 
94187788325273: pop r12; ret; 
94187788325272: pop rbp; pop r12; ret; 
94187788325271: pop rbx; pop rbp; pop r12; ret; 
94187788325270: and byte ptr [rbx + 0x5d], bl; pop r12; ret; 
94187788325268: add esp, 0x20; pop rbx; pop rbp; pop r12; ret; 
94187788325267: add rsp, 0x20; pop rbx; pop rbp; pop r12; ret; 
94187788325367: ret; 
94187788325525: ret; 
94187788325524: clc; ret; 
94187788325523: mov eax, edi; ret; 
94187788325522: mov rax, rdi; ret; 
94187788325521: fisttp dword ptr [rax - 0x77]; clc; ret; 
94187788325515: mov dword ptr [rcx], 0x75f33949; fisttp dword ptr [rax - 0x77]; clc; ret; 
94187788325510: mov ecx, 0x83480f88; mov dword ptr [rcx], 0x75f33949; fisttp dword ptr [rax - 0x77]; clc; ret; 
94187788325598: ret; 
94187788325601: ret; 
94187788325599: xor eax, eax; ret; 
94187788325598: ret; 
94187788325895: ret; 
94187788325893: mov dword ptr [rsi], eax; ret; 
94187788325892: mov qword ptr [rsi], r8; ret; 
94187788325891: pop rbp; mov qword ptr [rsi], r8; ret; 
94187788325890: pop r13; mov qword ptr [rsi], r8; ret; 
94187788325889: pop rsp; pop r13; mov qword ptr [rsi], r8; ret; 
94187788325888: pop r12; pop r13; mov qword ptr [rsi], r8; ret; 
94187788325887: cmovno ebx, dword ptr [rcx + rax*2 + 0x5d]; mov qword ptr [rsi], r8; ret; 
94187788325886: mov dword ptr [rdi], ecx; pop r12; pop r13; mov qword ptr [rsi], r8; ret; 
94187788325885: mov qword ptr [rdi], r9; pop r12; pop r13; mov qword ptr [rsi], r8; ret; 
94187788326039: ret; 
94187788326037: mov dword ptr [rsi], eax; ret; 
94187788326036: mov qword ptr [rsi], r8; ret; 
94187788326035: pop rbp; mov qword ptr [rsi], r8; ret; 
94187788326034: pop r13; mov qword ptr [rsi], r8; ret; 
94187788326033: pop rsp; pop r13; mov qword ptr [rsi], r8; ret; 
94187788326032: pop r12; pop r13; mov qword ptr [rsi], r8; ret; 
94187788326031: cmovno ebx, dword ptr [rcx + rax*2 + 0x5d]; mov qword ptr [rsi], r8; ret; 
94187788326030: mov dword ptr [rdi], ecx; pop r12; pop r13; mov qword ptr [rsi], r8; ret; 
94187788326029: mov qword ptr [rdi], r9; pop r12; pop r13; mov qword ptr [rsi], r8; ret; 
94187788326100: ret; 
94187788326119: ret; 
94187788326118: pop rbp; ret; 
94187788326117: pop r13; ret; 
94187788326115: mov dword ptr [rsi], eax; pop r13; ret; 
94187788326114: mov qword ptr [rsi], r8; pop r13; ret; 
94187788326113: pop rsp; mov qword ptr [rsi], r8; pop r13; ret; 
94187788326112: pop r12; mov qword ptr [rsi], r8; pop r13; ret; 
94187788326110: mov dword ptr [rdi], ecx; pop r12; mov qword ptr [rsi], r8; pop r13; ret; 
94187788326109: mov qword ptr [rdi], r9; pop r12; mov qword ptr [rsi], r8; pop r13; ret; 
94187788326271: ret; 
94187788326269: mov dword ptr [rsi], eax; ret; 
94187788326268: mov qword ptr [rsi], r8; ret; 
94187788326266: mov dword ptr [rdi], ecx; mov qword ptr [rsi], r8; ret; 
94187788326265: mov qword ptr [rdi], r9; mov qword ptr [rsi], r8; ret; 
94187788326264: dec dword ptr [rcx + rcx*4 + 0xf]; mov qword ptr [rsi], r8; ret; 
94187788326386: ret; 
94187788326385: clc; ret; 
94187788326384: mov eax, edi; ret; 
94187788326383: mov rax, rdi; ret; 
94187788326382: fisttp qword ptr [rax - 0x77]; clc; ret; 
94187788326376: mov dword ptr [rax + rcx*2], 0xdd75f039; mov rax, rdi; ret; 
94187788326373: cmp ecx, dword ptr [rax - 0x7d]; mov dword ptr [rax + rcx*2], 0xdd75f039; mov rax, rdi; ret; 
94187788326535: ret; 
94187788326552: ret; 
94187788326550: xor eax, eax; ret; 
94187788326546: rol byte ptr [rbx + rbp*8], 0xc8; xor eax, eax; ret; 
94187788326543: add byte ptr [rax - 0x7d], cl; rol byte ptr [rbx + rbp*8], 0xc8; xor eax, eax; ret; 
94187788326541: add byte ptr [rax], al; add byte ptr [rax - 0x7d], cl; rol byte ptr [rbx + rbp*8], 0xc8; xor eax, eax; ret; 
94187788326643: ret; 
94187788326642: clc; ret; 
94187788326641: mov eax, edi; ret; 
94187788326640: mov rax, rdi; ret; 
94187788326639: ror byte ptr [rax - 0x77], 1; clc; ret; 
94187788326916: ret; 
94187788326919: ret; 
94187788326917: xor eax, eax; ret; 
94187788326916: ret; 
94187788326977: ret; 
94187788326972: call 0x55a956f28eb5; ret; 
94187788327058: ret; 
94187788327057: pop rbp; ret; 
94187788327056: pop r13; ret; 
94187788327055: pop rsp; pop r13; ret; 
94187788327054: pop r12; pop r13; ret; 
94187788327053: pop rbp; pop r12; pop r13; ret; 
94187788327052: pop rbx; pop rbp; pop r12; pop r13; ret; 
94187788327051: or byte ptr [rbx + 0x5d], bl; pop r12; pop r13; ret; 
94187788327156: ret; 
94187788327155: pop rbp; ret; 
94187788327154: pop r13; ret; 
94187788327153: pop rsp; pop r13; ret; 
94187788327152: pop r12; pop r13; ret; 
94187788327151: pop rbp; pop r12; pop r13; ret; 
94187788327150: pop rbx; pop rbp; pop r12; pop r13; ret; 
94187788327149: fcomp dword ptr [rbx + 0x5d]; pop r12; pop r13; ret; 
94187788327196: ret; 
94187788327195: pop rbp; ret; 
94187788327194: pop r13; ret; 
94187788327193: pop rsp; pop r13; ret; 
94187788327192: pop r12; pop r13; ret; 
94187788327191: pop rbp; pop r12; pop r13; ret; 
94187788327190: pop rbx; pop rbp; pop r12; pop r13; ret; 
94187788327189: fcomp dword ptr [rbx + 0x5d]; pop r12; pop r13; ret; 
94187788327453: ret; 
94187788327452: pop rdi; ret; 
94187788327451: pop r15; ret; 
94187788327450: pop rsi; pop r15; ret; 
94187788327449: pop r14; pop r15; ret; 
94187788327448: pop rbp; pop r14; pop r15; ret; 
94187788327447: pop r13; pop r14; pop r15; ret; 
94187788327446: pop rsp; pop r13; pop r14; pop r15; ret; 
94187788327445: pop r12; pop r13; pop r14; pop r15; ret; 
94187788327477: ret; 
94187788327474: add esp, 8; ret; 
94187788327473: add rsp, 8; ret; 
94187788327470: mfence; add rsp, 8; ret; 
94187788327465: call 0x55a9cda9c170; mfence; add rsp, 8; ret; 
94187788327463: xor esi, esi; call 0x55a9cda9c170; mfence; add rsp, 8; ret; 
94187788327462: xor esi, esi; call 0x55a9cda9c170; mfence; add rsp, 8; ret; 
94187788327600: ret; 
94187788327599: scasd eax, dword ptr [rdi]; ret; 
94187788327607: ret; 
94187788327606: pop rbp; ret; 
94187788327605: pop rbx; pop rbp; ret; 
94187788327604: or byte ptr [rbx + 0x5d], bl; ret; 
94187788327602: add esp, 8; pop rbx; pop rbp; ret; 
94187788327601: add rsp, 8; pop rbx; pop rbp; ret; 
94187788327600: ret; 
94187788327725: ret; 
94187788327722: or eax, 0xffffffff; ret; 
94187788327721: or rax, 0xffffffffffffffff; ret; 
94187788327809: ret; 
94187788327808: scasd eax, dword ptr [rdi]; ret; 
94187788327805: add byte ptr [rax + 0xf], cl; scasd eax, dword ptr [rdi]; ret; 
94187788327803: add byte ptr [rax], al; add byte ptr [rax + 0xf], cl; scasd eax, dword ptr [rdi]; ret; 
94187788327816: ret; 
94187788327815: pop rbp; ret; 
94187788327814: pop rbx; pop rbp; ret; 
94187788327813: or byte ptr [rbx + 0x5d], bl; ret; 
94187788327811: add esp, 8; pop rbx; pop rbp; ret; 
94187788327810: add rsp, 8; pop rbx; pop rbp; ret; 
94187788327809: ret; 
94187788327839: ret; 
94187788327854: ret; 
94187788327851: add byte ptr [rax - 0x7b], cl; ret; 
94187788327849: add byte ptr [rax], al; add byte ptr [rax - 0x7b], cl; ret; 
94187788327848: add byte ptr [rax], al; add byte ptr [rax - 0x7b], cl; ret; 
94187788327846: add byte ptr [rax], al; add byte ptr [rax], al; add byte ptr [rax - 0x7b], cl; ret; 
94187788327843: mov eax, 0x40; add byte ptr [rax], al; add byte ptr [rax - 0x7b], cl; ret; 
94187788327839: ret; 
94187788327900: ret; 
94187788327897: dec dword ptr [rax - 0x7f]; ret; 
94187788328000: ret; 
94187788327997: or eax, 0xffffffff; ret; 
94187788327996: or rax, 0xffffffffffffffff; ret; 
94187788328361: ret; 
94187788328360: pop rdi; ret; 
94187788328359: pop r15; ret; 
94187788328358: pop rsi; pop r15; ret; 
94187788328357: pop r14; pop r15; ret; 
94187788328356: pop rbp; pop r14; pop r15; ret; 
94187788328355: pop r13; pop r14; pop r15; ret; 
94187788328354: pop rsp; pop r13; pop r14; pop r15; ret; 
94187788328353: pop r12; pop r13; pop r14; pop r15; ret; 
94187788328763: ret; 
94187788328762: pop rdi; ret; 
94187788328761: pop r15; ret; 
94187788328760: pop rsi; pop r15; ret; 
94187788328759: pop r14; pop r15; ret; 
94187788328758: pop rbp; pop r14; pop r15; ret; 
94187788328757: pop r13; pop r14; pop r15; ret; 
94187788328756: pop rsp; pop r13; pop r14; pop r15; ret; 
94187788328755: pop r12; pop r13; pop r14; pop r15; ret; 
94187788328805: ret; 
94187788328799: mov eax, 0xffffffff; ret; 
94187788328798: mov rax, -1; ret; 
94187788328933: ret; 
94187788328927: mov eax, 0xffffffff; ret; 
94187788328926: mov rax, -1; ret; 
94187788328925: mov rax, -1; ret; 
94187788325100: call qword ptr [rax]; 
94187788325316: call qword ptr [rax]; 
94187788326669: jmp rdx; 
94187788326667: add edx, eax; jmp rdx; 
94187788326666: add rdx, r8; jmp rdx; 
94187788326665: nop; add rdx, r8; jmp rdx; 
94187788326664: adc al, 0x90; add rdx, r8; jmp rdx; 
94187788326662: movsxd rdx, dword ptr [r8 + rdx*4]; add rdx, r8; jmp rdx; 
94187788326661: ror byte ptr [rcx + 0x63], cl; adc al, 0x90; add rdx, r8; jmp rdx; 
94187788326660: mov dh, 0xd2; movsxd rdx, dword ptr [r8 + rdx*4]; add rdx, r8; jmp rdx; 
94187788326659: movzx edx, dl; movsxd rdx, dword ptr [r8 + rdx*4]; add rdx, r8; jmp rdx; 
94187788326658: pop rbp; movzx edx, dl; movsxd rdx, dword ptr [r8 + rdx*4]; add rdx, r8; jmp rdx; 
94187788326656: add eax, 0xb60f5d77; ror byte ptr [rcx + 0x63], cl; adc al, 0x90; add rdx, r8; jmp rdx; 
94187788327372: call rsi; 
94187788324993: jmp qword ptr [rsi + 0xf]; 
94187788326182: jmp qword ptr [rsi + 0xf]; 
94187788326217: jmp qword ptr [rsi + 0xf]; 
94187788326805: jmp qword ptr [rsi + 0x2e]; 
94187788327942: jmp qword ptr [rsi + 0xf]; 
94187788327974: jmp qword ptr [rsi + 0xf]; 
94187788328517: jmp qword ptr [rsi + 0x2e]; 
94187788328621: jmp qword ptr [rsi - 0x70]; 
94187788328837: jmp qword ptr [rsi + 0x2e]; 
94187788327504: call qword ptr [rbx + 0x48]; 
94187788324882: ret 0x4801; 
94187788324918: ret 0xfc3; 
94187788325727: ret 0x428d; 
94187788325725: inc byte ptr [rcx]; ret 0x428d; 
94187788325724: pop rdx; inc byte ptr [rcx]; ret 0x428d; 
94187788325925: ret 0x428d; 
94187788325923: add al, 1; ret 0x428d; 
94187788326173: ret 0x4d02; 
94187788326170: fisttp dword ptr [rax - 0x7d]; ret 0x4d02; 
94187788326167: add dword ptr [rcx - 0x77], ecx; fisttp dword ptr [rax - 0x7d]; ret 0x4d02; 
94187788326166: add dword ptr [rcx - 0x77], ecx; fisttp dword ptr [rax - 0x7d]; ret 0x4d02; 
94187788326165: mov dh, 0x42; add dword ptr [rcx - 0x77], ecx; fisttp dword ptr [rax - 0x7d]; ret 0x4d02; 
94187788326161: sal byte ptr [rbp + rax*2 + 0xf], cl; mov dh, 0x42; add dword ptr [rcx - 0x77], ecx; fisttp dword ptr [rax - 0x7d]; ret 0x4d02; 
94187788326668: ret 0xe2ff; 
94187788326766: ret 0xe083; 
94187788326778: ret 0x3c30; 
94187788326793: ret 0x8348; 
94187788328032: ret 0x149; 
94187788328031: xchg eax, esp; ret 0x149; 
94187788328028: test byte ptr [rcx + 0xf], 0x94; ret 0x149; 
94187788328025: ror byte ptr [rax - 0x7b], cl; test byte ptr [rcx + 0xf], 0x94; ret 0x149; 
94187788328041: ret 0x830f; 
94187788328949: ret 0x8348; 
94187788329065: ret; 
94187788329064: pop rbp; ret; 
94187788329063: pop rbx; pop rbp; ret; 
94187788329062: lcall ptr [rbx + 0x5d]; ret; 
94187788329057: mov eax, 0xffffffff; pop rbx; pop rbp; ret; 
94187788329056: mov rax, -1; pop rbx; pop rbp; ret; 
94187788329054: add byte ptr [rax], al; mov rax, -1; pop rbx; pop rbp; ret; 
94187788329053: add byte ptr [rax], r8b; mov rax, -1; pop rbx; pop rbp; ret; 
94187788329051: nop dword ptr [rax + rax]; mov rax, -1; pop rbx; pop rbp; ret; 
94187788329050: nop word ptr [rax + rax]; mov rax, -1; pop rbx; pop rbp; ret; 
94187788329556: ret; 
94187788329553: dec dword ptr [rax - 0x42]; ret; 
94187788329720: ret; 
94187788329802: ret; 
94187788329800: add eax, edx; ret; 
94187788329799: add rax, rdx; ret; 
94187788329798: xchg eax, edi; add rax, rdx; ret; 
94187788329797: adc al, 0x97; add rax, rdx; ret; 
94187788329796: lea edx, dword ptr [rdi + rdx*4]; add rax, rdx; ret; 
94187788329795: lea rdx, qword ptr [rdi + rdx*4]; add rax, rdx; ret; 
94187788329793: sub edx, eax; lea rdx, qword ptr [rdi + rdx*4]; add rax, rdx; ret; 
94187788329792: sub rdx, r8; lea rdx, qword ptr [rdi + rdx*4]; add rax, rdx; ret; 
94187788329791: iretd; sub rdx, r8; lea rdx, qword ptr [rdi + rdx*4]; add rax, rdx; ret; 
94187788329790: add edi, ecx; sub rdx, r8; lea rdx, qword ptr [rdi + rdx*4]; add rax, rdx; ret; 
94187788329789: add rdi, r9; sub rdx, r8; lea rdx, qword ptr [rdi + rdx*4]; add rax, rdx; ret; 
94187788329816: ret; 
94187788329815: xchg eax, ebp; ret; 
94187788329813: jo 0x55a9cdaa6366; xchg eax, ebp; ret; 
94187788329812: add dword ptr [rax + 0xf], esi; xchg eax, ebp; ret; 
94187788329809: fild dword ptr [rax + 0xf70017f]; xchg eax, ebp; ret; 
94187788329807: add byte ptr [rcx], dh; fild dword ptr [rax + 0xf70017f]; xchg eax, ebp; ret; 
94187788329805: add byte ptr [rax], al; add byte ptr [rcx], dh; fild dword ptr [rax + 0xf70017f]; xchg eax, ebp; ret; 
94187788329802: ret; 
94187788329865: ret; 
94187788329864: xchg eax, ebp; ret; 
94187788329861: add ch, byte ptr [rsi + 0xf]; xchg eax, ebp; ret; 
94187788329858: fild dword ptr [rax + 0xf6e027f]; xchg eax, ebp; ret; 
94187788329856: push qword ptr [rcx]; fild dword ptr [rax + 0xf6e027f]; xchg eax, ebp; ret; 
94187788329868: ret; 
94187788329865: ret; 
94187788329888: ret; 
94187788329887: xchg eax, ebp; ret; 
94187788329884: add dh, byte ptr [rdx + 0xf]; xchg eax, ebp; ret; 
94187788329881: fild dword ptr [rax + 0xf72027f]; xchg eax, ebp; ret; 
94187788329879: add byte ptr [rcx], dh; fild dword ptr [rax + 0xf72027f]; xchg eax, ebp; ret; 
94187788329877: add byte ptr [rax], al; add byte ptr [rcx], dh; fild dword ptr [rax + 0xf72027f]; xchg eax, ebp; ret; 
94187788330639: ret; 
94187788330637: bswap eax; ret; 
94187788330635: add al, 0x10; bswap eax; ret; 
94187788330634: lea eax, dword ptr [rax + rdx]; bswap eax; ret; 
94187788330633: lea eax, dword ptr [r8 + rdx]; bswap eax; ret; 
94187788330632: or byte ptr [rcx - 0x73], al; add al, 0x10; bswap eax; ret; 
94187788330630: shl eax, 8; lea eax, dword ptr [r8 + rdx]; bswap eax; ret; 
94187788330629: shl r8d, 8; lea eax, dword ptr [r8 + rdx]; bswap eax; ret; 
94187788330628: adc al, 0x41; shl eax, 8; lea eax, dword ptr [r8 + rdx]; bswap eax; ret; 
94187788330626: add esi, dword ptr [rbp + 0x14]; shl r8d, 8; lea eax, dword ptr [r8 + rdx]; bswap eax; ret; 
94187788330649: ret; 
94187788330644: mov eax, 0xffffffff; ret; 
94187788330639: ret; 
94187788331030: ret; 
94187788331029: pop rbp; ret; 
94187788331028: pop rbx; pop rbp; ret; 
94187788331027: sbb byte ptr [rbx + 0x5d], bl; ret; 
94187788331025: add esp, 0x18; pop rbx; pop rbp; ret; 
94187788331024: add rsp, 0x18; pop rbx; pop rbp; ret; 
94187788331023: ror byte ptr [rax - 0x7d], 0xc4; sbb byte ptr [rbx + 0x5d], bl; ret; 
94187788331022: xor eax, eax; add rsp, 0x18; pop rbx; pop rbp; ret; 
94187788331021: xor eax, eax; add rsp, 0x18; pop rbx; pop rbp; ret; 
94187788331109: ret; 
94187788331108: pop rbp; ret; 
94187788331107: pop rbx; pop rbp; ret; 
94187788331106: lcall ptr [rbx + 0x5d]; ret; 
94187788331101: mov eax, 0xffffffff; pop rbx; pop rbp; ret; 
94187788331100: mov rax, -1; pop rbx; pop rbp; ret; 
94187788331097: add esp, 0x18; mov rax, -1; pop rbx; pop rbp; ret; 
94187788331096: add rsp, 0x18; mov rax, -1; pop rbx; pop rbp; ret; 
94187788331169: ret; 
94187788331168: pop rbp; ret; 
94187788331167: pop rbx; pop rbp; ret; 
94187788331166: fcomp dword ptr [rbx + 0x5d]; ret; 
94187788331165: neg eax; pop rbx; pop rbp; ret; 
94187788331164: neg rax; pop rbx; pop rbp; ret; 
94187788331163: sbb byte ptr [rax - 9], cl; fcomp dword ptr [rbx + 0x5d]; ret; 
94187788331161: add esp, 0x18; neg rax; pop rbx; pop rbp; ret; 
94187788331160: add rsp, 0x18; neg rax; pop rbx; pop rbp; ret; 
94187788331159: ror byte ptr [rax - 0x7d], 0xc4; sbb byte ptr [rax - 9], cl; fcomp dword ptr [rbx + 0x5d]; ret; 
94187788331158: xchg eax, ebp; ror byte ptr [rax - 0x7d], 0xc4; sbb byte ptr [rax - 9], cl; fcomp dword ptr [rbx + 0x5d]; ret; 
94187788331310: ret; 
94187788331304: mov eax, 0xffffffff; ret; 
94187788331303: mov rax, -1; ret; 
94187788331548: ret; 
94187788331545: add dword ptr [rax - 0x7d], ecx; ret; 
94187788331573: ret; 
94187788331570: add dword ptr [rax - 0x7d], ecx; ret; 
94187788331609: ret; 
94187788331608: pop rdi; ret; 
94187788331607: pop r15; ret; 
94187788331606: pop rsi; pop r15; ret; 
94187788331605: pop r14; pop r15; ret; 
94187788331604: pop rbp; pop r14; pop r15; ret; 
94187788331603: pop r13; pop r14; pop r15; ret; 
94187788331602: pop rsp; pop r13; pop r14; pop r15; ret; 
94187788331601: pop r12; pop r13; pop r14; pop r15; ret; 
94187788331696: ret; 
94187788331694: add byte ptr [rax], al; ret; 
94187788331692: add byte ptr [rax], al; add byte ptr [rax], al; ret; 
94187788331690: test byte ptr [rax], al; add byte ptr [rax], al; add byte ptr [rax], al; ret; 
94187788331688: nop dword ptr [rax + rax]; ret; 
94187788331687: nop word ptr [rax + rax]; ret; 
94187788331852: ret; 
94187788331851: pop rsp; ret; 
94187788331850: pop r12; ret; 
94187788331849: pop rbp; pop r12; ret; 
94187788331848: rcr byte ptr [rbp + 0x41], 0x5c; ret; 
94187788331847: xor eax, eax; pop rbp; pop r12; ret; 
94187788331846: pop rbx; xor eax, eax; pop rbp; pop r12; ret; 
94187788331845: pop rbx; xor eax, eax; pop rbp; pop r12; ret; 
94187788331843: add dword ptr [rdx + rcx*2 + 0x5b], esi; xor eax, eax; pop rbp; pop r12; ret; 
94187788331931: ret; 
94187788331928: add byte ptr [rax - 0x7d], cl; ret; 
94187788331926: add byte ptr [rax], al; add byte ptr [rax - 0x7d], cl; ret; 
94187788331925: xchg eax, edi; add byte ptr [rax], al; add byte ptr [rax - 0x7d], cl; ret; 
94187788331919: add byte ptr [rbx - 0x79f0fd02], al; xchg eax, edi; add byte ptr [rax], al; add byte ptr [rax - 0x7d], cl; ret; 
94187788331984: ret; 
94187788331983: pop rsp; ret; 
94187788331982: pop r12; ret; 
94187788331981: add dword ptr [rcx + 0x5c], eax; ret; 
94187788331979: sub eax, 1; pop r12; ret; 
94187788331978: sub rax, 1; pop r12; ret; 
94187788331977: pop rbp; sub rax, 1; pop r12; ret; 
94187788331976: pop rbx; pop rbp; sub rax, 1; pop r12; ret; 
94187788332053: ret; 
94187788332052: pop rsp; ret; 
94187788332051: pop r12; ret; 
94187788332050: pop rbp; pop r12; ret; 
94187788332049: pop rbx; pop rbp; pop r12; ret; 
94187788332048: call 0x55aa29ebc970; ret; 
94187788332047: sub eax, ebp; pop rbx; pop rbp; pop r12; ret; 
94187788332046: sub rax, rbp; pop rbx; pop rbp; pop r12; ret; 
94187788332045: dec dword ptr [rax + 0x29]; call 0x55aa29ebc970; ret; 
94187788332043: fcos; dec dword ptr [rax + 0x29]; call 0x55aa29ebc970; ret; 
94187788332179: ret; 
94187788332178: pop rbx; ret; 
94187788332176: xor eax, eax; pop rbx; ret; 
94187788332232: ret; 
94187788332231: pop rbx; ret; 
94187788332229: sub eax, ebx; pop rbx; ret; 
94187788332228: sub rax, rbx; pop rbx; ret; 
94187788332227: pop rcx; sub rax, rbx; pop rbx; ret; 
94187788332226: pop rdx; pop rcx; sub rax, rbx; pop rbx; ret; 
94187788332225: lcall ptr [rdx + 0x59]; sub rax, rbx; pop rbx; ret; 
94187788332223: fcos; lcall ptr [rdx + 0x59]; sub rax, rbx; pop rbx; ret; 
94187788332222: mov esi, 0x5affffd9; pop rcx; sub rax, rbx; pop rbx; ret; 
94187788332295: ret; 
94187788332367: ret; 
94187788332366: pop rsi; ret; 
94187788332365: pop r14; ret; 
94187788332364: pop rbp; pop r14; ret; 
94187788332363: pop r13; pop r14; ret; 
94187788332362: pop rsp; pop r13; pop r14; ret; 
94187788332361: pop r12; pop r13; pop r14; ret; 
94187788332360: pop rbp; pop r12; pop r13; pop r14; ret; 
94187788332359: lcall ptr [rbp + 0x41]; pop rsp; pop r13; pop r14; ret; 
94187788332499: ret; 
94187788332498: pop rsi; ret; 
94187788332497: pop r14; ret; 
94187788332496: pop rbp; pop r14; ret; 
94187788332495: pop r13; pop r14; ret; 
94187788332494: pop rsp; pop r13; pop r14; ret; 
94187788332493: pop r12; pop r13; pop r14; ret; 
94187788332492: pop rbp; pop r12; pop r13; pop r14; ret; 
94187788332546: ret; 
94187788332543: add byte ptr [rcx - 0x39], cl; ret; 
94187788332541: add byte ptr [rax], al; add byte ptr [rcx - 0x39], cl; ret; 
94187788332624: ret; 
94187788332623: pop rsi; ret; 
94187788332622: pop r14; ret; 
94187788332621: pop rbp; pop r14; ret; 
94187788332620: pop r13; pop r14; ret; 
94187788332619: pop rsp; pop r13; pop r14; ret; 
94187788332618: pop r12; pop r13; pop r14; ret; 
94187788332617: pop rbp; pop r12; pop r13; pop r14; ret; 
94187788332659: ret; 
94187788332658: pop rsi; ret; 
94187788332657: pop r14; ret; 
94187788332656: pop rbp; pop r14; ret; 
94187788332655: pop r13; pop r14; ret; 
94187788332654: pop rsp; pop r13; pop r14; ret; 
94187788332653: pop r12; pop r13; pop r14; ret; 
94187788332652: pop rbp; pop r12; pop r13; pop r14; ret; 
94187788332821: ret; 
94187788332819: xor eax, eax; ret; 
94187788332816: or byte ptr [rbp + 0xd], dh; xor eax, eax; ret; 
94187788332815: or byte ptr [rbp + 0xd], sil; xor eax, eax; ret; 
94187788332813: sar dword ptr [rbx], 1; or byte ptr [rbp + 0xd], sil; xor eax, eax; ret; 
94187788332807: xor byte ptr [rbx + 0x21440c48], cl; sar dword ptr [rbx], 1; or byte ptr [rbp + 0xd], sil; xor eax, eax; ret; 
94187788332852: ret; 
94187788332846: mov eax, 0xfffffffb; ret; 
94187788332845: mov rax, -5; ret; 
94187788329496: call qword ptr [rdi]; 
94187788329493: add byte ptr [rax - 0x7d], cl; call qword ptr [rdi]; 
94187788329491: add eax, dword ptr [rax]; add byte ptr [rax - 0x7d], cl; call qword ptr [rdi]; 
94187788329490: xchg eax, edx; add eax, dword ptr [rax]; add byte ptr [rax - 0x7d], cl; call qword ptr [rdi]; 
94187788329708: call qword ptr [rax]; 
94187788329048: jmp rax; 
94187788329046: add eax, edx; jmp rax; 
94187788329045: add rax, rdx; jmp rax; 
94187788329043: add al, 0x82; add rax, rdx; jmp rax; 
94187788329041: movsxd rax, dword ptr [rdx + rax*4]; add rax, rdx; jmp rax; 
94187788329039: mov dh, 0xc0; movsxd rax, dword ptr [rdx + rax*4]; add rax, rdx; jmp rax; 
94187788329038: movzx eax, al; movsxd rax, dword ptr [rdx + rax*4]; add rax, rdx; jmp rax; 
94187788329037: add byte ptr [rdi], cl; mov dh, 0xc0; movsxd rax, dword ptr [rdx + rax*4]; add rax, rdx; jmp rax; 
94187788329036: or al, byte ptr [rax]; movzx eax, al; movsxd rax, dword ptr [rdx + rax*4]; add rax, rdx; jmp rax; 
94187788329097: jmp rdx; 
94187788329096: cli; jmp rdx; 
94187788329095: add edx, edi; jmp rdx; 
94187788329094: add rdx, rdi; jmp rdx; 
94187788329093: xchg eax, edi; add rdx, rdi; jmp rdx; 
94187788329092: adc al, 0x97; add rdx, rdi; jmp rdx; 
94187788329090: movsxd rdx, dword ptr [rdi + rdx*4]; add rdx, rdi; jmp rdx; 
94187788329089: ror byte ptr [rax + 0x63], cl; adc al, 0x97; add rdx, rdi; jmp rdx; 
94187788329088: mov dh, 0xd2; movsxd rdx, dword ptr [rdi + rdx*4]; add rdx, rdi; jmp rdx; 
94187788329087: movzx edx, dl; movsxd rdx, dword ptr [rdi + rdx*4]; add rdx, rdi; jmp rdx; 
94187788329086: add byte ptr [rdi], cl; mov dh, 0xd2; movsxd rdx, dword ptr [rdi + rdx*4]; add rdx, rdi; jmp rdx; 
94187788329085: or al, byte ptr [rax]; movzx edx, dl; movsxd rdx, dword ptr [rdi + rdx*4]; add rdx, rdi; jmp rdx; 
94187788329184: jmp rax; 
94187788329182: add eax, edx; jmp rax; 
94187788329181: add rax, rdx; jmp rax; 
94187788329179: add al, 0x82; add rax, rdx; jmp rax; 
94187788329177: movsxd rax, dword ptr [rdx + rax*4]; add rax, rdx; jmp rax; 
94187788329175: mov dh, 0xc0; movsxd rax, dword ptr [rdx + rax*4]; add rax, rdx; jmp rax; 
94187788329174: movzx eax, al; movsxd rax, dword ptr [rdx + rax*4]; add rax, rdx; jmp rax; 
94187788329173: add byte ptr [rdi], cl; mov dh, 0xc0; movsxd rax, dword ptr [rdx + rax*4]; add rax, rdx; jmp rax; 
94187788329172: or al, byte ptr [rax]; movzx eax, al; movsxd rax, dword ptr [rdx + rax*4]; add rax, rdx; jmp rax; 
94187788329113: jmp qword ptr [rsi + 0xf]; 
94187788329129: jmp qword ptr [rsi + 0xf]; 
94187788330544: jmp qword ptr [rsi + 0x2e]; 
94187788331142: jmp qword ptr [rsi + 0xf]; 
94187788331136: mov dword ptr [rcx], 0xfffe3de9; jmp qword ptr [rsi + 0xf]; 
94187788331133: add dword ptr [rax - 0x7d], ecx; mov dword ptr [rcx], 0xfffe3de9; jmp qword ptr [rsi + 0xf]; 
94187788331132: add dword ptr [r8 - 0x7d], r9d; mov dword ptr [rcx], 0xfffe3de9; jmp qword ptr [rsi + 0xf]; 
94187788331131: mov dh, 0x47; add dword ptr [rax - 0x7d], ecx; mov dword ptr [rcx], 0xfffe3de9; jmp qword ptr [rsi + 0xf]; 
94187788331129: add byte ptr [rdi], cl; mov dh, 0x47; add dword ptr [rax - 0x7d], ecx; mov dword ptr [rcx], 0xfffe3de9; jmp qword ptr [rsi + 0xf]; 
94187788331213: jmp qword ptr [rsi - 0x70]; 
94187788331334: jmp qword ptr [rsi + 0xf]; 
94187788331622: jmp qword ptr [rsi + 0xf]; 
94187788331769: jmp qword ptr [rsi + 0xf]; 
94187788332550: jmp qword ptr [rsi + 0xf]; 
94187788332722: jmp qword ptr [rsi + 0xf]; 
94187788332745: jmp qword ptr [rsi + 0xf]; 
94187788329500: ret 0x8349; 
94187788329499: xchg eax, edi; ret 0x8349; 
94187788329509: ret 0x850f; 
94187788329561: ret 0x28f5; 
94187788329725: ret 0x28f5; 
94187788329784: ret 0xc148; 
94187788329777: rol byte ptr [rax + 0x4c000151], 0x89; ret 0xc148; 
94187788329774: ror dword ptr [rax + 0x69], 1; rol byte ptr [rax + 0x4c000151], 0x89; ret 0xc148; 
94187788329771: dec dword ptr [rcx + 1]; ror dword ptr [rax + 0x69], 1; rol byte ptr [rax + 0x4c000151], 0x89; ret 0xc148; 
94187788329764: cmp byte ptr [rdi - 0xe794f], 0xff; dec dword ptr [rcx + 1]; ror dword ptr [rax + 0x69], 1; rol byte ptr [rax + 0x4c000151], 0x89; ret 0xc148; 
94187788329794: ret 0x8d48; 
94187788329952: ret 0x8d01; 
94187788329949: add dword ptr [rax - 0x7d], ecx; ret 0x8d01; 
94187788329948: add dword ptr [rax - 0x7d], ecx; ret 0x8d01; 
94187788329947: mov dh, 0x42; add dword ptr [rax - 0x7d], ecx; ret 0x8d01; 
94187788329945: or byte ptr [rdi], cl; mov dh, 0x42; add dword ptr [rax - 0x7d], ecx; ret 0x8d01; 
94187788330488: ret 0xb60f; 
94187788330670: ret 0x4890; 
94187788330668: shr bl, cl; ret 0x4890; 
94187788330666: sal byte ptr [rcx], 1; shr bl, cl; ret 0x4890; 
94187788330663: add dword ptr [rcx + 1], eax; sal byte ptr [rcx], 1; shr bl, cl; ret 0x4890; 
94187788330846: ret 0x8949; 
94187788330969: ret 0xc748; 
94187788331012: ret 0x4808; 
94187788331019: ret 0xf372; 
94187788331017: xor dword ptr [rcx], edi; ret 0xf372; 
94187788331012: ret 0x4808; 
94187788331283: ret 0x8802; 
94187788331280: sbb byte ptr [rax - 0x7d], cl; ret 0x8802; 
94187788331430: ret 0x830f; 
94187788331427: fmul qword ptr [rax + 0x39]; ret 0x830f; 
94187788331421: and dword ptr [rax + 0x74002f3c], eax; fmul qword ptr [rax + 0x39]; ret 0x830f; 
94187788331443: ret 0x894d; 
94187788331440: add cl, byte ptr [rax - 0x77]; ret 0x894d; 
94187788331457: ret 0x673; 
94187788331454: fisttp word ptr [rax + 0x39]; ret 0x673; 
94187788331465: ret 0x8948; 
94187788331457: ret 0x673; 
94187788332036: ret 0xf08; 
94187788332480: ret 0xc031; 
94187788332609: ret 0x4901; 
94187788332606: fmul dword ptr [rax - 0x7d]; ret 0x4901; 
94187788332601: add eax, 0x894c0a88; fmul dword ptr [rax - 0x7d]; ret 0x4901; 
94187788332946: ret 0xb60f; 
94187788332975: ret 0xf41; 
94187788332972: or byte ptr [rcx + 1], al; ret 0xf41; 
94187788332078: call qword ptr [rax - 0xeea72b8]; 
94187788382435: ret; 
94187788382434: pop rsp; ret; 
94187788382433: pop r12; ret; 
94187788382432: pop rbp; pop r12; ret; 
94187788382431: pop rbx; pop rbp; pop r12; ret; 
94187788382430: or dword ptr [rbx + 0x5d], ebx; pop r12; ret; 
94187788382554: ret; 
94187788382553: pop rsp; ret; 
94187788382552: pop r12; ret; 
94187788382551: pop rbp; pop r12; ret; 
94187788382550: or byte ptr [rbp + 0x41], bl; pop rsp; ret; 
94187788382549: add byte ptr [rax], cl; pop rbp; pop r12; ret; 
94187788382545: or eax, 0xe96f2; or byte ptr [rbp + 0x41], bl; pop rsp; ret; 
94187788382544: or byte ptr [rip + 0xe96f2], 8; pop rbp; pop r12; ret; 
94187788382543: pop rbx; or byte ptr [rip + 0xe96f2], 8; pop rbp; pop r12; ret; 
94187788382542: lcall ptr [rbx - 0x80]; or eax, 0xe96f2; or byte ptr [rbp + 0x41], bl; pop rsp; ret; 
94187788382928: ret; 
94187788382927: pop rsp; ret; 
94187788382926: pop r12; ret; 
94187788382925: pop rbp; pop r12; ret; 
94187788382924: pop rbx; pop rbp; pop r12; ret; 
94187788382923: test eax, 0x5c415d5b; ret; 
94187788382921: and esi, dword ptr [rbp - 0x57]; pop rbx; pop rbp; pop r12; ret; 
94187788382947: ret; 
94187788382946: pop rsp; ret; 
94187788382945: pop r12; ret; 
94187788382944: pop rbp; pop r12; ret; 
94187788382943: pop rbx; pop rbp; pop r12; ret; 
94187788382940: and esi, dword ptr [rbp - 0x34]; pop rbx; pop rbp; pop r12; ret; 
94187788383090: ret; 
94187788383089: pop rbp; ret; 
94187788383088: pop rbx; pop rbp; ret; 
94187788383087: or byte ptr [rbx + 0x5d], bl; ret; 
94187788383085: add esp, 8; pop rbx; pop rbp; ret; 
94187788383084: add rsp, 8; pop rbx; pop rbp; ret; 
94187788383083: lodsb al, byte ptr [rsi]; add rsp, 8; pop rbx; pop rbp; ret; 
94187788383081: sub esi, dword ptr [rbp - 0x54]; add rsp, 8; pop rbx; pop rbp; ret; 
94187788383109: ret; 
94187788383108: pop rbp; ret; 
94187788383107: pop rbx; pop rbp; ret; 
94187788383106: or byte ptr [rbx + 0x5d], bl; ret; 
94187788383104: add esp, 8; pop rbx; pop rbp; ret; 
94187788383103: add rsp, 8; pop rbx; pop rbp; ret; 
94187788383100: sub esi, dword ptr [rbp - 0x34]; add rsp, 8; pop rbx; pop rbp; ret; 
94187788383226: ret; 
94187788383225: pop rbx; ret; 
94187788383224: movsb byte ptr [rdi], byte ptr [rsi]; pop rbx; ret; 
94187788383222: adc esi, dword ptr [rbp - 0x5c]; pop rbx; ret; 
94187788383244: ret; 
94187788383243: pop rbx; ret; 
94187788383242: leave; pop rbx; ret; 
94187788383240: xor esi, dword ptr [rbp - 0x37]; pop rbx; ret; 
94187788383268: ret; 
94187788383279: ret; 
94187788383277: mov cl, 0x17; ret; 
94187788383276: cmpxchg dword ptr [rdi], edx; ret; 
94187788383275: cmpxchg qword ptr [rdi], rdx; ret; 
94187788383274: lock cmpxchg qword ptr [rdi], rdx; ret; 
94187788383273: sal al, cl; cmpxchg qword ptr [rdi], rdx; ret; 
94187788383272: xor edx, edx; lock cmpxchg qword ptr [rdi], rdx; ret; 
94187788383271: add byte ptr [rcx], dh; sal al, cl; cmpxchg qword ptr [rdi], rdx; ret; 
94187788383269: nop dword ptr [rax]; xor edx, edx; lock cmpxchg qword ptr [rdi], rdx; ret; 
94187788383268: ret; 
94187788383305: ret; 
94187788383319: ret; 
94187788383317: add byte ptr [rax], al; ret; 
94187788383315: add dword ptr [rax], eax; add byte ptr [rax], al; ret; 
94187788383313: mov dword ptr [rdi], 1; ret; 
94187788383312: mov qword ptr [rdi], 1; ret; 
94187788383310: add byte ptr [rax], al; mov qword ptr [rdi], 1; ret; 
94187788383309: add byte ptr [rax], r8b; mov qword ptr [rdi], 1; ret; 
94187788383307: nop dword ptr [rax + rax]; mov qword ptr [rdi], 1; ret; 
94187788383306: nop word ptr [rax + rax]; mov qword ptr [rdi], 1; ret; 
94187788383305: ret; 
94187788383481: ret; 
94187788383480: pop rbx; ret; 
94187788383477: add esp, 0x20; pop rbx; ret; 
94187788383476: add rsp, 0x20; pop rbx; ret; 
94187788383474: add byte ptr [rax], al; add rsp, 0x20; pop rbx; ret; 
94187788383472: test byte ptr [rax], al; add byte ptr [rax], al; add rsp, 0x20; pop rbx; ret; 
94187788383676: ret; 
94187788383738: ret; 
94187788383737: pop rbp; ret; 
94187788383736: pop r13; ret; 
94187788383735: pop rsp; pop r13; ret; 
94187788383734: pop r12; pop r13; ret; 
94187788383733: pop rbp; pop r12; pop r13; ret; 
94187788383732: pop rbx; pop rbp; pop r12; pop r13; ret; 
94187788383731: or byte ptr [rbx + 0x5d], bl; pop r12; pop r13; ret; 
94187788383993: ret; 
94187788383988: sal byte ptr [rdi + 0x48], 0x83; ret; 
94187788384127: ret; 
94187788384126: pop rdi; ret; 
94187788384125: pop r15; ret; 
94187788384124: pop rsi; pop r15; ret; 
94187788384123: pop r14; pop r15; ret; 
94187788384122: pop rbp; pop r14; pop r15; ret; 
94187788384121: pop r13; pop r14; pop r15; ret; 
94187788384120: pop rsp; pop r13; pop r14; pop r15; ret; 
94187788384119: pop r12; pop r13; pop r14; pop r15; ret; 
94187788384457: ret; 
94187788384456: pop rsi; ret; 
94187788384455: pop r14; ret; 
94187788384454: pop rbp; pop r14; ret; 
94187788384453: pop r13; pop r14; ret; 
94187788384452: pop rsp; pop r13; pop r14; ret; 
94187788384451: pop r12; pop r13; pop r14; ret; 
94187788384450: pop rbp; pop r12; pop r13; pop r14; ret; 
94187788385878: ret; 
94187788385875: sub byte ptr [rax - 0x39], cl; ret; 
94187788385984: ret; 
94187788385983: pop rdi; ret; 
94187788385982: pop r15; ret; 
94187788385981: pop rsi; pop r15; ret; 
94187788385980: pop r14; pop r15; ret; 
94187788385979: pop rbp; pop r14; pop r15; ret; 
94187788385978: pop r13; pop r14; pop r15; ret; 
94187788385977: pop rsp; pop r13; pop r14; pop r15; ret; 
94187788385976: pop r12; pop r13; pop r14; pop r15; ret; 
94187788386185: ret; 
94187788383695: call rax; 
94187788383692: mov esi, dword ptr [rbp + 0x10]; call rax; 
94187788383691: mov rsi, qword ptr [r13 + 0x10]; call rax; 
94187788383690: in eax, 0x49; mov esi, dword ptr [rbp + 0x10]; call rax; 
94187788386126: call rax; 
94187788386125: out dx, eax; call rax; 
94187788386124: mov edi, ebp; call rax; 
94187788386123: mov rdi, r13; call rax; 
94187788386122: pop rax; mov rdi, r13; call rax; 
94187788386121: push rbp; pop rax; mov rdi, r13; call rax; 
94187788386120: mov edx, dword ptr [rbp + 0x58]; mov rdi, r13; call rax; 
94187788386119: mov rdx, qword ptr [r13 + 0x58]; mov rdi, r13; call rax; 
94187788386118: test byte ptr [rcx - 0x75], 0x55; pop rax; mov rdi, r13; call rax; 
94187788386117: xor esi, esi; mov rdx, qword ptr [r13 + 0x58]; mov rdi, r13; call rax; 
94187788386116: add byte ptr [rcx], dh; test byte ptr [rcx - 0x75], 0x55; pop rax; mov rdi, r13; call rax; 
94187788386115: add byte ptr [rax], al; xor esi, esi; mov rdx, qword ptr [r13 + 0x58]; mov rdi, r13; call rax; 
94187788382774: jmp qword ptr [rsi + 0xf]; 
94187788383769: jmp qword ptr [rsi + 0xf]; 
94187788383811: jmp qword ptr [rsi + 0x66]; 
94187788384160: jmp qword ptr [rsi + 0x66]; 
94187788384585: jmp qword ptr [rsi + 0xf]; 
94187788385493: jmp qword ptr [rsi + 0x2e]; 
94187788385749: jmp qword ptr [rsi + 0x2e]; 
94187788386054: jmp qword ptr [rsi + 0xf]; 
94187788386193: jmp qword ptr [rsi + 0xf]; 
94187788386265: jmp qword ptr [rsi + 0xf]; 
94187788382983: call qword ptr [rbx + 0x48]; 
94187788382575: ret 0x12b; 
94187788383418: ret 0xeac1; 
94187788384155: ret 0xefe8; 
94187788384493: ret 9; 
94187788384492: wait; ret 9; 
94187788384488: ror byte ptr [rax - 0x73], 0xd; wait; ret 9; 
94187788384486: sal byte ptr [rcx], cl; ror byte ptr [rax - 0x73], 0xd; wait; ret 9; 
94187788384611: ret 9; 
94187788382686: call qword ptr [rax + 0x75c08548]; 
94187788384638: call qword ptr [rax - 0x76b7a8bf]; 
94187788378559: ret; 
94187788378556: add byte ptr [rax - 0x7d], cl; ret; 
94187788378554: add byte ptr [rax], al; add byte ptr [rax - 0x7d], cl; ret; 
94187788378552: test eax, ecx; add byte ptr [rax], al; add byte ptr [rax - 0x7d], cl; ret; 
94187788379610: ret; 
94187788379607: add byte ptr [rax - 0x7d], cl; ret; 
94187788379836: ret; 
94187788379833: add byte ptr [rax - 0x7d], cl; ret; 
94187788379831: add dword ptr [rax], eax; add byte ptr [rax - 0x7d], cl; ret; 
94187788379830: mov byte ptr [rcx], 0; add byte ptr [rax - 0x7d], cl; ret; 
94187788379829: test dh, al; add dword ptr [rax], eax; add byte ptr [rax - 0x7d], cl; ret; 
94187788379827: dec dword ptr [rdi]; test dh, al; add dword ptr [rax], eax; add byte ptr [rax - 0x7d], cl; ret; 
94187788379826: dec dword ptr ds:[rdi]; test dh, al; add dword ptr [rax], eax; add byte ptr [rax - 0x7d], cl; ret; 
94187788379894: ret; 
94187788379891: add dword ptr [rax - 0x7f], ecx; ret; 
94187788380044: ret; 
94187788380068: ret; 
94187788380065: rol byte ptr [rcx], 0x75; ret; 
94187788380746: ret; 
94187788380740: add byte ptr [rbx - 0x76b7dbc4], cl; ret; 
94187788380939: ret; 
94187788380938: pop rsi; ret; 
94187788380937: pop r14; ret; 
94187788380936: pop rbp; pop r14; ret; 
94187788380935: pop r13; pop r14; ret; 
94187788380934: pop rsp; pop r13; pop r14; ret; 
94187788380933: pop r12; pop r13; pop r14; ret; 
94187788380932: pop rbp; pop r12; pop r13; pop r14; ret; 
94187788381192: ret; 
94187788381808: ret; 
94187788381807: pop rdi; ret; 
94187788381806: pop r15; ret; 
94187788381805: pop rsi; pop r15; ret; 
94187788381804: pop r14; pop r15; ret; 
94187788381803: pop rbp; pop r14; pop r15; ret; 
94187788381802: pop r13; pop r14; pop r15; ret; 
94187788381801: pop rsp; pop r13; pop r14; pop r15; ret; 
94187788381800: pop r12; pop r13; pop r14; pop r15; ret; 
94187788382132: ret; 
94187788382131: pop rdi; ret; 
94187788382130: pop r15; ret; 
94187788382129: pop rsi; pop r15; ret; 
94187788382128: pop r14; pop r15; ret; 
94187788382127: pop rbp; pop r14; pop r15; ret; 
94187788382126: pop r13; pop r14; pop r15; ret; 
94187788382125: pop rsp; pop r13; pop r14; pop r15; ret; 
94187788382124: pop r12; pop r13; pop r14; pop r15; ret; 
94187788382138: ret; 
94187788382135: add byte ptr [rax - 0x7d], cl; ret; 
94187788382132: ret; 
94187788381221: call rax; 
94187788381219: mov edi, edi; call rax; 
94187788381218: mov rdi, r15; call rax; 
94187788381217: adc byte ptr [rcx + rcx*4 - 1], cl; call rax; 
94187788381215: mov esi, dword ptr [rbp + 0x10]; mov rdi, r15; call rax; 
94187788381214: mov rsi, qword ptr [r13 + 0x10]; mov rdi, r15; call rax; 
94187788380560: jmp qword ptr [rsi + 0x66]; 
94187788381097: jmp qword ptr [rsi + 0xf]; 
94187788378545: call qword ptr [rdi + 0x38]; 
94187788378540: test byte ptr [rcx + rcx*4 - 1], 0x41; call qword ptr [rdi + 0x38]; 
94187788378538: add byte ptr [rcx], dh; test byte ptr [rcx + rcx*4 - 1], 0x41; call qword ptr [rdi + 0x38]; 
94187788378536: add dword ptr [rax], eax; add byte ptr [rcx], dh; test byte ptr [rcx + rcx*4 - 1], 0x41; call qword ptr [rdi + 0x38]; 
94187788378745: call qword ptr [rdi + 0x38]; 
94187788378927: call qword ptr [rdi + 0x4d]; 
94187788379514: ret 0x4101; 
94187788379511: add byte ptr [rax - 0x7d], cl; ret 0x4101; 
94187788379509: add dword ptr [rax], eax; add byte ptr [rax - 0x7d], cl; ret 0x4101; 
94187788379547: ret 0x3949; 
94187788379544: ror dword ptr [rcx - 0x77], cl; ret 0x3949; 
94187788379766: ret 0xf01; 
94187788379764: add dh, dh; ret 0xf01; 
94187788379762: add dword ptr [rax], eax; add dh, dh; ret 0xf01; 
94187788379760: xchg byte ptr [rdx], ch; add dword ptr [rax], eax; add dh, dh; ret 0xf01; 
94187788380454: ret 0x8948; 
94187788380451: dec dword ptr [rax - 0x77]; ret 0x8948; 
94187788380449: loope 0x55a9cdab2921; dec dword ptr [rax - 0x77]; ret 0x8948; 
94187788380448: in al, dx; loope 0x55a9cdab2921; dec dword ptr [rax - 0x77]; ret 0x8948; 
94187788380446: and al, ch; in al, dx; loope 0x55a9cdab2921; dec dword ptr [rax - 0x77]; ret 0x8948; 
94187788380445: and r8b, bpl; in al, dx; loope 0x55a9cdab2921; dec dword ptr [rax - 0x77]; ret 0x8948; 
94187788380829: ret 0x894c; 
94187788374017: ret; 
94187788374016: pop rdi; ret; 
94187788374285: ret; 
94187788374284: pop rdi; ret; 
94187788374283: pop r15; ret; 
94187788374282: pop rsi; pop r15; ret; 
94187788374281: pop r14; pop r15; ret; 
94187788374280: pop rbp; pop r14; pop r15; ret; 
94187788374279: pop r13; pop r14; pop r15; ret; 
94187788374278: pop rsp; pop r13; pop r14; pop r15; ret; 
94187788374277: pop r12; pop r13; pop r14; pop r15; ret; 
94187788374373: ret; 
94187788374626: ret; 
94187788374625: pop rsp; ret; 
94187788374624: pop r12; ret; 
94187788374623: pop rbp; pop r12; ret; 
94187788374622: pop rbx; pop rbp; pop r12; ret; 
94187788374621: add byte ptr [rbx + 0x5d], bl; pop r12; ret; 
94187788374620: add byte ptr [rax], al; pop rbx; pop rbp; pop r12; ret; 
94187788374619: add dword ptr [rax], eax; add byte ptr [rbx + 0x5d], bl; pop r12; ret; 
94187788374909: ret; 
94187788374906: dec dword ptr [rax - 0x39]; ret; 
94187788374904: out 0xfe, eax; dec dword ptr [rax - 0x39]; ret; 
94187788374901: shr al, 5; out 0xfe, eax; dec dword ptr [rax - 0x39]; ret; 
94187788374899: add byte ptr [rcx], dh; shr al, 5; out 0xfe, eax; dec dword ptr [rax - 0x39]; ret; 
94187788374994: ret; 
94187788374993: pop rbp; ret; 
94187788374992: pop rbx; pop rbp; ret; 
94187788374991: or byte ptr [rbx + 0x5d], bl; ret; 
94187788374989: add esp, 8; pop rbx; pop rbp; ret; 
94187788374988: add rsp, 8; pop rbx; pop rbp; ret; 
94187788374985: push qword ptr [rax + 0x48]; add esp, 8; pop rbx; pop rbp; ret; 
94187788375165: ret; 
94187788375162: dec dword ptr [rax - 0x77]; ret; 
94187788376033: ret; 
94187788376858: ret; 
94187788376855: sbb byte ptr [rax - 0x77], cl; ret; 
94187788376871: ret; 
94187788377211: ret; 
94187788377210: pop rdi; ret; 
94187788377209: pop r15; ret; 
94187788377208: pop rsi; pop r15; ret; 
94187788377207: pop r14; pop r15; ret; 
94187788377206: pop rbp; pop r14; pop r15; ret; 
94187788377205: pop r13; pop r14; pop r15; ret; 
94187788377204: pop rsp; pop r13; pop r14; pop r15; ret; 
94187788377203: pop r12; pop r13; pop r14; pop r15; ret; 
94187788377737: ret; 
94187788376274: call rax; 
94187788376273: out dx, eax; call rax; 
94187788376272: mov edi, ebp; call rax; 
94187788376271: mov rdi, r13; call rax; 
94187788376270: sub al, 0x4c; mov edi, ebp; call rax; 
94187788376268: sal byte ptr [rsp + rbp + 0x4c], 0x89; out dx, eax; call rax; 
94187788376265: adc byte ptr [rax - 0x7b], cl; sal byte ptr [rsp + rbp + 0x4c], 0x89; out dx, eax; call rax; 
94187788376264: adc byte ptr [rax - 0x7b], cl; sal byte ptr [rsp + rbp + 0x4c], 0x89; out dx, eax; call rax; 
94187788376261: cmp byte ptr [rax - 0x75], cl; adc byte ptr [rax - 0x7b], cl; sal byte ptr [rsp + rbp + 0x4c], 0x89; out dx, eax; call rax; 
94187788376260: cmp byte ptr [rax - 0x75], cl; adc byte ptr [rax - 0x7b], cl; sal byte ptr [rsp + rbp + 0x4c], 0x89; out dx, eax; call rax; 
94187788376614: call rcx; 
94187788376612: xor al, 0xd0; call rcx; 
94187788376611: mov esi, dword ptr [rax + rdx*8]; call rcx; 
94187788376610: mov rsi, qword ptr [rax + rdx*8]; call rcx; 
94187788376609: out dx, eax; mov rsi, qword ptr [rax + rdx*8]; call rcx; 
94187788376608: mov edi, ebp; mov rsi, qword ptr [rax + rdx*8]; call rcx; 
94187788376607: mov rdi, r13; mov rsi, qword ptr [rax + rdx*8]; call rcx; 
94187788376606: add byte ptr [rcx + rcx*4 - 0x11], cl; mov rsi, qword ptr [rax + rdx*8]; call rcx; 
94187788376605: add byte ptr [r9 + rcx*4 - 0x11], r9b; mov rsi, qword ptr [rax + rdx*8]; call rcx; 
94187788376604: mov eax, dword ptr [rbp]; mov rdi, r13; mov rsi, qword ptr [rax + rdx*8]; call rcx; 
94187788376603: mov rax, qword ptr [r13]; mov rdi, r13; mov rsi, qword ptr [rax + rdx*8]; call rcx; 
94187788376602: or byte ptr [rcx - 0x75], cl; add byte ptr [r9 + rcx*4 - 0x11], r9b; mov rsi, qword ptr [rax + rdx*8]; call rcx; 
94187788376601: push rax; or byte ptr [rcx - 0x75], cl; add byte ptr [r9 + rcx*4 - 0x11], r9b; mov rsi, qword ptr [rax + rdx*8]; call rcx; 
94187788376600: mov edx, dword ptr [rax + 8]; mov rax, qword ptr [r13]; mov rdi, r13; mov rsi, qword ptr [rax + rdx*8]; call rcx; 
94187788376599: mov rdx, qword ptr [rax + 8]; mov rax, qword ptr [r13]; mov rdi, r13; mov rsi, qword ptr [rax + rdx*8]; call rcx; 
94187788374061: jmp qword ptr [rsi - 0x70]; 
94187788374137: jmp qword ptr [rsi + 0xf]; 
94187788374230: jmp qword ptr [rsi + 0xf]; 
94187788374532: jmp qword ptr [rsi + 0x66]; 
94187788377257: jmp qword ptr [rsi + 0xf]; 
94187788377357: jmp qword ptr [rsi - 0x70]; 
94187788377446: jmp qword ptr [rsi + 0xf]; 
94187788377973: jmp qword ptr [rsi + 0x2e]; 
94187788374071: ret 0x765b; 
94187788374068: sub byte ptr [rax - 0x7f], cl; ret 0x765b; 
94187788374175: ret 0xf; 
94187788374783: ret 0xbe8; 
94187788374780: fmul dword ptr [rax - 0x77]; ret 0xbe8; 
94187788376127: ret 0x8948; 
94187788376120: add byte ptr [rax - 0x168b7f80], 0x89; ret 0x8948; 
94187788376141: ret 0x8d48; 
94187788376666: ret 0xce5; 
94187788376692: ret 0x850f; 
94187788376688: add byte ptr [rbx + rcx*4 + 0x34], cl; ret 0x850f; 
94187788376711: ret 0x8b48; 
94187788370098: ret; 
94187788370097: pop rdi; ret; 
94187788370096: pop r15; ret; 
94187788370095: pop rsi; pop r15; ret; 
94187788370094: pop r14; pop r15; ret; 
94187788370093: pop rbp; pop r14; pop r15; ret; 
94187788370092: pop r13; pop r14; pop r15; ret; 
94187788370091: pop rsp; pop r13; pop r14; pop r15; ret; 
94187788370090: pop r12; pop r13; pop r14; pop r15; ret; 
94187788370673: ret; 
94187788370672: pop rdi; ret; 
94187788370671: pop r15; ret; 
94187788370670: pop rsi; pop r15; ret; 
94187788370669: pop r14; pop r15; ret; 
94187788370668: pop rbp; pop r14; pop r15; ret; 
94187788370667: pop r13; pop r14; pop r15; ret; 
94187788370666: pop rsp; pop r13; pop r14; pop r15; ret; 
94187788370665: pop r12; pop r13; pop r14; pop r15; ret; 
94187788370761: ret; 
94187788370758: dec dword ptr [rax - 0x7d]; ret; 
94187788371038: ret; 
94187788371052: ret; 
94187788371050: add byte ptr [rax], al; ret; 
94187788371048: add byte ptr [rax], al; add byte ptr [rax], al; ret; 
94187788371046: add al, 0xd0; add byte ptr [rax], al; add byte ptr [rax], al; ret; 
94187788371045: mov dword ptr [rax + rdx*8], 0; ret; 
94187788371044: mov qword ptr [rax + rdx*8], 0; ret; 
94187788371043: jo 0x55a9cdab04ad; mov dword ptr [rax + rdx*8], 0; ret; 
94187788371042: jo 0x55a9cdab04ad; mov dword ptr [rax + rdx*8], 0; ret; 
94187788371041: mov eax, dword ptr [rax + 0x70]; mov qword ptr [rax + rdx*8], 0; ret; 
94187788371040: mov rax, qword ptr [rax + 0x70]; mov qword ptr [rax + rdx*8], 0; ret; 
94187788371039: nop; mov rax, qword ptr [rax + 0x70]; mov qword ptr [rax + rdx*8], 0; ret; 
94187788371038: ret; 
94187788371187: ret; 
94187788371184: add dword ptr [rax - 0x7f], ecx; ret; 
94187788371289: ret; 
94187788371287: add al, ch; ret; 
94187788371285: add byte ptr [rax], al; add al, ch; ret; 
94187788371283: test eax, ecx; add byte ptr [rax], al; add al, ch; ret; 
94187788371281: adc byte ptr [rdi], cl; test eax, ecx; add byte ptr [rax], al; add al, ch; ret; 
94187788371545: ret; 
94187788371544: pop rdi; ret; 
94187788371543: pop r15; ret; 
94187788371542: pop rsi; pop r15; ret; 
94187788371541: pop r14; pop r15; ret; 
94187788371540: pop rbp; pop r14; pop r15; ret; 
94187788371539: pop r13; pop r14; pop r15; ret; 
94187788371538: pop rsp; pop r13; pop r14; pop r15; ret; 
94187788371537: pop r12; pop r13; pop r14; pop r15; ret; 
94187788371652: ret; 
94187788371651: pop rbp; ret; 
94187788371650: pop rbx; pop rbp; ret; 
94187788371649: or byte ptr [rbx + 0x5d], bl; ret; 
94187788371647: add esp, 8; pop rbx; pop rbp; ret; 
94187788371646: add rsp, 8; pop rbx; pop rbp; ret; 
94187788371644: add byte ptr [rax], al; add rsp, 8; pop rbx; pop rbp; ret; 
94187788371878: ret; 
94187788371877: pop rbp; ret; 
94187788371876: pop rbx; pop rbp; ret; 
94187788371875: or byte ptr [rbx + 0x5d], bl; ret; 
94187788371873: add esp, 8; pop rbx; pop rbp; ret; 
94187788371872: add rsp, 8; pop rbx; pop rbp; ret; 
94187788371870: add byte ptr [rcx], al; add rsp, 8; pop rbx; pop rbp; ret; 
94187788371869: add dword ptr [rax], 1; add rsp, 8; pop rbx; pop rbp; ret; 
94187788371868: add qword ptr [rax], 1; add rsp, 8; pop rbx; pop rbp; ret; 
94187788371867: lock add qword ptr [rax], 1; add rsp, 8; pop rbx; pop rbp; ret; 
94187788372067: ret; 
94187788372066: pop rsp; ret; 
94187788372065: pop r12; ret; 
94187788372064: pop rbp; pop r12; ret; 
94187788372063: pop rbx; pop rbp; pop r12; ret; 
94187788372062: or dword ptr [rbx + 0x5d], ebx; pop r12; ret; 
94187788372060: add dh, byte ptr [rcx + rcx + 0x5b]; pop rbp; pop r12; ret; 
94187788372058: add byte ptr [rax], al; add dh, byte ptr [rcx + rcx + 0x5b]; pop rbp; pop r12; ret; 
94187788372123: ret; 
94187788372345: ret; 
94187788372342: or byte ptr [rdi], 0x85; ret; 
94187788372474: ret; 
94187788372471: add dword ptr [rdi + 6], esi; ret; 
94187788372470: add dword ptr ds:[rdi + 6], esi; ret; 
94187788372774: ret; 
94187788372771: add dword ptr [rax - 0x7f], ecx; ret; 
94187788372793: ret; 
94187788372792: pop rsp; ret; 
94187788372791: pop r12; ret; 
94187788372790: pop rbp; pop r12; ret; 
94187788372789: pop rbx; pop rbp; pop r12; ret; 
94187788372786: add byte ptr [rdi - 0x35], dh; pop rbx; pop rbp; pop r12; ret; 
94187788372880: ret; 
94187788372894: ret; 
94187788372893: pop rbx; ret; 
94187788372891: mov eax, ebx; pop rbx; ret; 
94187788372890: mov rax, rbx; pop rbx; ret; 
94187788372942: ret; 
94187788372941: pop rbx; ret; 
94187788372939: mov eax, ebx; pop rbx; ret; 
94187788372938: mov rax, rbx; pop rbx; ret; 
94187788372933: call 0x55a9cda9fa80; mov rax, rbx; pop rbx; ret; 
94187788372931: xor eax, eax; call 0x55a9cda9fa80; mov rax, rbx; pop rbx; ret; 
94187788373228: ret; 
94187788373227: pop rbp; ret; 
94187788373226: pop r13; ret; 
94187788373225: pop rsp; pop r13; ret; 
94187788373224: pop r12; pop r13; ret; 
94187788373223: pop rbp; pop r12; pop r13; ret; 
94187788373222: pop rbx; pop rbp; pop r12; pop r13; ret; 
94187788373221: add byte ptr [rbx + 0x5d], bl; pop r12; pop r13; ret; 
94187788373406: ret; 
94187788373405: pop rbx; ret; 
94187788373402: add esp, 0x10; pop rbx; ret; 
94187788373401: add rsp, 0x10; pop rbx; ret; 
94187788373398: add byte ptr [rbp + 0x3b], dh; add rsp, 0x10; pop rbx; ret; 
94187788373396: add byte ptr [rax], al; add byte ptr [rbp + 0x3b], dh; add rsp, 0x10; pop rbx; ret; 
94187788373542: ret; 
94187788373539: add dword ptr [rax - 0x7f], ecx; ret; 
94187788373632: ret; 
94187788373631: pop rsi; ret; 
94187788373630: pop r14; ret; 
94187788373629: pop rbp; pop r14; ret; 
94187788373628: pop r13; pop r14; ret; 
94187788373627: pop rsp; pop r13; pop r14; ret; 
94187788373626: pop r12; pop r13; pop r14; ret; 
94187788373625: pop rbp; pop r12; pop r13; pop r14; ret; 
94187788373756: ret; 
94187788373753: add byte ptr [rax - 0x7d], cl; ret; 
94187788373751: add dword ptr [rax], eax; add byte ptr [rax - 0x7d], cl; ret; 
94187788373749: test dword ptr [rsi], ecx; add dword ptr [rax], eax; add byte ptr [rax - 0x7d], cl; ret; 
94187788373883: ret; 
94187788373880: add byte ptr [rax - 0x7d], cl; ret; 
94187788373878: add byte ptr [rax], al; add byte ptr [rax - 0x7d], cl; ret; 
94187788373876: add byte ptr [rax], al; add byte ptr [rax], al; add byte ptr [rax - 0x7d], cl; ret; 
94187788373926: ret; 
94187788371255: call rax; 
94187788371253: add byte ptr [rax], al; call rax; 
94187788371251: add dword ptr [rax], esp; add byte ptr [rax], al; call rax; 
94187788371250: mov esi, 0x2001; call rax; 
94187788371249: sar byte ptr [rsi + 0x2001], cl; call rax; 
94187788371248: xor edx, edx; mov esi, 0x2001; call rax; 
94187788371247: add byte ptr [rcx], dh; sar byte ptr [rsi + 0x2001], cl; call rax; 
94187788371246: add byte ptr [rax], al; xor edx, edx; mov esi, 0x2001; call rax; 
94187788371245: add dword ptr [rax], eax; add byte ptr [rcx], dh; sar byte ptr [rsi + 0x2001], cl; call rax; 
94187788371244: xor byte ptr [rcx], al; add byte ptr [rax], al; xor edx, edx; mov esi, 0x2001; call rax; 
94187788371243: test byte ptr [rax], dh; add dword ptr [rax], eax; add byte ptr [rcx], dh; sar byte ptr [rsi + 0x2001], cl; call rax; 
94187788371562: call rax; 
94187788371560: add byte ptr [rax], al; call rax; 
94187788371558: add dword ptr [rax], esp; add byte ptr [rax], al; call rax; 
94187788371557: mov esi, 0x2001; call rax; 
94187788371556: add byte ptr [rsi + 0x2001], bh; call rax; 
94187788371555: add byte ptr [rax], al; mov esi, 0x2001; call rax; 
94187788371554: add byte ptr [rax], al; add byte ptr [rsi + 0x2001], bh; call rax; 
94187788371553: add dword ptr [rax], eax; add byte ptr [rax], al; mov esi, 0x2001; call rax; 
94187788371552: mov edx, 1; mov esi, 0x2001; call rax; 
94187788371551: add byte ptr [rdx + 1], bh; mov esi, 0x2001; call rax; 
94187788371550: add byte ptr [rax], al; mov edx, 1; mov esi, 0x2001; call rax; 
94187788371549: add byte ptr [rax], r8b; mov edx, 1; mov esi, 0x2001; call rax; 
94187788371547: nop dword ptr [rax + rax]; mov edx, 1; mov esi, 0x2001; call rax; 
94187788371546: nop word ptr [rax + rax]; mov edx, 1; mov esi, 0x2001; call rax; 
94187788371970: call rax; 
94187788371968: mov edi, ebx; call rax; 
94187788371967: mov rdi, rbx; call rax; 
94187788371965: add byte ptr [rax], al; mov rdi, rbx; call rax; 
94187788371963: add dword ptr [rax], eax; add byte ptr [rax], al; mov rdi, rbx; call rax; 
94187788371962: mov esi, 1; mov rdi, rbx; call rax; 
94187788371961: add byte ptr [rsi + 1], bh; mov rdi, rbx; call rax; 
94187788371960: add byte ptr [rax], al; mov esi, 1; mov rdi, rbx; call rax; 
94187788371959: add al, byte ptr [rax]; add byte ptr [rsi + 1], bh; mov rdi, rbx; call rax; 
94187788371957: test byte ptr [rsi + 2], dh; add byte ptr [rax], al; mov esi, 1; mov rdi, rbx; call rax; 
94187788370054: jmp qword ptr [rsi + 0xf]; 
94187788370317: jmp qword ptr [rsi - 0x70]; 
94187788370315: int 0xfe; jmp qword ptr [rsi - 0x70]; 
94187788370963: jmp qword ptr [rsi + 0x66]; 
94187788371568: jmp qword ptr [rsi + 0x66]; 
94187788372333: jmp qword ptr [rsi - 0x70]; 
94187788372397: jmp qword ptr [rsi - 0x70]; 
94187788372457: jmp qword ptr [rsi + 0xf]; 
94187788372541: jmp qword ptr [rsi - 0x70]; 
94187788372581: jmp qword ptr [rsi + 0x2e]; 
94187788372646: jmp qword ptr [rsi + 0xf]; 
94187788372693: jmp qword ptr [rsi + 0x2e]; 
94187788373273: jmp qword ptr [rsi + 0xf]; 
94187788370771: call qword ptr [rax + 0x10]; 
94187788370769: mov edi, eax; call qword ptr [rax + 0x10]; 
94187788370768: mov rdi, rax; call qword ptr [rax + 0x10]; 
94187788370766: and al, byte ptr [rcx]; mov rdi, rax; call qword ptr [rax + 0x10]; 
94187788370765: and al, byte ptr [rcx]; mov rdi, rax; call qword ptr [rax + 0x10]; 
94187788370764: or byte ptr [rdx + 0x22], 1; mov rdi, rax; call qword ptr [rax + 0x10]; 
94187788370763: or byte ptr [r10 + 0x22], 1; mov rdi, rax; call qword ptr [rax + 0x10]; 
94187788370762: add dword ptr [rcx - 0x80], eax; and al, byte ptr [rcx]; mov rdi, rax; call qword ptr [rax + 0x10]; 
94187788370760: add ebx, 1; or byte ptr [r10 + 0x22], 1; mov rdi, rax; call qword ptr [rax + 0x10]; 
94187788370759: add rbx, 1; or byte ptr [r10 + 0x22], 1; mov rdi, rax; call qword ptr [rax + 0x10]; 
94187788370753: mov eax, dword ptr [rdx - 0xc0]; add rbx, 1; or byte ptr [r10 + 0x22], 1; mov rdi, rax; call qword ptr [rax + 0x10]; 
94187788370752: mov rax, qword ptr [r10 - 0xc0]; add rbx, 1; or byte ptr [r10 + 0x22], 1; mov rdi, rax; call qword ptr [rax + 0x10]; 
94187788372612: call qword ptr [rbp + 8]; 
94187788372610: add byte ptr [rax], al; call qword ptr [rbp + 8]; 
94187788372608: add dword ptr [rax], esp; add byte ptr [rax], al; call qword ptr [rbp + 8]; 
94187788372607: mov esi, 0x2001; call qword ptr [rbp + 8]; 
94187788372606: add byte ptr [rsi + 0x2001], bh; call qword ptr [rbp + 8]; 
94187788372605: add byte ptr [rax], al; mov esi, 0x2001; call qword ptr [rbp + 8]; 
94187788372604: add byte ptr [rax], al; add byte ptr [rsi + 0x2001], bh; call qword ptr [rbp + 8]; 
94187788372603: add dword ptr [rax], eax; add byte ptr [rax], al; mov esi, 0x2001; call qword ptr [rbp + 8]; 
94187788372602: mov edx, 1; mov esi, 0x2001; call qword ptr [rbp + 8]; 
94187788372601: or eax, 0x1ba; add byte ptr [rsi + 0x2001], bh; call qword ptr [rbp + 8]; 
94187788372599: sbb byte ptr [rbp + rcx - 0x46], dh; add dword ptr [rax], eax; add byte ptr [rax], al; mov esi, 0x2001; call qword ptr [rbp + 8]; 
94187788372639: call qword ptr [rbp + 8]; 
94187788372637: add byte ptr [rax], al; call qword ptr [rbp + 8]; 
94187788372635: add al, 0; add byte ptr [rax], al; call qword ptr [rbp + 8]; 
94187788372634: mov esi, 4; call qword ptr [rbp + 8]; 
94187788372633: add byte ptr [rsi + 4], bh; call qword ptr [rbp + 8]; 
94187788372632: add byte ptr [rax], al; mov esi, 4; call qword ptr [rbp + 8]; 
94187788372631: add byte ptr [rax], al; add byte ptr [rsi + 4], bh; call qword ptr [rbp + 8]; 
94187788372630: add dword ptr [rax], eax; add byte ptr [rax], al; mov esi, 4; call qword ptr [rbp + 8]; 
94187788372629: mov edx, 1; mov esi, 4; call qword ptr [rbp + 8]; 
94187788372765: call qword ptr [rax + 0x10]; 
94187788372763: mov edi, eax; call qword ptr [rax + 0x10]; 
94187788372762: mov rdi, rax; call qword ptr [rax + 0x10]; 
94187788372760: add byte ptr [rcx], al; mov rdi, rax; call qword ptr [rax + 0x10]; 
94187788372758: add byte ptr [rax], al; add byte ptr [rcx], al; mov rdi, rax; call qword ptr [rax + 0x10]; 
94187788372756: mov ebp, edx; add byte ptr [rax], al; add byte ptr [rcx], al; mov rdi, rax; call qword ptr [rax + 0x10]; 
94187788372755: or byte ptr [rbx + 0xea], 1; mov rdi, rax; call qword ptr [rax + 0x10]; 
94187788372754: or byte ptr [rax + 0xea8b], al; add byte ptr [rcx], al; mov rdi, rax; call qword ptr [rax + 0x10]; 
94187788372753: or byte ptr [r8 + 0xea8b], al; add byte ptr [rcx], al; mov rdi, rax; call qword ptr [rax + 0x10]; 
94187788372752: mov eax, dword ptr [rbx + 8]; or byte ptr [rbx + 0xea], 1; mov rdi, rax; call qword ptr [rax + 0x10]; 
94187788372751: mov rax, qword ptr [rbx + 8]; or byte ptr [rbx + 0xea], 1; mov rdi, rax; call qword ptr [rax + 0x10]; 
94187788372750: adc dword ptr [rax - 0x75], ecx; or byte ptr [r8 + 0xea8b], al; add byte ptr [rcx], al; mov rdi, rax; call qword ptr [rax + 0x10]; 
94187788373533: call qword ptr [rax + 0x10]; 
94187788373531: mov edi, eax; call qword ptr [rax + 0x10]; 
94187788373530: mov rdi, rax; call qword ptr [rax + 0x10]; 
94187788373528: add dword ptr [rax], eax; mov rdi, rax; call qword ptr [rax + 0x10]; 
94187788373526: add byte ptr [rax], dl; add dword ptr [rax], eax; mov rdi, rax; call qword ptr [rax + 0x10]; 
94187788373524: add byte ptr [rax], al; add byte ptr [rax], dl; add dword ptr [rax], eax; mov rdi, rax; call qword ptr [rax + 0x10]; 
94187788373520: or dword ptr [rbx + 0xe8], 0x11000; mov rdi, rax; call qword ptr [rax + 0x10]; 
94187788373516: nop dword ptr [rax]; or dword ptr [rbx + 0xe8], 0x11000; mov rdi, rax; call qword ptr [rax + 0x10]; 
94187788370248: ret 0xfffe; 
94187788370246: or cl, ch; ret 0xfffe; 
94187788370245: or r9b, bpl; ret 0xfffe; 
94187788370242: dec dword ptr [rax - 0x75]; or r9b, bpl; ret 0xfffe; 
94187788370370: ret 0x830f; 
94187788370434: ret 0xf00; 
94187788370687: ret 0x5e9; 
94187788371006: ret 0x4801; 
94187788371003: add byte ptr [rax - 0x7d], cl; ret 0x4801; 
94187788371001: add byte ptr [rax], al; add byte ptr [rax - 0x7d], cl; ret 0x4801; 
94187788371000: add byte ptr [rax], 0; add byte ptr [rax - 0x7d], cl; ret 0x4801; 
94187788370999: nop; add byte ptr [rax], 0; add byte ptr [rax - 0x7d], cl; ret 0x4801; 
94187788371170: ret 0; 
94187788371848: ret 0x4801; 
94187788371845: add byte ptr [rax - 0x7d], cl; ret 0x4801; 
94187788371843: add byte ptr [rax], al; add byte ptr [rax - 0x7d], cl; ret 0x4801; 
94187788371518: call qword ptr [rax - 0x3f7a38b7]; 
94187788366513: ret; 
94187788366512: pop rdi; ret; 
94187788366511: pop r15; ret; 
94187788366510: pop rsi; pop r15; ret; 
94187788366509: pop r14; pop r15; ret; 
94187788366508: pop rbp; pop r14; pop r15; ret; 
94187788366507: pop r13; pop r14; pop r15; ret; 
94187788366506: pop rsp; pop r13; pop r14; pop r15; ret; 
94187788366505: pop r12; pop r13; pop r14; pop r15; ret; 
94187788367062: ret; 
94187788367059: add dword ptr [rax - 0x7f], ecx; ret; 
94187788367425: ret; 
94187788367424: pop rdi; ret; 
94187788367423: pop r15; ret; 
94187788367422: pop rsi; pop r15; ret; 
94187788367421: pop r14; pop r15; ret; 
94187788367420: pop rbp; pop r14; pop r15; ret; 
94187788367419: pop r13; pop r14; pop r15; ret; 
94187788367418: pop rsp; pop r13; pop r14; pop r15; ret; 
94187788367417: pop r12; pop r13; pop r14; pop r15; ret; 
94187788368948: ret; 
94187788368945: add dword ptr [rax - 0x7f], ecx; ret; 
94187788367213: syscall; 
94187788367211: adc al, ch; syscall; 
94187788366033: jmp qword ptr [rsi + 0xf]; 
94187788366281: jmp qword ptr [rsi + 0xf]; 
94187788366365: jmp qword ptr [rsi - 0x70]; 
94187788366445: jmp qword ptr [rsi - 0x70]; 
94187788366710: jmp qword ptr [rsi + 0xf]; 
94187788367633: jmp qword ptr [rsi + 0xf]; 
94187788368656: jmp qword ptr [rsi + 0x66]; 
94187788368654: sar esi, cl; jmp qword ptr [rsi + 0x66]; 
94187788369254: jmp qword ptr [rsi + 0xf]; 
94187788369381: jmp qword ptr [rsi + 0x2e]; 
94187788369509: jmp qword ptr [rsi + 0x2e]; 
94187788365870: ret 0xf41; 
94187788365868: add al, 0x89; ret 0xf41; 
94187788365865: rol cl, 0xe0; add al, 0x89; ret 0xf41; 
94187788365864: xchg eax, ebp; rol cl, 0xe0; add al, 0x89; ret 0xf41; 
94187788365862: ror byte ptr [rdi], cl; xchg eax, ebp; rol cl, 0xe0; add al, 0x89; ret 0xf41; 
94187788366858: ret 0; 
94187788366654: call qword ptr [rax + 0x10738b48]; 
94187788361965: ret; 
94187788361962: add cl, byte ptr [rax + 0x29]; ret; 
94187788362081: ret; 
94187788362460: ret; 
94187788362459: pop rbp; ret; 
94187788362458: pop rbx; pop rbp; ret; 
94187788362457: pop rax; pop rbx; pop rbp; ret; 
94187788362455: add esp, 0x58; pop rbx; pop rbp; ret; 
94187788362454: add rsp, 0x58; pop rbx; pop rbp; ret; 
94187788362452: add byte ptr [rax], al; add rsp, 0x58; pop rbx; pop rbp; ret; 
94187788362702: ret; 
94187788362957: ret; 
94187788362956: pop rbx; ret; 
94187788362955: pop rbx; ret; 
94187788362953: add esp, 0x40; pop rbx; ret; 
94187788362952: add rsp, 0x40; pop rbx; ret; 
94187788362949: add byte ptr [rbp + 6], dh; add rsp, 0x40; pop rbx; ret; 
94187788362947: add byte ptr [rax], al; add byte ptr [rbp + 6], dh; add rsp, 0x40; pop rbx; ret; 
94187788363156: ret; 
94187788363155: pop rbx; ret; 
94187788363154: pop rbx; ret; 
94187788363152: add esp, 0x40; pop rbx; ret; 
94187788363151: add rsp, 0x40; pop rbx; ret; 
94187788363148: add byte ptr [rbp + 0x3a], dh; add rsp, 0x40; pop rbx; ret; 
94187788363146: add byte ptr [rax], al; add byte ptr [rbp + 0x3a], dh; add rsp, 0x40; pop rbx; ret; 
94187788363436: ret; 
94187788363435: pop rsp; ret; 
94187788363434: pop r12; ret; 
94187788363433: pop rbp; pop r12; ret; 
94187788363432: pop rbx; pop rbp; pop r12; ret; 
94187788363431: pop rbx; pop rbp; pop r12; ret; 
94187788363429: add esp, 0x40; pop rbx; pop rbp; pop r12; ret; 
94187788363428: add rsp, 0x40; pop rbx; pop rbp; pop r12; ret; 
94187788363546: ret; 
94187788363545: pop rbp; ret; 
94187788363544: pop rbx; pop rbp; ret; 
94187788363543: or byte ptr [rbx + 0x5d], bl; ret; 
94187788363541: add esp, 8; pop rbx; pop rbp; ret; 
94187788363540: add rsp, 8; pop rbx; pop rbp; ret; 
94187788363539: or al, 0x48; add esp, 8; pop rbx; pop rbp; ret; 
94187788363537: push qword ptr [rsp + rcx + 0x48]; add esp, 8; pop rbx; pop rbp; ret; 
94187788363649: ret; 
94187788363648: lahf; ret; 
94187788363726: ret; 
94187788363725: pop rbx; ret; 
94187788363723: xor eax, eax; pop rbx; ret; 
94187788363721: add byte ptr [rax], al; xor eax, eax; pop rbx; ret; 
94187788363719: add dword ptr [rax], eax; add byte ptr [rax], al; xor eax, eax; pop rbx; ret; 
94187788363716: mov dword ptr [rbx + 0x10], 1; xor eax, eax; pop rbx; ret; 
94187788363715: mov qword ptr [rbx + 0x10], 1; xor eax, eax; pop rbx; ret; 
94187788363786: ret; 
94187788363784: xor eax, eax; ret; 
94187788363780: nop dword ptr [rax]; xor eax, eax; ret; 
94187788363799: ret; 
94187788363796: add byte ptr [rbp + 9], dh; ret; 
94187788363824: ret; 
94187788363823: pop rbx; ret; 
94187788363820: push qword ptr [rcx + rcx + 0x5b]; ret; 
94187788363819: clc; push qword ptr [rcx + rcx + 0x5b]; ret; 
94187788363817: inc dword ptr [rbx + 0x974fff8]; pop rbx; ret; 
94187788363901: ret; 
94187788363925: ret; 
94187788363923: mov dh, 0xc0; ret; 
94187788363922: movzx eax, al; ret; 
94187788363919: sete al; movzx eax, al; ret; 
94187788363917: mov cl, 0xa; sete al; movzx eax, al; ret; 
94187788363916: cmpxchg dword ptr [rdx], ecx; sete al; movzx eax, al; ret; 
94187788363915: cmpxchg qword ptr [rdx], rcx; sete al; movzx eax, al; ret; 
94187788363914: lock cmpxchg qword ptr [rdx], rcx; sete al; movzx eax, al; ret; 
94187788363913: or eax, esi; cmpxchg qword ptr [rdx], rcx; sete al; movzx eax, al; ret; 
94187788363911: movsxd rcx, dword ptr [rcx]; lock cmpxchg qword ptr [rdx], rcx; sete al; movzx eax, al; ret; 
94187788364169: ret; 
94187788364168: pop rsp; ret; 
94187788364167: pop r12; ret; 
94187788364166: pop rbp; pop r12; ret; 
94187788364165: pop rbx; pop rbp; pop r12; ret; 
94187788364164: lcall ptr [rbx + 0x5d]; pop r12; ret; 
94187788364325: ret; 
94187788364324: pop rsp; ret; 
94187788364323: pop r12; ret; 
94187788364322: pop rbp; pop r12; ret; 
94187788364321: pop rbx; pop rbp; pop r12; ret; 
94187788364320: mov ch, 0x5b; pop rbp; pop r12; ret; 
94187788364318: xor dword ptr [rbp - 0x4b], esi; pop rbx; pop rbp; pop r12; ret; 
94187788364370: ret; 
94187788364369: pop rsp; ret; 
94187788364368: pop r12; ret; 
94187788364367: pop rbp; pop r12; ret; 
94187788364366: pop rbx; pop rbp; pop r12; ret; 
94187788364365: add dword ptr [rbx + 0x5d], ebx; pop r12; ret; 
94187788364364: sub byte ptr [rcx], al; pop rbx; pop rbp; pop r12; ret; 
94187788364363: sub dword ptr [rax], 1; pop rbx; pop rbp; pop r12; ret; 
94187788364362: sub qword ptr [rax], 1; pop rbx; pop rbp; pop r12; ret; 
94187788364361: lock sub qword ptr [rax], 1; pop rbx; pop rbp; pop r12; ret; 
94187788364554: ret; 
94187788364556: ret; 
94187788364555: pop rbx; ret; 
94187788364554: ret; 
94187788364596: ret; 
94187788364593: add byte ptr [rax + 0x63], cl; ret; 
94187788364592: push rbp; add byte ptr [rax + 0x63], cl; ret; 
94187788364589: sub cl, byte ptr [rax - 0x75]; push rbp; add byte ptr [rax + 0x63], cl; ret; 
94187788364625: ret; 
94187788364624: pop rbp; ret; 
94187788364623: pop rbx; pop rbp; ret; 
94187788364622: or byte ptr [rbx + 0x5d], bl; ret; 
94187788364620: add esp, 8; pop rbx; pop rbp; ret; 
94187788364619: add rsp, 8; pop rbx; pop rbp; ret; 
94187788364617: add byte ptr [rax], al; add rsp, 8; pop rbx; pop rbp; ret; 
94187788364742: ret; 
94187788365057: ret; 
94187788365056: pop rsi; ret; 
94187788365055: pop r14; ret; 
94187788365054: pop rbp; pop r14; ret; 
94187788365053: pop r13; pop r14; ret; 
94187788365052: pop rsp; pop r13; pop r14; ret; 
94187788365051: pop r12; pop r13; pop r14; ret; 
94187788365050: pop rbp; pop r12; pop r13; pop r14; ret; 
94187788365263: ret; 
94187788365260: add byte ptr [rax - 0x7d], cl; ret; 
94187788365258: add dword ptr [rax], eax; add byte ptr [rax - 0x7d], cl; ret; 
94187788365304: ret; 
94187788365303: pop rbp; ret; 
94187788365302: pop r13; ret; 
94187788365301: pop rsp; pop r13; ret; 
94187788365300: pop r12; pop r13; ret; 
94187788365299: pop rbp; pop r12; pop r13; ret; 
94187788365298: pop rbx; pop rbp; pop r12; pop r13; ret; 
94187788365297: lcall ptr [rbx + 0x5d]; pop r12; pop r13; ret; 
94187788365314: ret; 
94187788365312: xor eax, eax; ret; 
94187788365310: add byte ptr [rax], al; xor eax, eax; ret; 
94187788365308: add byte ptr [rax], al; add byte ptr [rax], al; xor eax, eax; ret; 
94187788365307: add byte ptr [rax], 0; add byte ptr [rax], al; xor eax, eax; ret; 
94187788365305: nop dword ptr [rax]; xor eax, eax; ret; 
94187788365304: ret; 
94187788365335: ret; 
94187788365334: pop rbp; ret; 
94187788365333: pop r13; ret; 
94187788365332: pop rsp; pop r13; ret; 
94187788365331: pop r12; pop r13; ret; 
94187788365330: pop rbp; pop r12; pop r13; ret; 
94187788365329: pop rbx; pop rbp; pop r12; pop r13; ret; 
94187788365328: rcr byte ptr [rbx + 0x5d], 0x41; pop rsp; pop r13; ret; 
94187788365657: ret; 
94187788365655: add al, ch; ret; 
94187788365653: add byte ptr [rax], al; add al, ch; ret; 
94187788362225: jmp qword ptr [rsi + 0xf]; 
94187788362804: jmp qword ptr [rsi + 0x66]; 
94187788362962: jmp qword ptr [rsi + 0x66]; 
94187788363213: jmp qword ptr [rsi - 0x70]; 
94187788363441: jmp qword ptr [rsi + 0x2e]; 
94187788363439: out 0xfe, eax; jmp qword ptr [rsi + 0x2e]; 
94187788363601: jmp qword ptr [rsi + 0xf]; 
94187788363599: adc edi, edi; jmp qword ptr [rsi + 0xf]; 
94187788363598: adc edi, edi; jmp qword ptr [rsi + 0xf]; 
94187788363594: rcr byte ptr [rbx + 0x5d], 0xe9; adc edi, edi; jmp qword ptr [rsi + 0xf]; 
94187788363592: or byte ptr [rcx], dh; rcr byte ptr [rbx + 0x5d], 0xe9; adc edi, edi; jmp qword ptr [rsi + 0xf]; 
94187788363586: add byte ptr [rbx - 0x3b7cb7f0], cl; or byte ptr [rcx], dh; rcr byte ptr [rbx + 0x5d], 0xe9; adc edi, edi; jmp qword ptr [rsi + 0xf]; 
94187788364185: jmp qword ptr [rsi + 0xf]; 
94187788364293: jmp qword ptr [rsi + 0x2e]; 
94187788365121: jmp qword ptr [rsi + 0x66]; 
94187788365119: loope 0x55a9cdaaed3f; jmp qword ptr [rsi + 0x66]; 
94187788365118: loope 0x55a9cdaaed3f; jmp qword ptr [rsi + 0x66]; 
94187788365113: sub eax, 0xe8ffffff; loope 0x55a9cdaaed3f; jmp qword ptr [rsi + 0x66]; 
94187788365111: add cl, ch; sub eax, 0xe8ffffff; loope 0x55a9cdaaed3f; jmp qword ptr [rsi + 0x66]; 
94187788365109: add byte ptr [rax], al; add cl, ch; sub eax, 0xe8ffffff; loope 0x55a9cdaaed3f; jmp qword ptr [rsi + 0x66]; 
94187788365108: sldt word ptr [rax]; add cl, ch; sub eax, 0xe8ffffff; loope 0x55a9cdaaed3f; jmp qword ptr [rsi + 0x66]; 
94187788361771: ret 0x894d; 
94187788361768: add cl, byte ptr [rcx + 0x29]; ret 0x894d; 
94187788362065: ret 0xe; 
94187788362718: ret 0x448b; 
94187788363069: ret 0x448b; 
94187788363095: ret 0x6348; 
94187788363091: add byte ptr [rbx + rcx*4 + 4], cl; ret 0x6348; 
94187788363090: or eax, 0x48b4c00; ret 0x6348; 
94187788363190: ret 0x6348; 
94187788363210: ret 0xfee8; 
94187788363302: ret 0x5489; 
94187788363299: or cl, byte ptr [rax + 0x29]; ret 0x5489; 
94187788363298: cli; or cl, byte ptr [rax + 0x29]; ret 0x5489; 
94187788363349: ret 0x8948; 
94187788363390: ret 0x294c; 
94187788363387: sbb byte ptr [rax - 0x77], cl; ret 0x294c; 
94187788365649: ret 0xb841; 
94187788364462: call qword ptr [rax + 0x7f834853]; 
94187788460049: ret; 
94187788460048: pop rbp; ret; 
94187788460047: pop r13; ret; 
94187788460046: pop rsp; pop r13; ret; 
94187788460045: pop r12; pop r13; ret; 
94187788460044: pop rbp; pop r12; pop r13; ret; 
94187788460043: pop rbx; pop rbp; pop r12; pop r13; ret; 
94187788460042: or byte ptr [rbx + 0x5d], bl; pop r12; pop r13; ret; 
94187788460073: ret; 
94187788460072: pop rbp; ret; 
94187788460071: pop r13; ret; 
94187788460070: pop rsp; pop r13; ret; 
94187788460069: pop r12; pop r13; ret; 
94187788460068: pop rbp; pop r12; pop r13; ret; 
94187788460067: pop rbx; pop rbp; pop r12; pop r13; ret; 
94187788460066: lcall ptr [rbx + 0x5d]; pop r12; pop r13; ret; 
94187788460128: ret; 
94187788460127: pop rbp; ret; 
94187788460126: pop r13; ret; 
94187788460125: pop rsp; pop r13; ret; 
94187788460124: pop r12; pop r13; ret; 
94187788460123: pop rbp; pop r12; pop r13; ret; 
94187788460122: pop rbx; pop rbp; pop r12; pop r13; ret; 
94187788460121: or byte ptr [rbx + 0x5d], bl; pop r12; pop r13; ret; 
94187788460436: ret; 
94187788460433: add esp, 0x38; ret; 
94187788460432: add rsp, 0x38; ret; 
94187788460431: add eax, 0x38c48348; ret; 
94187788460429: add byte ptr [rbp + 5], dh; add rsp, 0x38; ret; 
94187788460427: add byte ptr [rax], al; add byte ptr [rbp + 5], dh; add rsp, 0x38; ret; 
94187788460558: ret; 
94187788460557: pop rbp; ret; 
94187788460556: pop rbx; pop rbp; ret; 
94187788460555: rcr byte ptr [rbx + 0x5d], 1; ret; 
94187788460554: mov eax, edx; pop rbx; pop rbp; ret; 
94187788460553: mov rax, rdx; pop rbx; pop rbp; ret; 
94187788460552: or byte ptr [rax - 0x77], cl; rcr byte ptr [rbx + 0x5d], 1; ret; 
94187788460550: add esp, 8; mov rax, rdx; pop rbx; pop rbp; ret; 
94187788460549: add rsp, 8; mov rax, rdx; pop rbx; pop rbp; ret; 
94187788460643: ret; 
94187788460642: pop rbp; ret; 
94187788460641: pop rbx; pop rbp; ret; 
94187788460640: rcr byte ptr [rbx + 0x5d], 1; ret; 
94187788460639: mov eax, edx; pop rbx; pop rbp; ret; 
94187788460638: mov rax, rdx; pop rbx; pop rbp; ret; 
94187788460637: dec dword ptr [rax - 0x77]; rcr byte ptr [rbx + 0x5d], 1; ret; 
94187788460632: mov edx, 0xffffffff; mov rax, rdx; pop rbx; pop rbp; ret; 
94187788460631: mov rdx, -1; mov rax, rdx; pop rbx; pop rbp; ret; 
94187788460846: ret; 
94187788460845: pop rbp; ret; 
94187788460844: pop rbx; pop rbp; ret; 
94187788460843: or byte ptr [rbx + 0x5d], bl; ret; 
94187788460841: add esp, 8; pop rbx; pop rbp; ret; 
94187788460840: add rsp, 8; pop rbx; pop rbp; ret; 
94187788460839: add rsp, 8; pop rbx; pop rbp; ret; 
94187788460837: push qword ptr [rax + rcx*2 + 0x48]; add esp, 8; pop rbx; pop rbp; ret; 
94187788461007: ret; 
94187788461006: pop rbx; ret; 
94187788461004: xor eax, eax; pop rbx; ret; 
94187788461002: add dh, bh; xor eax, eax; pop rbx; ret; 
94187788461000: add byte ptr [rax], al; add dh, bh; xor eax, eax; pop rbx; ret; 
94187788460998: movabs dword ptr [0x5bc031fe000000a1], eax; ret; 
94187788460997: and byte ptr [rbx + 0xa1], 0xfe; xor eax, eax; pop rbx; ret; 
94187788460996: or eax, dword ptr [rax + 0xa1a3]; add dh, bh; xor eax, eax; pop rbx; ret; 
94187788461016: ret; 
94187788461015: pop rbx; ret; 
94187788461009: mov eax, 0xffffffff; pop rbx; ret; 
94187788461008: mov rax, -1; pop rbx; ret; 
94187788461007: ret; 
94187788461058: ret; 
94187788461057: pop rbx; ret; 
94187788461055: xor eax, eax; pop rbx; ret; 
94187788461053: add byte ptr [rax], al; xor eax, eax; pop rbx; ret; 
94187788461050: and dword ptr [rax + 0x31000000], 0xffffffc0; pop rbx; ret; 
94187788461049: mov byte ptr [rbx + 0xa0], al; xor eax, eax; pop rbx; ret; 
94187788461045: movzx eax, byte ptr [rax + 0x12]; mov byte ptr [rbx + 0xa0], al; xor eax, eax; pop rbx; ret; 
94187788461072: ret; 
94187788461071: pop rbx; ret; 
94187788461065: mov eax, 0xffffffff; pop rbx; ret; 
94187788461064: mov rax, -1; pop rbx; ret; 
94187788461062: add byte ptr [rax], al; mov rax, -1; pop rbx; ret; 
94187788461061: add byte ptr [rax], r8b; mov rax, -1; pop rbx; ret; 
94187788461059: nop dword ptr [rax + rax]; mov rax, -1; pop rbx; ret; 
94187788461058: ret; 
94187788461137: ret; 
94187788461136: pop rbx; ret; 
94187788461134: mov eax, edx; pop rbx; ret; 
94187788461133: mov rax, rdx; pop rbx; ret; 
94187788461131: neg edx; mov rax, rdx; pop rbx; ret; 
94187788461130: neg rdx; mov rax, rdx; pop rbx; ret; 
94187788461127: sete dl; neg rdx; mov rax, rdx; pop rbx; ret; 
94187788461237: ret; 
94187788461236: pop rbp; ret; 
94187788461235: pop r13; ret; 
94187788461234: pop rsp; pop r13; ret; 
94187788461233: pop r12; pop r13; ret; 
94187788461232: pop rbp; pop r12; pop r13; ret; 
94187788461231: pop rbx; pop rbp; pop r12; pop r13; ret; 
94187788461230: or byte ptr [rbx + 0x5d], bl; pop r12; pop r13; ret; 
94187788461383: ret; 
94187788461380: add esp, 0x38; ret; 
94187788461379: add rsp, 0x38; ret; 
94187788461376: sal byte ptr [rbp + 0x16], 1; add rsp, 0x38; ret; 
94187788461374: add byte ptr [rcx + 0x481675d0], cl; add esp, 0x38; ret; 
94187788461372: add byte ptr [rax], al; add byte ptr [rcx + 0x481675d0], cl; add esp, 0x38; ret; 
94187788461511: ret; 
94187788461508: add esp, 0x38; ret; 
94187788461507: add rsp, 0x38; ret; 
94187788461504: sal byte ptr [rbp + 0x16], 1; add rsp, 0x38; ret; 
94187788461502: add byte ptr [rcx + 0x481675d0], cl; add esp, 0x38; ret; 
94187788461500: add byte ptr [rax], al; add byte ptr [rcx + 0x481675d0], cl; add esp, 0x38; ret; 
94187788461639: ret; 
94187788461636: add esp, 0x38; ret; 
94187788461635: add rsp, 0x38; ret; 
94187788461632: sal byte ptr [rbp + 0x16], 1; add rsp, 0x38; ret; 
94187788461630: add byte ptr [rcx + 0x481675d0], cl; add esp, 0x38; ret; 
94187788461628: add byte ptr [rax], al; add byte ptr [rcx + 0x481675d0], cl; add esp, 0x38; ret; 
94187788461680: ret; 
94187788461688: ret; 
94187788461687: pop rbx; ret; 
94187788461680: ret; 
94187788461711: ret; 
94187788461710: pop rbx; ret; 
94187788461704: mov eax, 0xffffffff; pop rbx; ret; 
94187788461703: mov rax, -1; pop rbx; ret; 
94187788461701: mov dword ptr [rax], ebx; mov rax, -1; pop rbx; ret; 
94187788461696: call 0x55a9cda9cdc0; mov dword ptr [rax], ebx; mov rax, -1; pop rbx; ret; 
94187788461754: ret; 
94187788461753: cwde; ret; 
94187788461752: cdqe; ret; 
94187788461751: pop rbx; cdqe; ret; 
94187788461750: lcall ptr [rbx + 0x48]; cwde; ret; 
94187788461749: std; lcall ptr [rbx + 0x48]; cwde; ret; 
94187788461748: std; lcall ptr [rbx + 0x48]; cwde; ret; 
94187788461747: pop rcx; std; lcall ptr [rbx + 0x48]; cwde; ret; 
94187788461746: call 0x55a9cda9cc10; pop rbx; cdqe; ret; 
94187788461745: shr al, 0x59; std; lcall ptr [rbx + 0x48]; cwde; ret; 
94187788461744: xor eax, eax; call 0x55a9cda9cc10; pop rbx; cdqe; ret; 
94187788461768: ret; 
94187788461767: pop rbx; ret; 
94187788461761: mov eax, 0xffffffff; pop rbx; ret; 
94187788461760: mov rax, -1; pop rbx; ret; 
94187788461758: add byte ptr [rax], al; mov rax, -1; pop rbx; ret; 
94187788461757: add byte ptr [rax], r8b; mov rax, -1; pop rbx; ret; 
94187788461755: nop dword ptr [rax + rax]; mov rax, -1; pop rbx; ret; 
94187788461754: ret; 
94187788461818: ret; 
94187788461817: cwde; ret; 
94187788461816: cdqe; ret; 
94187788461815: pop rbx; cdqe; ret; 
94187788461814: lcall ptr [rbx + 0x48]; cwde; ret; 
94187788461813: std; lcall ptr [rbx + 0x48]; cwde; ret; 
94187788461812: std; lcall ptr [rbx + 0x48]; cwde; ret; 
94187788461811: sbb dword ptr [rbp - 3], esp; lcall ptr [rbx + 0x48]; cwde; ret; 
94187788461810: call 0x55a9cda9cc10; pop rbx; cdqe; ret; 
94187788461809: shr al, 0x19; std; lcall ptr [rbx + 0x48]; cwde; ret; 
94187788461808: xor eax, eax; call 0x55a9cda9cc10; pop rbx; cdqe; ret; 
94187788461832: ret; 
94187788461831: pop rbx; ret; 
94187788461825: mov eax, 0xffffffff; pop rbx; ret; 
94187788461824: mov rax, -1; pop rbx; ret; 
94187788461822: add byte ptr [rax], al; mov rax, -1; pop rbx; ret; 
94187788461821: add byte ptr [rax], r8b; mov rax, -1; pop rbx; ret; 
94187788461819: nop dword ptr [rax + rax]; mov rax, -1; pop rbx; ret; 
94187788461818: ret; 
94187788461918: ret; 
94187788461916: add byte ptr [rax], al; ret; 
94187788461914: mov byte ptr [rax], al; add byte ptr [rax], al; ret; 
94187788461912: add esp, 0x88; ret; 
94187788461911: add rsp, 0x88; ret; 
94187788461908: add byte ptr [rbp + 0x10], dh; add rsp, 0x88; ret; 
94187788461906: add byte ptr [rax], al; add byte ptr [rbp + 0x10], dh; add rsp, 0x88; ret; 
94187788461999: ret; 
94187788461996: add esp, 0x18; ret; 
94187788461995: add rsp, 0x18; ret; 
94187788461994: add eax, 0x18c48348; ret; 
94187788461992: add byte ptr [rbp + 5], dh; add rsp, 0x18; ret; 
94187788461990: add byte ptr [rax], al; add byte ptr [rbp + 5], dh; add rsp, 0x18; ret; 
94187788462079: ret; 
94187788462076: add esp, 0x18; ret; 
94187788462075: add rsp, 0x18; ret; 
94187788462074: add eax, 0x18c48348; ret; 
94187788462072: add byte ptr [rbp + 5], dh; add rsp, 0x18; ret; 
94187788462070: add byte ptr [rax], al; add byte ptr [rbp + 5], dh; add rsp, 0x18; ret; 
94187788462170: ret; 
94187788462167: add esp, 0x18; ret; 
94187788462166: add rsp, 0x18; ret; 
94187788462165: add eax, 0x18c48348; ret; 
94187788462163: add byte ptr [rbp + 5], dh; add rsp, 0x18; ret; 
94187788462161: add byte ptr [rax], al; add byte ptr [rbp + 5], dh; add rsp, 0x18; ret; 
94187788462250: ret; 
94187788462247: add esp, 0x18; ret; 
94187788462246: add rsp, 0x18; ret; 
94187788462245: add eax, 0x18c48348; ret; 
94187788462243: add byte ptr [rbp + 5], dh; add rsp, 0x18; ret; 
94187788462241: add byte ptr [rax], al; add byte ptr [rbp + 5], dh; add rsp, 0x18; ret; 
94187788462529: ret; 
94187788462528: pop rdi; ret; 
94187788462527: pop r15; ret; 
94187788462526: pop rsi; pop r15; ret; 
94187788462525: pop r14; pop r15; ret; 
94187788462524: pop rbp; pop r14; pop r15; ret; 
94187788462523: pop r13; pop r14; pop r15; ret; 
94187788462522: pop rsp; pop r13; pop r14; pop r15; ret; 
94187788462521: pop r12; pop r13; pop r14; pop r15; ret; 
94187788463295: ret; 
94187788463294: pop rdi; ret; 
94187788463293: pop r15; ret; 
94187788463292: pop rsi; pop r15; ret; 
94187788463291: pop r14; pop r15; ret; 
94187788463290: pop rbp; pop r14; pop r15; ret; 
94187788463289: pop r13; pop r14; pop r15; ret; 
94187788463288: pop rsp; pop r13; pop r14; pop r15; ret; 
94187788463287: pop r12; pop r13; pop r14; pop r15; ret; 
94187788463686: ret; 
94187788463746: ret; 
94187788463745: pop rdi; ret; 
94187788463744: pop r15; ret; 
94187788463743: pop rsi; pop r15; ret; 
94187788463742: pop r14; pop r15; ret; 
94187788463741: pop rbp; pop r14; pop r15; ret; 
94187788463740: pop r13; pop r14; pop r15; ret; 
94187788463739: pop rsp; pop r13; pop r14; pop r15; ret; 
94187788463738: pop r12; pop r13; pop r14; pop r15; ret; 
94187788463785: ret; 
94187788463782: fisttp word ptr [rax - 0x39]; ret; 
94187788463816: ret; 
94187788463813: fisttp word ptr [rax - 0x77]; ret; 
94187788464030: ret; 
94187788464029: pop rdi; ret; 
94187788464028: pop r15; ret; 
94187788464027: pop rsi; pop r15; ret; 
94187788464026: pop r14; pop r15; ret; 
94187788464025: pop rbp; pop r14; pop r15; ret; 
94187788464024: pop r13; pop r14; pop r15; ret; 
94187788464023: pop rsp; pop r13; pop r14; pop r15; ret; 
94187788464022: pop r12; pop r13; pop r14; pop r15; ret; 
94187788460325: jmp qword ptr [rsi + 0x2e]; 
94187788460441: jmp qword ptr [rsi + 0xf]; 
94187788460440: std; jmp qword ptr [rsi + 0xf]; 
94187788460439: insb byte ptr [rdi], dx; std; jmp qword ptr [rsi + 0xf]; 
94187788460960: jmp qword ptr [rsi + 0x66]; 
94187788460959: std; jmp qword ptr [rsi + 0x66]; 
94187788460958: xchg eax, esi; std; jmp qword ptr [rsi + 0x66]; 
94187788461405: jmp qword ptr [rsi - 0x70]; 
94187788461404: std; jmp qword ptr [rsi - 0x70]; 
94187788461402: xor ch, byte ptr [rcx - 3]; jmp qword ptr [rsi - 0x70]; 
94187788461400: fsubr st(0); xor ch, byte ptr [rcx - 3]; jmp qword ptr [rsi - 0x70]; 
94187788461398: adc bl, ch; fsubr st(0); xor ch, byte ptr [rcx - 3]; jmp qword ptr [rsi - 0x70]; 
94187788461396: dec dword ptr [rbx - 0x172714f0]; xor ch, byte ptr [rcx - 3]; jmp qword ptr [rsi - 0x70]; 
94187788461395: std; dec dword ptr [rbx - 0x172714f0]; xor ch, byte ptr [rcx - 3]; jmp qword ptr [rsi - 0x70]; 
94187788461533: jmp qword ptr [rsi - 0x70]; 
94187788461532: std; jmp qword ptr [rsi - 0x70]; 
94187788461530: mov dl, 0x68; std; jmp qword ptr [rsi - 0x70]; 
94187788461528: fsubr st(0); mov dl, 0x68; std; jmp qword ptr [rsi - 0x70]; 
94187788461526: adc bl, ch; fsubr st(0); mov dl, 0x68; std; jmp qword ptr [rsi - 0x70]; 
94187788461524: dec dword ptr [rbx - 0x172714f0]; mov dl, 0x68; std; jmp qword ptr [rsi - 0x70]; 
94187788461523: std; dec dword ptr [rbx - 0x172714f0]; mov dl, 0x68; std; jmp qword ptr [rsi - 0x70]; 
94187788461522: std; dec dword ptr [rbx - 0x172714f0]; mov dl, 0x68; std; jmp qword ptr [rsi - 0x70]; 
94187788461661: jmp qword ptr [rsi - 0x70]; 
94187788461660: std; jmp qword ptr [rsi - 0x70]; 
94187788461658: xor ch, byte ptr [rax - 3]; jmp qword ptr [rsi - 0x70]; 
94187788461656: fsubr st(0); xor ch, byte ptr [rax - 3]; jmp qword ptr [rsi - 0x70]; 
94187788461654: adc bl, ch; fsubr st(0); xor ch, byte ptr [rax - 3]; jmp qword ptr [rsi - 0x70]; 
94187788461652: dec dword ptr [rbx - 0x172714f0]; xor ch, byte ptr [rax - 3]; jmp qword ptr [rsi - 0x70]; 
94187788461651: std; dec dword ptr [rbx - 0x172714f0]; xor ch, byte ptr [rax - 3]; jmp qword ptr [rsi - 0x70]; 
94187788461650: std; dec dword ptr [rbx - 0x172714f0]; xor ch, byte ptr [rax - 3]; jmp qword ptr [rsi - 0x70]; 
94187788462004: jmp qword ptr [rsi + 0x66]; 
94187788462003: std; jmp qword ptr [rsi + 0x66]; 
94187788462002: std; jmp qword ptr [rsi + 0x66]; 
94187788462084: jmp qword ptr [rsi + 0x66]; 
94187788462083: std; jmp qword ptr [rsi + 0x66]; 
94187788462082: std; jmp qword ptr [rsi + 0x66]; 
94187788462081: mov esp, dword ptr [rsi - 3]; jmp qword ptr [rsi + 0x66]; 
94187788462705: jmp qword ptr [rsi + 0xf]; 
94187788462738: jmp qword ptr [rsi + 0x2e]; 
94187788463245: jmp qword ptr [rsi - 0x70]; 
94187788463414: jmp qword ptr [rsi + 0xf]; 
94187788463537: jmp qword ptr [rsi + 0xf]; 
94187788460633: ret 0xffff; 
94187788460630: or byte ptr [rax - 0x39], cl; ret 0xffff; 
94187788460789: ret 0xffff; 
94187788460786: dec dword ptr [rax - 0x39]; ret 0xffff; 
94187788460785: std; dec dword ptr [rax - 0x39]; ret 0xffff; 
94187788460784: xchg eax, edi; std; dec dword ptr [rax - 0x39]; ret 0xffff; 
94187788460783: lea edx, dword ptr [rdi - 0x38b70003]; ret 0xffff; 
94187788460781: shr al, 0x8d; xchg eax, edi; std; dec dword ptr [rax - 0x39]; ret 0xffff; 
94187788461129: ret 0xf748; 
94187788461128: xchg eax, esp; ret 0xf748; 
94187788461126: add byte ptr [rdi], cl; xchg eax, esp; ret 0xf748; 
94187788461124: jnp 0x55a9cdac64a6; add byte ptr [rdi], cl; xchg eax, esp; ret 0xf748; 
94187788461121: ror byte ptr [rax - 0x7d], cl; jnp 0x55a9cdac64a6; add byte ptr [rdi], cl; xchg eax, esp; ret 0xf748; 
94187788461146: ret 0xffff; 
94187788461143: add byte ptr [rax - 0x39], cl; ret 0xffff; 
94187788461743: ret 0xc031; 
94187788461807: ret 0xc031; 
94187788461894: ret 0x8b48; 
94187788463435: ret 0x7440; 
94187788463433: adc esi, esi; ret 0x7440; 
94187788463430: add byte ptr [rax - 0x75], cl; adc esi, esi; ret 0x7440; 
94187788460222: call qword ptr [rax - 0x474c74b8]; 
94187788460798: call qword ptr [rax - 0x76b7acab]; 
ERROR: Failed to disassemble given code!
94187788351208: ret; 
94187788351207: pop rdi; ret; 
94187788351206: pop r15; ret; 
94187788351205: pop rsi; pop r15; ret; 
94187788351204: pop r14; pop r15; ret; 
94187788351203: pop rbp; pop r14; pop r15; ret; 
94187788351202: pop r13; pop r14; pop r15; ret; 
94187788351201: pop rsp; pop r13; pop r14; pop r15; ret; 
94187788351200: pop r12; pop r13; pop r14; pop r15; ret; 
94187788351257: ret; 
94187788351255: loope 0x55a9cdaab6eb; ret; 
94187788351253: sbb al, dh; loope 0x55a9cdaab6eb; ret; 
94187788351252: sbb r8b, r14b; loope 0x55a9cdaab6eb; ret; 
94187788351250: adc bh, al; sbb r8b, r14b; loope 0x55a9cdaab6eb; ret; 
94187788351249: adc r15b, r8b; sbb r8b, r14b; loope 0x55a9cdaab6eb; ret; 
94187788351246: adc byte ptr [rax - 0x77], cl; adc r15b, r8b; sbb r8b, r14b; loope 0x55a9cdaab6eb; ret; 
94187788351258: ret; 
94187788351257: ret; 
94187788351487: ret; 
94187788351486: pop rbp; ret; 
94187788351485: pop r13; ret; 
94187788351484: pop rsp; pop r13; ret; 
94187788351483: pop r12; pop r13; ret; 
94187788351482: pop rbp; pop r12; pop r13; ret; 
94187788351481: pop rbx; pop rbp; pop r12; pop r13; ret; 
94187788351480: or byte ptr [rbx + 0x5d], bl; pop r12; pop r13; ret; 
94187788352045: ret; 
94187788352044: pop rsp; ret; 
94187788352043: pop r12; ret; 
94187788352042: pop rbp; pop r12; ret; 
94187788352041: pop rbx; pop rbp; pop r12; ret; 
94187788352040: stosd dword ptr [rdi], eax; pop rbx; pop rbp; pop r12; ret; 
94187788352039: stosq qword ptr [rdi], rax; pop rbx; pop rbp; pop r12; ret; 
94187788352038: rep stosq qword ptr [rdi], rax; pop rbx; pop rbp; pop r12; ret; 
94187788352420: ret; 
94187788352417: add byte ptr [rax - 0x77], cl; ret; 
94187788352437: ret; 
94187788352446: ret; 
94187788352445: pop rsp; ret; 
94187788352444: pop r12; ret; 
94187788352443: pop rbp; pop r12; ret; 
94187788352442: pop rbx; pop rbp; pop r12; ret; 
94187788352441: add byte ptr [rbx + 0x5d], bl; pop r12; ret; 
94187788352440: and byte ptr [rax], al; pop rbx; pop rbp; pop r12; ret; 
94187788352439: and byte ptr [r8], al; pop rbx; pop rbp; pop r12; ret; 
94187788352438: mov byte ptr [rbx + 0x20], 0; pop rbx; pop rbp; pop r12; ret; 
94187788352437: ret; 
94187788352552: ret; 
94187788352549: add byte ptr [rax - 0x77], cl; ret; 
94187788352770: ret; 
94187788352767: add byte ptr [rax - 0x77], cl; ret; 
94187788352765: add byte ptr [rax], al; add byte ptr [rax - 0x77], cl; ret; 
94187788352972: ret; 
94187788352971: pop rsp; ret; 
94187788352970: pop r12; ret; 
94187788352969: pop rbp; pop r12; ret; 
94187788352968: add byte ptr [rbp + 0x41], bl; pop rsp; ret; 
94187788352966: mov dword ptr [rbp], esi; pop rbp; pop r12; ret; 
94187788352965: mov qword ptr [rbp], rsi; pop rbp; pop r12; ret; 
94187788352964: pop rbx; mov qword ptr [rbp], rsi; pop rbp; pop r12; ret; 
94187788352963: add byte ptr [rbx + 0x48], bl; mov dword ptr [rbp], esi; pop rbp; pop r12; ret; 
94187788353069: ret; 
94187788353067: and byte ptr [rcx], al; ret; 
94187788353066: and byte ptr [rcx], r8b; ret; 
94187788353065: mov byte ptr [rsi + 0x20], 1; ret; 
94187788353064: adc dh, al; and byte ptr [rcx], r8b; ret; 
94187788353063: adc sil, r8b; and byte ptr [rcx], r8b; ret; 
94187788353062: mov dword ptr [rsi + 0x10], eax; mov byte ptr [rsi + 0x20], 1; ret; 
94187788353061: mov qword ptr [rsi + 0x10], rax; mov byte ptr [rsi + 0x20], 1; ret; 
94187788353060: or byte ptr [rax - 0x77], cl; adc sil, r8b; and byte ptr [rcx], r8b; ret; 
94187788353059: or byte ptr [rax - 0x77], r9b; adc sil, r8b; and byte ptr [rcx], r8b; ret; 
94187788353058: mov dword ptr [rsi + 8], eax; mov qword ptr [rsi + 0x10], rax; mov byte ptr [rsi + 0x20], 1; ret; 
94187788353057: mov qword ptr [rsi + 8], rax; mov qword ptr [rsi + 0x10], rax; mov byte ptr [rsi + 0x20], 1; ret; 
94187788353056: sbb byte ptr [rax - 0x77], cl; or byte ptr [rax - 0x77], r9b; adc sil, r8b; and byte ptr [rcx], r8b; ret; 
94187788353054: mov dword ptr [rsi + 0x18], edi; mov qword ptr [rsi + 8], rax; mov qword ptr [rsi + 0x10], rax; mov byte ptr [rsi + 0x20], 1; ret; 
94187788353053: mov qword ptr [rsi + 0x18], rdi; mov qword ptr [rsi + 8], rax; mov qword ptr [rsi + 0x10], rax; mov byte ptr [rsi + 0x20], 1; ret; 
94187788353133: ret; 
94187788353131: and byte ptr [rcx], al; ret; 
94187788353130: and byte ptr [rcx], r8b; ret; 
94187788353129: mov byte ptr [rsi + 0x20], 1; ret; 
94187788353128: adc dh, al; and byte ptr [rcx], r8b; ret; 
94187788353127: adc sil, r8b; and byte ptr [rcx], r8b; ret; 
94187788353126: mov dword ptr [rsi + 0x10], eax; mov byte ptr [rsi + 0x20], 1; ret; 
94187788353125: mov qword ptr [rsi + 0x10], rax; mov byte ptr [rsi + 0x20], 1; ret; 
94187788353124: or byte ptr [rax - 0x77], cl; adc sil, r8b; and byte ptr [rcx], r8b; ret; 
94187788353123: or byte ptr [rax - 0x77], r9b; adc sil, r8b; and byte ptr [rcx], r8b; ret; 
94187788353122: mov dword ptr [rsi + 8], eax; mov qword ptr [rsi + 0x10], rax; mov byte ptr [rsi + 0x20], 1; ret; 
94187788353121: mov qword ptr [rsi + 8], rax; mov qword ptr [rsi + 0x10], rax; mov byte ptr [rsi + 0x20], 1; ret; 
94187788353120: sbb byte ptr [rax - 0x77], cl; or byte ptr [rax - 0x77], r9b; adc sil, r8b; and byte ptr [rcx], r8b; ret; 
94187788353118: mov dword ptr [rsi + 0x18], edi; mov qword ptr [rsi + 8], rax; mov qword ptr [rsi + 0x10], rax; mov byte ptr [rsi + 0x20], 1; ret; 
94187788353117: mov qword ptr [rsi + 0x18], rdi; mov qword ptr [rsi + 8], rax; mov qword ptr [rsi + 0x10], rax; mov byte ptr [rsi + 0x20], 1; ret; 
94187788351213: jmp qword ptr [rsi - 0x70]; 
94187788351585: jmp qword ptr [rsi + 0xf]; 
94187788351731: jmp qword ptr [rsi + 0x66]; 
94187788352322: jmp qword ptr [rsi + 0x2e]; 
94187788352565: jmp qword ptr [rsi + 0x2e]; 
94187788352994: jmp qword ptr [rsi + 0x66]; 
94187788352365: call qword ptr [rbp + 0x10]; 
94187788352363: mov edx, esp; call qword ptr [rbp + 0x10]; 
94187788352362: mov rdx, r12; call qword ptr [rbp + 0x10]; 
94187788352361: add byte ptr [rcx + rcx*4 - 0x1e], cl; call qword ptr [rbp + 0x10]; 
94187788352360: add byte ptr [rax], al; mov rdx, r12; call qword ptr [rbp + 0x10]; 
94187788352359: add al, byte ptr [rax]; add byte ptr [rcx + rcx*4 - 0x1e], cl; call qword ptr [rbp + 0x10]; 
94187788352358: add r8b, byte ptr [rax]; add byte ptr [rcx + rcx*4 - 0x1e], cl; call qword ptr [rbp + 0x10]; 
94187788352357: test byte ptr [rsi + 2], al; add byte ptr [rax], al; mov rdx, r12; call qword ptr [rbp + 0x10]; 
94187788352355: out 0xf, eax; test byte ptr [rsi + 2], al; add byte ptr [rax], al; mov rdx, r12; call qword ptr [rbp + 0x10]; 
94187788351292: ret 0xe083; 
94187788351313: ret 0x3948; 
94187788351310: and byte ptr [rax + 0x29], cl; ret 0x3948; 
94187788351333: ret 0xf04; 
94187788351331: add dh, dh; ret 0xf04; 
94187788351329: add dword ptr [rax], eax; add dh, dh; ret 0xf04; 
94187788351327: add dword ptr [rcx + rax], 0; add dh, dh; ret 0xf04; 
94187788351325: or byte ptr [rdi], cl; add dword ptr [rcx + rax], 0; add dh, dh; ret 0xf04; 
94187788351324: cli; or byte ptr [rdi], cl; add dword ptr [rcx + rax], 0; add dh, dh; ret 0xf04; 
94187788351351: ret 0xf02; 
94187788351463: ret 0x4c08; 
94187788351474: ret 0xef72; 
94187788352100: ret 0x4808; 
94187788352107: ret 0xf372; 
94187788352100: ret 0x4808; 
94187788352189: ret 0xc748; 
94187788352231: ret 0x4808; 
94187788352238: ret 0xf372; 
94187788352231: ret 0x4808; 
94187788352289: ret 0x1c7; 
94187788352310: ret 0xf631; 
94187788353347: ret 0x840f; 
94187788352878: call qword ptr [rax + 0x5d8948]; 
94187788345870: ret; 
94187788346235: ret; 
94187788346234: pop rdi; ret; 
94187788346233: pop r15; ret; 
94187788346232: pop rsi; pop r15; ret; 
94187788346231: pop r14; pop r15; ret; 
94187788346230: pop rbp; pop r14; pop r15; ret; 
94187788346229: pop r13; pop r14; pop r15; ret; 
94187788346228: pop rsp; pop r13; pop r14; pop r15; ret; 
94187788346227: pop r12; pop r13; pop r14; pop r15; ret; 
94187788346275: ret; 
94187788346272: mov dword ptr [rdi + 0x10], eax; ret; 
94187788346271: mov qword ptr [rdi + 0x10], rax; ret; 
94187788346269: xor dl, byte ptr [rax]; mov qword ptr [rdi + 0x10], rax; ret; 
94187788346268: push rsp; xor dl, byte ptr [rax]; mov qword ptr [rdi + 0x10], rax; ret; 
94187788346261: movabs rax, 0x1032547698badcfe; mov qword ptr [rdi + 0x10], rax; ret; 
94187788346258: mov dword ptr [rdi + 8], eax; movabs rax, 0x1032547698badcfe; mov qword ptr [rdi + 0x10], rax; ret; 
94187788346257: mov qword ptr [rdi + 8], rax; movabs rax, 0x1032547698badcfe; mov qword ptr [rdi + 0x10], rax; ret; 
94187788346255: add byte ptr [rax], al; mov qword ptr [rdi + 8], rax; movabs rax, 0x1032547698badcfe; mov qword ptr [rdi + 0x10], rax; ret; 
94187788346511: ret; 
94187788346510: pop rbp; ret; 
94187788346509: pop r13; ret; 
94187788346508: pop rsp; pop r13; ret; 
94187788346507: pop r12; pop r13; ret; 
94187788346506: pop rbp; pop r12; pop r13; ret; 
94187788346505: pop rbx; pop rbp; pop r12; pop r13; ret; 
94187788346504: or byte ptr [rbx + 0x5d], bl; pop r12; pop r13; ret; 
94187788347040: ret; 
94187788347039: pop rsp; ret; 
94187788347038: pop r12; ret; 
94187788347037: pop rbp; pop r12; ret; 
94187788347036: pop rbx; pop rbp; pop r12; ret; 
94187788347035: stosd dword ptr [rdi], eax; pop rbx; pop rbp; pop r12; ret; 
94187788347034: stosq qword ptr [rdi], rax; pop rbx; pop rbp; pop r12; ret; 
94187788347033: rep stosq qword ptr [rdi], rax; pop rbx; pop rbp; pop r12; ret; 
94187788346609: jmp qword ptr [rsi + 0xf]; 
94187788346607: xor bh, bh; jmp qword ptr [rsi + 0xf]; 
94187788346755: jmp qword ptr [rsi + 0x66]; 
94187788345355: ret 0x109; 
94187788345358: ret 0xd631; 
94187788345356: or dword ptr [rcx], eax; ret 0xd631; 
94187788345355: ret 0x109; 
94187788345447: ret 0x8b41; 
94187788345453: ret 0x8d0b; 
94187788345451: sub al, 0xc1; ret 0x8d0b; 
94187788345450: sub al, 0xc1; ret 0x8d0b; 
94187788345447: ret 0x8b41; 
94187788345550: ret 0x848d; 
94187788345572: ret 0x3110; 
94187788345686: ret 0x8d41; 
94187788345709: ret 0x104; 
94187788345784: ret 0xfa31; 
94187788345782: ror byte ptr [rcx], cl; ret 0xfa31; 
94187788345804: ret 0xf706; 
94187788345802: adc al, 0xc1; ret 0xf706; 
94187788345817: ret 0xd109; 
94187788345884: ret 0xf231; 
94187788345904: ret 0xf706; 
94187788345902: add al, 0xc1; ret 0xf706; 
94187788345909: ret 0xd109; 
94187788345907: rol dword ptr [rcx], 1; ret 0xd109; 
94187788345904: ret 0xf706; 
94187788345987: ret 0xf231; 
94187788346007: ret 0xf706; 
94187788346005: sbb cl, al; ret 0xf706; 
94187788346004: sbb cl, al; ret 0xf706; 
94187788345999: dec byte ptr [rcx + 0x4a8b45f1]; sbb cl, al; ret 0xf706; 
94187788345997: out 0x2c, al; dec byte ptr [rcx + 0x4a8b45f1]; sbb cl, al; ret 0xf706; 
94187788345995: or eax, esp; out 0x2c, al; dec byte ptr [rcx + 0x4a8b45f1]; sbb cl, al; ret 0xf706; 
94187788345994: mov esp, 0x2ce6e009; dec byte ptr [rcx + 0x4a8b45f1]; sbb cl, al; ret 0xf706; 
94187788345987: ret 0xf231; 
94187788346012: ret 0xd109; 
94187788346010: rol dword ptr [rcx], 1; ret 0xd109; 
94187788346007: ret 0xf706; 
94187788346117: ret 0xfa31; 
94187788346115: ror byte ptr [rcx], cl; ret 0xfa31; 
94187788346127: ret 0x8d0a; 
94187788346125: or cl, al; ret 0x8d0a; 
94187788346124: or cl, al; ret 0x8d0a; 
94187788346117: ret 0xfa31; 
94187788346139: ret 0xd1f7; 
94187788346186: ret 0x4c40; 
94187788346183: ror byte ptr [rcx - 0x7d], 1; ret 0x4c40; 
94187788346316: ret 0xe083; 
94187788346337: ret 0x3948; 
94187788346334: sbb byte ptr [rax + 0x29], cl; ret 0x3948; 
94187788346357: ret 0xf04; 
94187788346355: add dh, dh; ret 0xf04; 
94187788346353: add dword ptr [rax], eax; add dh, dh; ret 0xf04; 
94187788346351: add dword ptr [rcx + rax], 0; add dh, dh; ret 0xf04; 
94187788346349: or byte ptr [rdi], cl; add dword ptr [rcx + rax], 0; add dh, dh; ret 0xf04; 
94187788346348: cli; or byte ptr [rdi], cl; add dword ptr [rcx + rax], 0; add dh, dh; ret 0xf04; 
94187788346375: ret 0xf02; 
94187788346487: ret 0x4c08; 
94187788346498: ret 0xef72; 
94187788347100: ret 0x4808; 
94187788347107: ret 0xf372; 
94187788347100: ret 0x4808; 
94187788347189: ret 0xc748; 
94187788347231: ret 0x4808; 
94187788347238: ret 0xf372; 
94187788347231: ret 0x4808; 
94187788347289: ret 0x1c7; 
94187788347310: ret 0xf631; 
94187788347398: ret 0x5f8b; 
94187788347395: and byte ptr [rax + 1], cl; ret 0x5f8b; 
94187788347422: ret 0x100; 
94187788341844: ret; 
94187788341843: pop rdi; ret; 
94187788341842: pop r15; ret; 
94187788341841: pop rsi; pop r15; ret; 
94187788341840: pop r14; pop r15; ret; 
94187788341839: pop rbp; pop r14; pop r15; ret; 
94187788341838: pop r13; pop r14; pop r15; ret; 
94187788341837: pop rsp; pop r13; pop r14; pop r15; ret; 
94187788341836: pop r12; pop r13; pop r14; pop r15; ret; 
94187788342777: ret; 
94187788342775: add al, ch; ret; 
94187788342773: add al, 0; add al, ch; ret; 
94187788342771: test eax, esi; add al, 0; add al, ch; ret; 
94187788342769: dec dword ptr [rdi]; test eax, esi; add al, 0; add al, ch; ret; 
94187788343331: ret; 
94187788343330: pop rdi; ret; 
94187788343329: pop r15; ret; 
94187788343328: pop rsi; pop r15; ret; 
94187788343327: pop r14; pop r15; ret; 
94187788343326: pop rbp; pop r14; pop r15; ret; 
94187788343325: pop r13; pop r14; pop r15; ret; 
94187788343324: pop rsp; pop r13; pop r14; pop r15; ret; 
94187788343323: pop r12; pop r13; pop r14; pop r15; ret; 
94187788344334: ret; 
94187788344333: pop rsp; ret; 
94187788344332: pop r12; ret; 
94187788344331: pop rbp; pop r12; ret; 
94187788344330: pop rbx; pop rbp; pop r12; ret; 
94187788344328: mov eax, esp; pop rbx; pop rbp; pop r12; ret; 
94187788344327: mov rax, r12; pop rbx; pop rbp; pop r12; ret; 
94187788344326: xor byte ptr [rcx + rcx*4 - 0x20], cl; pop rbx; pop rbp; pop r12; ret; 
94187788344461: ret; 
94187788344459: xor eax, edx; ret; 
94187788344456: shr edx, 0xf; xor eax, edx; ret; 
94187788344454: mov edx, eax; shr edx, 0xf; xor eax, edx; ret; 
94187788344453: pop rbx; mov edx, eax; shr edx, 0xf; xor eax, edx; ret; 
94187788344449: rcl byte ptr [rbp - 0x76a42e17], 0xc2; shr edx, 0xf; xor eax, edx; ret; 
94187788344448: imul eax, eax, 0x5bd1e995; mov edx, eax; shr edx, 0xf; xor eax, edx; ret; 
94187788345224: ret; 
94187788345219: mov esp, 0x3707d615; ret; 
94187788341617: jmp qword ptr [rsi + 0x66]; 
94187788341929: jmp qword ptr [rsi + 0xf]; 
94187788341958: jmp qword ptr [rsi + 0xf]; 
94187788342005: jmp qword ptr [rsi + 0x2e]; 
94187788342553: jmp qword ptr [rsi + 0xf]; 
94187788342646: jmp qword ptr [rsi + 0xf]; 
94187788343513: jmp qword ptr [rsi + 0xf]; 
94187788343750: jmp qword ptr [rsi + 0xf]; 
94187788344105: jmp qword ptr [rsi + 0xf]; 
94187788344179: jmp qword ptr [rsi + 0x2e]; 
94187788344177: xor edi, edi; jmp qword ptr [rsi + 0x2e]; 
94187788343135: call qword ptr [rbx + 0x30]; 
94187788343132: mov dword ptr [rbx + 0x18], eax; call qword ptr [rbx + 0x30]; 
94187788343131: mov qword ptr [rbx + 0x18], rax; call qword ptr [rbx + 0x30]; 
94187788343129: add byte ptr [rax], al; mov qword ptr [rbx + 0x18], rax; call qword ptr [rbx + 0x30]; 
94187788343127: test al, 0; add byte ptr [rax], al; mov qword ptr [rbx + 0x18], rax; call qword ptr [rbx + 0x30]; 
94187788343124: mov eax, dword ptr [rsp + 0xa8]; mov qword ptr [rbx + 0x18], rax; call qword ptr [rbx + 0x30]; 
94187788343123: mov rax, qword ptr [rsp + 0xa8]; mov qword ptr [rbx + 0x18], rax; call qword ptr [rbx + 0x30]; 
94187788343120: mov dword ptr [rbx + 0x10], eax; mov rax, qword ptr [rsp + 0xa8]; mov qword ptr [rbx + 0x18], rax; call qword ptr [rbx + 0x30]; 
94187788343119: mov qword ptr [rbx + 0x10], rax; mov rax, qword ptr [rsp + 0xa8]; mov qword ptr [rbx + 0x18], rax; call qword ptr [rbx + 0x30]; 
94187788343117: add byte ptr [rax], al; mov qword ptr [rbx + 0x10], rax; mov rax, qword ptr [rsp + 0xa8]; mov qword ptr [rbx + 0x18], rax; call qword ptr [rbx + 0x30]; 
94187788343207: call qword ptr [rbx + 0x38]; 
94187788343204: mov dword ptr [rbx + 0x18], eax; call qword ptr [rbx + 0x38]; 
94187788343203: mov qword ptr [rbx + 0x18], rax; call qword ptr [rbx + 0x38]; 
94187788343201: add byte ptr [rax], al; mov qword ptr [rbx + 0x18], rax; call qword ptr [rbx + 0x38]; 
94187788343199: test al, 0; add byte ptr [rax], al; mov qword ptr [rbx + 0x18], rax; call qword ptr [rbx + 0x38]; 
94187788343196: mov eax, dword ptr [rsp + 0xa8]; mov qword ptr [rbx + 0x18], rax; call qword ptr [rbx + 0x38]; 
94187788343195: mov rax, qword ptr [rsp + 0xa8]; mov qword ptr [rbx + 0x18], rax; call qword ptr [rbx + 0x38]; 
94187788343192: mov dword ptr [rbx + 0x10], eax; mov rax, qword ptr [rsp + 0xa8]; mov qword ptr [rbx + 0x18], rax; call qword ptr [rbx + 0x38]; 
94187788343191: mov qword ptr [rbx + 0x10], rax; mov rax, qword ptr [rsp + 0xa8]; mov qword ptr [rbx + 0x18], rax; call qword ptr [rbx + 0x38]; 
94187788343189: add byte ptr [rax], al; mov qword ptr [rbx + 0x10], rax; mov rax, qword ptr [rsp + 0xa8]; mov qword ptr [rbx + 0x18], rax; call qword ptr [rbx + 0x38]; 
94187788343395: call qword ptr [rbx + 0x40]; 
94187788343393: mov edi, ebx; call qword ptr [rbx + 0x40]; 
94187788343392: mov rdi, rbx; call qword ptr [rbx + 0x40]; 
94187788343390: and al, 0x18; mov rdi, rbx; call qword ptr [rbx + 0x40]; 
94187788343388: mov esi, dword ptr [rsp + 0x18]; mov rdi, rbx; call qword ptr [rbx + 0x40]; 
94187788343387: mov rsi, qword ptr [rsp + 0x18]; mov rdi, rbx; call qword ptr [rbx + 0x40]; 
94187788343385: add byte ptr [rax], al; mov rsi, qword ptr [rsp + 0x18]; mov rdi, rbx; call qword ptr [rbx + 0x40]; 
94187788343383: test dword ptr [rcx], eax; add byte ptr [rax], al; mov rsi, qword ptr [rsp + 0x18]; mov rdi, rbx; call qword ptr [rbx + 0x40]; 
94187788343382: test dword ptr [rbp + 0x48000001], eax; mov esi, dword ptr [rsp + 0x18]; mov rdi, rbx; call qword ptr [rbx + 0x40]; 
94187788343496: call qword ptr [rbx + 0x28]; 
94187788343493: mov dword ptr [rbx + 0x18], eax; call qword ptr [rbx + 0x28]; 
94187788343492: mov qword ptr [rbx + 0x18], rax; call qword ptr [rbx + 0x28]; 
94187788343490: add byte ptr [rax], al; mov qword ptr [rbx + 0x18], rax; call qword ptr [rbx + 0x28]; 
94187788343488: test al, 0; add byte ptr [rax], al; mov qword ptr [rbx + 0x18], rax; call qword ptr [rbx + 0x28]; 
94187788343485: mov eax, dword ptr [rsp + 0xa8]; mov qword ptr [rbx + 0x18], rax; call qword ptr [rbx + 0x28]; 
94187788343484: mov rax, qword ptr [rsp + 0xa8]; mov qword ptr [rbx + 0x18], rax; call qword ptr [rbx + 0x28]; 
94187788343481: mov dword ptr [rbx + 0x10], eax; mov rax, qword ptr [rsp + 0xa8]; mov qword ptr [rbx + 0x18], rax; call qword ptr [rbx + 0x28]; 
94187788343480: mov qword ptr [rbx + 0x10], rax; mov rax, qword ptr [rsp + 0xa8]; mov qword ptr [rbx + 0x18], rax; call qword ptr [rbx + 0x28]; 
94187788343478: add byte ptr [rax], al; mov qword ptr [rbx + 0x10], rax; mov rax, qword ptr [rsp + 0xa8]; mov qword ptr [rbx + 0x18], rax; call qword ptr [rbx + 0x28]; 
94187788344081: call qword ptr [rbx + 0x20]; 
94187788344079: mov edi, eax; call qword ptr [rbx + 0x20]; 
94187788344078: mov rdi, rax; call qword ptr [rbx + 0x20]; 
94187788344076: and al, 0x28; mov rdi, rax; call qword ptr [rbx + 0x20]; 
94187788344074: mov esi, dword ptr [rsp + 0x28]; mov rdi, rax; call qword ptr [rbx + 0x20]; 
94187788344073: mov rsi, qword ptr [rsp + 0x28]; mov rdi, rax; call qword ptr [rbx + 0x20]; 
94187788341946: ret 0; 
94187788341940: inc dword ptr [rbx - 0x7bf00008]; ret 0; 
94187788342119: ret 0x3bf; 
94187788342314: ret 0xffec; 
94187788343078: ret 0x8b48; 
94187788343077: xchg eax, esp; ret 0x8b48; 
94187788343075: add al, 0xf; xchg eax, esp; ret 0x8b48; 
94187788343098: ret 2; 
94187788343095: ror byte ptr [rdi], 0x85; ret 2; 
94187788343092: add byte ptr [rax - 0x7b], cl; ror byte ptr [rdi], 0x85; ret 2; 
94187788343090: add dword ptr [rax], eax; add byte ptr [rax - 0x7b], cl; ror byte ptr [rdi], 0x85; ret 2; 
94187788343363: ret 0x8b48; 
94187788343362: xchg eax, esp; ret 0x8b48; 
94187788343360: add byte ptr [rdi], cl; xchg eax, esp; ret 0x8b48; 
94187788343357: add byte ptr [rax], al; add byte ptr [rdi], cl; xchg eax, esp; ret 0x8b48; 
94187788343466: ret 0x8948; 
94187788344231: ret 0x5d74; 
94187788344228: ror byte ptr [rax + 0x39], 1; ret 0x5d74; 
94187788344225: fmul dword ptr [rax + 0x21]; ror byte ptr [rax + 0x39], 1; ret 0x5d74; 
94187788344408: ret 0xe995; 
94187788344405: rcr dword ptr [rbx + 0x69], 1; ret 0xe995; 
94187788344442: ret 0xeac1; 
94187788344438: add dword ptr [rbx + rbp - 0x77], esi; ret 0xeac1; 
94187788344455: ret 0xeac1; 
94187788344452: rcr dword ptr [rbx - 0x77], 1; ret 0xeac1; 
94187788344646: ret 0xda31; 
94187788344644: fsub dword ptr [rcx]; ret 0xda31; 
94187788344655: ret 0x310c; 
94187788344653: fld st(1); ret 0x310c; 
94187788344646: ret 0xda31; 
94187788344660: ret 0xd121; 
94187788344655: ret 0x310c; 
94187788344744: ret 0xca31; 
94187788344764: ret 0x310c; 
94187788344762: and al, 0xc1; ret 0x310c; 
94187788344769: ret 0xd121; 
94187788344764: ret 0x310c; 
94187788344844: ret 0xca31; 
94187788344859: ret 0x310c; 
94187788344864: ret 0xd121; 
94187788344859: ret 0x310c; 
94187788344943: ret 0xca31; 
94187788344959: ret 0x310c; 
94187788344964: ret 0xd121; 
94187788344959: ret 0x310c; 
94187788345039: ret 0xca21; 
94187788345051: ret 0x109; 
94187788345049: sub al, 0xc1; ret 0x109; 
94187788345054: ret 0xbc8d; 
94187788345052: or dword ptr [rcx], eax; ret 0xbc8d; 
94187788345051: ret 0x109; 
94187788345138: ret 0xca21; 
94187788345156: ret 0x109; 
94187788345159: ret 0xd131; 
94187788345157: or dword ptr [rcx], eax; ret 0xd131; 
94187788345156: ret 0x109; 
94187788345233: ret 0xca21; 
94187788345245: ret 0x109; 
94187788345243: or al, 0xc1; ret 0x109; 
94187788345248: ret 0xbc8d; 
94187788345246: or dword ptr [rcx], eax; ret 0xbc8d; 
94187788345245: ret 0x109; 
94187788345337: ret 0xca21; 
94187788342462: call qword ptr [rax + 0x24748b49]; 
94187788342457: call 0x55a9cda808a7; call qword ptr [rax + 0x24748b49]; 
94187788342494: call qword ptr [rax + 0x20738b48]; 
94187788343806: call qword ptr [rax + 0x24448b4c]; 
94187788343838: call qword ptr [rax + 0x58738b48]; 
94187788337290: ret; 
94187788337287: add byte ptr [rax - 0x7d], cl; ret; 
94187788337285: add byte ptr [rax], al; add byte ptr [rax - 0x7d], cl; ret; 
94187788337327: ret; 
94187788337349: ret; 
94187788337348: pop rbp; ret; 
94187788337347: pop r13; ret; 
94187788337346: pop rsp; pop r13; ret; 
94187788337345: pop r12; pop r13; ret; 
94187788337344: pop rbp; pop r12; pop r13; ret; 
94187788337343: pop rbx; pop rbp; pop r12; pop r13; ret; 
94187788337342: call 0x55aa29ebde1e; pop r13; ret; 
94187788337433: ret; 
94187788337431: add eax, ecx; ret; 
94187788337430: add rax, rcx; ret; 
94187788337428: ror dword ptr [rdx], 0x48; add eax, ecx; ret; 
94187788337427: xadd dword ptr [rdx], ecx; add rax, rcx; ret; 
94187788337426: xadd qword ptr [rdx], rcx; add rax, rcx; ret; 
94187788337425: lock xadd qword ptr [rdx], rcx; add rax, rcx; ret; 
94187788337424: adc dh, al; xadd qword ptr [rdx], rcx; add rax, rcx; ret; 
94187788337423: mov edx, dword ptr [rdx]; lock xadd qword ptr [rdx], rcx; add rax, rcx; ret; 
94187788337422: mov rdx, qword ptr [rdx]; lock xadd qword ptr [rdx], rcx; add rax, rcx; ret; 
94187788337421: ror dword ptr [rax - 0x75], 0x12; lock xadd qword ptr [rdx], rcx; add rax, rcx; ret; 
94187788337420: mov ecx, eax; mov rdx, qword ptr [rdx]; lock xadd qword ptr [rdx], rcx; add rax, rcx; ret; 
94187788337419: mov rcx, rax; mov rdx, qword ptr [rdx]; lock xadd qword ptr [rdx], rcx; add rax, rcx; ret; 
94187788337418: add byte ptr [rax - 0x77], cl; ror dword ptr [rax - 0x75], 0x12; lock xadd qword ptr [rdx], rcx; add rax, rcx; ret; 
94187788337417: or eax, 0xc1894800; mov rdx, qword ptr [rdx]; lock xadd qword ptr [rdx], rcx; add rax, rcx; ret; 
94187788337416: mov dword ptr [rip - 0x3e76b800], ecx; mov rdx, qword ptr [rdx]; lock xadd qword ptr [rdx], rcx; add rax, rcx; ret; 
94187788337625: ret; 
94187788337624: pop rdi; ret; 
94187788337623: pop r15; ret; 
94187788337622: pop rsi; pop r15; ret; 
94187788337621: pop r14; pop r15; ret; 
94187788337620: pop rbp; pop r14; pop r15; ret; 
94187788337619: pop r13; pop r14; pop r15; ret; 
94187788337618: pop rsp; pop r13; pop r14; pop r15; ret; 
94187788337617: pop r12; pop r13; pop r14; pop r15; ret; 
94187788337783: ret; 
94187788338013: ret; 
94187788338012: pop rdi; ret; 
94187788338011: pop r15; ret; 
94187788338010: pop rsi; pop r15; ret; 
94187788338009: pop r14; pop r15; ret; 
94187788338008: pop rbp; pop r14; pop r15; ret; 
94187788338007: pop r13; pop r14; pop r15; ret; 
94187788338006: pop rsp; pop r13; pop r14; pop r15; ret; 
94187788338005: pop r12; pop r13; pop r14; pop r15; ret; 
94187788338302: ret; 
94187788338301: pop rbp; ret; 
94187788338300: pop rbx; pop rbp; ret; 
94187788338299: or byte ptr [rbx + 0x5d], bl; ret; 
94187788338297: add esp, 8; pop rbx; pop rbp; ret; 
94187788338296: add rsp, 8; pop rbx; pop rbp; ret; 
94187788338294: add byte ptr [rax], al; add rsp, 8; pop rbx; pop rbp; ret; 
94187788338293: add byte ptr [rax], r8b; add rsp, 8; pop rbx; pop rbp; ret; 
94187788338291: nop dword ptr [rax + rax]; add rsp, 8; pop rbx; pop rbp; ret; 
94187788338654: ret; 
94187788338653: pop rdi; ret; 
94187788338652: pop r15; ret; 
94187788338651: pop rsi; pop r15; ret; 
94187788338650: pop r14; pop r15; ret; 
94187788338649: pop rbp; pop r14; pop r15; ret; 
94187788338648: pop r13; pop r14; pop r15; ret; 
94187788338647: pop rsp; pop r13; pop r14; pop r15; ret; 
94187788338646: pop r12; pop r13; pop r14; pop r15; ret; 
94187788338759: ret; 
94187788338758: pop rdi; ret; 
94187788338757: pop r15; ret; 
94187788338756: pop rsi; pop r15; ret; 
94187788338755: pop r14; pop r15; ret; 
94187788338754: pop rbp; pop r14; pop r15; ret; 
94187788338753: pop r13; pop r14; pop r15; ret; 
94187788338752: pop rsp; pop r13; pop r14; pop r15; ret; 
94187788338751: pop r12; pop r13; pop r14; pop r15; ret; 
94187788338850: ret; 
94187788338952: ret; 
94187788338951: pop rdi; ret; 
94187788338950: pop r15; ret; 
94187788338949: pop rsi; pop r15; ret; 
94187788338948: pop r14; pop r15; ret; 
94187788338947: pop rbp; pop r14; pop r15; ret; 
94187788338946: pop r13; pop r14; pop r15; ret; 
94187788338945: pop rsp; pop r13; pop r14; pop r15; ret; 
94187788338944: pop r12; pop r13; pop r14; pop r15; ret; 
94187788339001: ret; 
94187788339000: pop rdi; ret; 
94187788338999: pop r15; ret; 
94187788338998: pop rsi; pop r15; ret; 
94187788338997: pop r14; pop r15; ret; 
94187788338996: pop rbp; pop r14; pop r15; ret; 
94187788338995: pop r13; pop r14; pop r15; ret; 
94187788338994: pop rsp; pop r13; pop r14; pop r15; ret; 
94187788338993: pop r12; pop r13; pop r14; pop r15; ret; 
94187788339047: ret; 
94187788339217: ret; 
94187788339366: ret; 
94187788339363: add byte ptr [rax - 0x7d], cl; ret; 
94187788339361: add byte ptr [rax], al; add byte ptr [rax - 0x7d], cl; ret; 
94187788339360: movsb byte ptr [rdi], byte ptr [rsi]; add byte ptr [rax], al; add byte ptr [rax - 0x7d], cl; ret; 
94187788339359: xchg byte ptr [rax + rax - 0x7cb80000], ah; ret; 
94187788339357: add cl, byte ptr [rdi]; xchg byte ptr [rax + rax - 0x7cb80000], ah; ret; 
94187788339387: ret; 
94187788339384: adc byte ptr [rax - 0x7d], cl; ret; 
94187788339383: push rbp; adc byte ptr [rax - 0x7d], cl; ret; 
94187788339380: or byte ptr [rax - 0x75], cl; push rbp; adc byte ptr [rax - 0x7d], cl; ret; 
94187788339425: ret; 
94187788339424: cld; ret; 
94187788339422: xor ebp, eax; cld; ret; 
94187788339419: or byte ptr [rax - 0x75], cl; xor ebp, eax; cld; ret; 
94187788339453: ret; 
94187788339452: pop rsi; ret; 
94187788339451: pop r14; ret; 
94187788339450: pop rbp; pop r14; ret; 
94187788339449: pop r13; pop r14; ret; 
94187788339448: pop rsp; pop r13; pop r14; ret; 
94187788339447: pop r12; pop r13; pop r14; ret; 
94187788339446: pop rbp; pop r12; pop r13; pop r14; ret; 
94187788339445: add byte ptr [rbp + 0x41], bl; pop rsp; pop r13; pop r14; ret; 
94187788339471: ret; 
94187788339470: pop rsi; ret; 
94187788339469: pop r14; ret; 
94187788339468: pop rbp; pop r14; ret; 
94187788339467: pop r13; pop r14; ret; 
94187788339466: pop rsp; pop r13; pop r14; ret; 
94187788339465: pop r12; pop r13; pop r14; ret; 
94187788339464: pop rbp; pop r12; pop r13; pop r14; ret; 
94187788339706: ret; 
94187788339704: not eax; ret; 
94187788339703: not rax; ret; 
94187788339702: ror byte ptr [rax - 9], 0xd0; ret; 
94187788339701: sbb eax, eax; not rax; ret; 
94187788339700: sbb rax, rax; not rax; ret; 
94187788339699: pop rsp; sbb rax, rax; not rax; ret; 
94187788339698: pop r12; sbb rax, rax; not rax; ret; 
94187788339697: add dword ptr [rcx + 0x5c], eax; sbb rax, rax; not rax; ret; 
94187788339696: clc; add dword ptr [rcx + 0x5c], eax; sbb rax, rax; not rax; ret; 
94187788339695: cmp eax, 1; pop r12; sbb rax, rax; not rax; ret; 
94187788339694: cmp rax, 1; pop r12; sbb rax, rax; not rax; ret; 
94187788339715: ret; 
94187788339713: mov dword ptr [rsi], edx; ret; 
94187788339712: mov qword ptr [rsi], rdx; ret; 
94187788339710: add byte ptr [rax], al; mov qword ptr [rsi], rdx; ret; 
94187788339709: add byte ptr [rax], r8b; mov qword ptr [rsi], rdx; ret; 
94187788339707: nop dword ptr [rax + rax]; mov qword ptr [rsi], rdx; ret; 
94187788339706: ret; 
94187788339722: ret; 
94187788339720: xor eax, eax; ret; 
94187788339716: nop dword ptr [rax]; xor eax, eax; ret; 
94187788339715: ret; 
94187788339739: ret; 
94187788339738: pop rsp; ret; 
94187788339737: pop r12; ret; 
94187788339736: pop rbp; pop r12; ret; 
94187788339735: lcall ptr [rbp + 0x41]; pop rsp; ret; 
94187788339730: mov eax, 0xffffffff; pop rbp; pop r12; ret; 
94187788339729: mov rax, -1; pop rbp; pop r12; ret; 
94187788339728: pop rbx; mov rax, -1; pop rbp; pop r12; ret; 
94187788339727: add byte ptr [rbx + 0x48], bl; mov eax, 0xffffffff; pop rbp; pop r12; ret; 
94187788339950: ret; 
94187788339947: add dword ptr [rax - 0x7d], ecx; ret; 
94187788340091: ret; 
94187788340090: pop rsi; ret; 
94187788340089: pop r14; ret; 
94187788340088: pop rbp; pop r14; ret; 
94187788340087: pop r13; pop r14; ret; 
94187788340086: pop rsp; pop r13; pop r14; ret; 
94187788340085: pop r12; pop r13; pop r14; ret; 
94187788340084: pop rbp; pop r12; pop r13; pop r14; ret; 
94187788340480: ret; 
94187788340477: add byte ptr [rax - 0x77], cl; ret; 
94187788340586: ret; 
94187788340583: dec dword ptr [rcx - 0x77]; ret; 
94187788340731: ret; 
94187788340730: pop rdi; ret; 
94187788340729: pop r15; ret; 
94187788340728: pop rsi; pop r15; ret; 
94187788340727: pop r14; pop r15; ret; 
94187788340726: pop rbp; pop r14; pop r15; ret; 
94187788340725: pop r13; pop r14; pop r15; ret; 
94187788340724: pop rsp; pop r13; pop r14; pop r15; ret; 
94187788340723: pop r12; pop r13; pop r14; pop r15; ret; 
94187788337233: jmp qword ptr [rsi + 0x66]; 
94187788338097: jmp qword ptr [rsi + 0xf]; 
94187788338115: jmp qword ptr [rsi + 0x66]; 
94187788338625: jmp qword ptr [rsi + 0xf]; 
94187788338622: imul edi, edi, -1; jmp qword ptr [rsi + 0xf]; 
94187788338620: add cl, ch; imul edi, edi, -1; jmp qword ptr [rsi + 0xf]; 
94187788338618: add byte ptr [rax], al; add cl, ch; imul edi, edi, -1; jmp qword ptr [rsi + 0xf]; 
94187788338665: jmp qword ptr [rsi + 0xf]; 
94187788338770: jmp qword ptr [rsi + 0x66]; 
94187788340249: jmp qword ptr [rsi + 0xf]; 
94187788341125: jmp qword ptr [rsi + 0x2e]; 
94187788338224: ret 0x8b4c; 
94187788338221: add byte ptr [rax - 0x77], cl; ret 0x8b4c; 
94187788338219: add byte ptr [rax], al; add byte ptr [rax - 0x77], cl; ret 0x8b4c; 
94187788338218: lock add byte ptr [rax], al; add byte ptr [rax - 0x77], cl; ret 0x8b4c; 
94187788338217: mov bh, 0xf0; add byte ptr [rax], al; add byte ptr [rax - 0x77], cl; ret 0x8b4c; 
94187788338214: add byte ptr [rax - 0x75], cl; mov bh, 0xf0; add byte ptr [rax], al; add byte ptr [rax - 0x77], cl; ret 0x8b4c; 
94187788339106: ret 0xa65; 
94187788339437: ret 0x485b; 
94187788339660: ret 0x8348; 
94187788339659: xchg eax, ebp; ret 0x8348; 
94187788339657: sbb byte ptr [rdi], cl; xchg eax, ebp; ret 0x8348; 
94187788340572: ret 0x8948; 
94187788340569: add byte ptr [rax - 0x77], cl; ret 0x8948; 
94187788340567: add dword ptr [rax], eax; add byte ptr [rax - 0x77], cl; ret 0x8948; 
94187788340566: cmpsb byte ptr [rsi], byte ptr [rdi]; add dword ptr [rax], eax; add byte ptr [rax - 0x77], cl; ret 0x8948; 
94187788341054: call qword ptr [rax + 0x24448948]; 
94187788333170: ret; 
94187788333169: pop rdi; ret; 
94187788333168: pop r15; ret; 
94187788333167: pop rsi; pop r15; ret; 
94187788333166: pop r14; pop r15; ret; 
94187788333165: pop rbp; pop r14; pop r15; ret; 
94187788333164: pop r13; pop r14; pop r15; ret; 
94187788333163: pop rsp; pop r13; pop r14; pop r15; ret; 
94187788333162: pop r12; pop r13; pop r14; pop r15; ret; 
94187788333362: ret; 
94187788333359: add byte ptr [rax - 0x77], cl; ret; 
94187788333357: add al, byte ptr [rax]; add byte ptr [rax - 0x77], cl; ret; 
94187788333355: test cl, dl; add al, byte ptr [rax]; add byte ptr [rax - 0x77], cl; ret; 
94187788333503: ret; 
94187788334031: ret; 
94187788334030: pop rdi; ret; 
94187788334029: pop r15; ret; 
94187788334028: pop rsi; pop r15; ret; 
94187788334027: pop r14; pop r15; ret; 
94187788334026: pop rbp; pop r14; pop r15; ret; 
94187788334025: pop r13; pop r14; pop r15; ret; 
94187788334024: pop rsp; pop r13; pop r14; pop r15; ret; 
94187788334023: pop r12; pop r13; pop r14; pop r15; ret; 
94187788334629: ret; 
94187788334628: pop rdi; ret; 
94187788334627: pop r15; ret; 
94187788334626: pop rsi; pop r15; ret; 
94187788334625: pop r14; pop r15; ret; 
94187788334624: pop rbp; pop r14; pop r15; ret; 
94187788334623: pop r13; pop r14; pop r15; ret; 
94187788334622: pop rsp; pop r13; pop r14; pop r15; ret; 
94187788334621: pop r12; pop r13; pop r14; pop r15; ret; 
94187788335815: ret; 
94187788335814: cmpsb byte ptr [rsi], byte ptr [rdi]; ret; 
94187788335812: and al, 0xe8; cmpsb byte ptr [rsi], byte ptr [rdi]; ret; 
94187788336268: ret; 
94187788336267: sti; ret; 
94187788336264: lea eax, dword ptr [rax + rax*4 - 5]; ret; 
94187788336263: lea rax, qword ptr [rax + rax*4 - 5]; ret; 
94187788336261: mov dh, 0xc0; lea rax, qword ptr [rax + rax*4 - 5]; ret; 
94187788336260: movzx eax, al; lea rax, qword ptr [rax + rax*4 - 5]; ret; 
94187788336257: sete al; movzx eax, al; lea rax, qword ptr [rax + rax*4 - 5]; ret; 
94187788336254: cmp dword ptr [rdi + 4], eax; sete al; movzx eax, al; lea rax, qword ptr [rax + rax*4 - 5]; ret; 
94187788336320: ret; 
94187788336319: sti; ret; 
94187788336317: and eax, 0xfffffffb; ret; 
94187788336316: and rax, 0xfffffffffffffffb; ret; 
94187788336314: not eax; and rax, 0xfffffffffffffffb; ret; 
94187788336313: not rax; and rax, 0xfffffffffffffffb; ret; 
94187788336312: ror byte ptr [rax - 9], 0xd0; and rax, 0xfffffffffffffffb; ret; 
94187788336311: sbb eax, eax; not rax; and rax, 0xfffffffffffffffb; ret; 
94187788336310: sbb rax, rax; not rax; and rax, 0xfffffffffffffffb; ret; 
94187788336309: add dword ptr [rax + 0x19], ecx; ror byte ptr [rax - 9], 0xd0; and rax, 0xfffffffffffffffb; ret; 
94187788336308: clc; add dword ptr [rax + 0x19], ecx; ror byte ptr [rax - 9], 0xd0; and rax, 0xfffffffffffffffb; ret; 
94187788336307: cmp eax, 1; sbb rax, rax; not rax; and rax, 0xfffffffffffffffb; ret; 
94187788336306: cmp rax, 1; sbb rax, rax; not rax; and rax, 0xfffffffffffffffb; ret; 
94187788336397: ret; 
94187788336396: sti; ret; 
94187788336394: and eax, 0xfffffffb; ret; 
94187788336393: and rax, 0xfffffffffffffffb; ret; 
94187788336391: not eax; and rax, 0xfffffffffffffffb; ret; 
94187788336390: not rax; and rax, 0xfffffffffffffffb; ret; 
94187788336387: add esp, 8; not rax; and rax, 0xfffffffffffffffb; ret; 
94187788336386: add rsp, 8; not rax; and rax, 0xfffffffffffffffb; ret; 
94187788336384: sbb eax, eax; add rsp, 8; not rax; and rax, 0xfffffffffffffffb; ret; 
94187788336383: sbb rax, rax; add rsp, 8; not rax; and rax, 0xfffffffffffffffb; ret; 
94187788336407: ret; 
94187788336401: mov eax, 0xfffffffb; ret; 
94187788336400: mov rax, -5; ret; 
94187788336399: nop; mov rax, -5; ret; 
94187788336398: nop; mov rax, -5; ret; 
94187788336397: ret; 
94187788336441: ret; 
94187788336438: or dh, byte ptr [rbp + 7]; ret; 
94187788336437: cli; or dh, byte ptr [rbp + 7]; ret; 
94187788336434: or byte ptr [rsi - 0x7d], ah; cli; or dh, byte ptr [rbp + 7]; ret; 
94187788336448: ret; 
94187788336446: add byte ptr [rax], al; ret; 
94187788336445: add byte ptr [rax], r8b; ret; 
94187788336443: nop dword ptr [rax + rax]; ret; 
94187788336442: nop word ptr [rax + rax]; ret; 
94187788336441: ret; 
94187788336487: ret; 
94187788336484: or dh, byte ptr [rbp + 9]; ret; 
94187788336483: clc; or dh, byte ptr [rbp + 9]; ret; 
94187788336480: add ah, byte ptr [rsi - 0x7d]; clc; or dh, byte ptr [rbp + 9]; ret; 
94187788336496: ret; 
94187788336494: add byte ptr [rax], al; ret; 
94187788336492: add byte ptr [rax], al; add byte ptr [rax], al; ret; 
94187788336490: test byte ptr [rax], al; add byte ptr [rax], al; add byte ptr [rax], al; ret; 
94187788336488: nop dword ptr [rax + rax]; ret; 
94187788336487: ret; 
94187788336623: ret; 
94187788336622: pop rdi; ret; 
94187788336621: pop r15; ret; 
94187788336620: pop rsi; pop r15; ret; 
94187788336619: pop r14; pop r15; ret; 
94187788336618: pop rbp; pop r14; pop r15; ret; 
94187788336617: pop r13; pop r14; pop r15; ret; 
94187788336616: pop rsp; pop r13; pop r14; pop r15; ret; 
94187788336615: pop r12; pop r13; pop r14; pop r15; ret; 
94187788336814: ret; 
94187788336813: pop rsi; ret; 
94187788336812: pop r14; ret; 
94187788336811: pop rbp; pop r14; ret; 
94187788336810: pop r13; pop r14; ret; 
94187788336809: pop rsp; pop r13; pop r14; ret; 
94187788336808: pop r12; pop r13; pop r14; ret; 
94187788336807: pop rbp; pop r12; pop r13; pop r14; ret; 
94187788336806: call 0x55aa0f06c008; pop rbp; pop r14; ret; 
94187788337020: ret; 
94187788337019: pop rdi; ret; 
94187788337018: pop r15; ret; 
94187788337017: pop rsi; pop r15; ret; 
94187788337016: pop r14; pop r15; ret; 
94187788337015: pop rbp; pop r14; pop r15; ret; 
94187788337014: pop r13; pop r14; pop r15; ret; 
94187788337013: pop rsp; pop r13; pop r14; pop r15; ret; 
94187788337012: pop r12; pop r13; pop r14; pop r15; ret; 
94187788337137: ret; 
94187788337136: pop rsi; ret; 
94187788337135: pop r14; ret; 
94187788337134: pop rbp; pop r14; ret; 
94187788337133: pop r13; pop r14; ret; 
94187788337132: pop rsp; pop r13; pop r14; ret; 
94187788337131: pop r12; pop r13; pop r14; ret; 
94187788337130: pop rbp; pop r12; pop r13; pop r14; ret; 
94187788337129: call 0x55aa0f06c14b; pop rbp; pop r14; ret; 
94187788337145: ret; 
94187788337143: add al, ch; ret; 
94187788337137: ret; 
94187788333273: jmp qword ptr [rsi + 0xf]; 
94187788334838: jmp qword ptr [rsi + 0xf]; 
94187788334861: jmp qword ptr [rsi - 0x70]; 
94187788334941: jmp qword ptr [rsi - 0x70]; 
94187788335577: jmp qword ptr [rsi + 0xf]; 
94187788336196: jmp qword ptr [rsi + 0x66]; 
94187788333717: ret 0x15b9; 
94187788333714: add byte ptr [rax - 0x77], cl; ret 0x15b9; 
94187788333712: add byte ptr [rax], al; add byte ptr [rax - 0x77], cl; ret 0x15b9; 
94187788333906: ret 0x8948; 
94187788333903: add byte ptr [rax - 0x77], cl; ret 0x8948; 
94187788333901: add byte ptr [rax], al; add byte ptr [rax - 0x77], cl; ret 0x8948; 
94187788334291: ret 0x4801; 
94187788334288: add byte ptr [rax - 0x7d], cl; ret 0x4801; 
94187788334286: add dword ptr [rax], eax; add byte ptr [rax - 0x7d], cl; ret 0x4801; 
94187788334295: ret 0xee75; 
94187788334292: add dword ptr [rax + 0x39], ecx; ret 0xee75; 
94187788334291: ret 0x4801; 
94187788335211: ret 0x4801; 
94187788335208: add byte ptr [rax - 0x7d], cl; ret 0x4801; 
94187788335206: add al, byte ptr [rax]; add byte ptr [rax - 0x7d], cl; ret 0x4801; 
94187788335205: iretd; add al, byte ptr [rax]; add byte ptr [rax - 0x7d], cl; ret 0x4801; 
94187788335204: test bh, cl; add al, byte ptr [rax]; add byte ptr [rax - 0x7d], cl; ret 0x4801; 
94187788335199: or dword ptr [rax - 0x7bf0d0c6], eax; iretd; add al, byte ptr [rax]; add byte ptr [rax - 0x7d], cl; ret 0x4801; 
94187788335215: ret 0xee75; 
94187788335212: add dword ptr [rax + 0x39], ecx; ret 0xee75; 
94187788335211: ret 0x4801; 
94187788334094: call qword ptr [rax + 0x56415741]; 
94187788335070: call qword ptr [rax + 0xabf41]; 
94187788304462: ret; 
94187788304461: pop rsp; ret; 
94187788304460: pop r12; ret; 
94187788304459: pop rbp; pop r12; ret; 
94187788304458: pop rbx; pop rbp; pop r12; ret; 
94187788304457: add byte ptr [rbx + 0x5d], bl; pop r12; ret; 
94187788304456: add byte ptr [rax], al; pop rbx; pop rbp; pop r12; ret; 
94187788304455: or byte ptr [rax], al; add byte ptr [rbx + 0x5d], bl; pop r12; ret; 
94187788304452: add esp, 0x8e0; pop rbx; pop rbp; pop r12; ret; 
94187788304451: add rsp, 0x8e0; pop rbx; pop rbp; pop r12; ret; 
94187788304450: sbb eax, 0xe0c48148; or byte ptr [rax], al; add byte ptr [rbx + 0x5d], bl; pop r12; ret; 
94187788304571: ret; 
94187788304568: add esp, 8; ret; 
94187788304567: add rsp, 8; ret; 
94187788304562: add eax, 0xfa229; add rsp, 8; ret; 
94187788304561: lea eax, dword ptr [rip + 0xfa229]; add rsp, 8; ret; 
94187788304560: lea rax, qword ptr [rip + 0xfa229]; add rsp, 8; ret; 
94187788304559: adc byte ptr [rax - 0x73], cl; add eax, 0xfa229; add rsp, 8; ret; 
94187788304557: push qword ptr [rax + rdx + 0x48]; lea eax, dword ptr [rip + 0xfa229]; add rsp, 8; ret; 
94187788304556: clc; push qword ptr [rax + rdx + 0x48]; lea eax, dword ptr [rip + 0xfa229]; add rsp, 8; ret; 
94187788304554: add byte ptr [rbx + 0x1074fff8], al; lea rax, qword ptr [rip + 0xfa229]; add rsp, 8; ret; 
94187788304553: sldt word ptr [rbx + 0x1074fff8]; lea rax, qword ptr [rip + 0xfa229]; add rsp, 8; ret; 
94187788304552: movabs eax, dword ptr [0x481074fff883000f]; lea eax, dword ptr [rip + 0xfa229]; add rsp, 8; ret; 
94187788304551: cmc; movabs eax, dword ptr [0x481074fff883000f]; lea eax, dword ptr [rip + 0xfa229]; add rsp, 8; ret; 
94187788304548: dec dword ptr [rcx + 0xfa1f505]; add byte ptr [rbx + 0x1074fff8], al; lea rax, qword ptr [rip + 0xfa229]; add rsp, 8; ret; 
94187788304625: ret; 
94187788304622: add esp, 8; ret; 
94187788304621: add rsp, 8; ret; 
94187788304619: add byte ptr [rax], al; add rsp, 8; ret; 
94187788304617: add al, byte ptr [rax]; add byte ptr [rax], al; add rsp, 8; ret; 
94187788304612: add eax, 0xfa1b3; add al, byte ptr [rax]; add byte ptr [rax], al; add rsp, 8; ret; 
94187788304611: mov dword ptr [rip + 0xfa1b3], 2; add rsp, 8; ret; 
94187788304680: ret; 
94187788304681: ret; 
94187788304680: ret; 
94187788304718: ret; 
94187788304717: pop rsp; ret; 
94187788304716: pop r12; ret; 
94187788304715: pop rbp; pop r12; ret; 
94187788304714: pop rbx; pop rbp; pop r12; ret; 
94187788304713: rcr byte ptr [rbx + 0x5d], 0x41; pop rsp; ret; 
94187788304712: xor eax, eax; pop rbx; pop rbp; pop r12; ret; 
94187788304711: or byte ptr [rcx], dh; rcr byte ptr [rbx + 0x5d], 0x41; pop rsp; ret; 
94187788304709: sal byte ptr [rax + rcx + 0x31], 0xc0; pop rbx; pop rbp; pop r12; ret; 
94187788304872: ret; 
94187788304871: pop rbp; ret; 
94187788304870: pop rbx; pop rbp; ret; 
94187788304869: fcomp dword ptr [rbx + 0x5d]; ret; 
94187788304868: mov eax, ebx; pop rbx; pop rbp; ret; 
94187788304867: mov rax, rbx; pop rbx; pop rbp; ret; 
94187788304866: or byte ptr [rax - 0x77], cl; fcomp dword ptr [rbx + 0x5d]; ret; 
94187788304864: add esp, 8; mov rax, rbx; pop rbx; pop rbp; ret; 
94187788304863: add rsp, 8; mov rax, rbx; pop rbx; pop rbp; ret; 
94187788304924: ret; 
94187788304921: adc byte ptr [rax - 0x39], cl; ret; 
94187788305316: ret; 
94187788305315: pop rdi; ret; 
94187788305314: pop r15; ret; 
94187788305313: pop rsi; pop r15; ret; 
94187788305312: pop r14; pop r15; ret; 
94187788305311: pop rbp; pop r14; pop r15; ret; 
94187788305310: pop r13; pop r14; pop r15; ret; 
94187788305309: pop rsp; pop r13; pop r14; pop r15; ret; 
94187788305308: pop r12; pop r13; pop r14; pop r15; ret; 
94187788306140: ret; 
94187788306137: add esp, 0x18; ret; 
94187788306136: add rsp, 0x18; ret; 
94187788306135: add eax, 0x18c48348; ret; 
94187788306133: add byte ptr [rbp + 5], dh; add rsp, 0x18; ret; 
94187788306131: add byte ptr [rax], al; add byte ptr [rbp + 5], dh; add rsp, 0x18; ret; 
94187788306290: ret; 
94187788306289: pop rsp; ret; 
94187788306288: pop r12; ret; 
94187788306287: pop rbp; pop r12; ret; 
94187788306286: pop rbx; pop rbp; pop r12; ret; 
94187788306285: adc byte ptr [rbx + 0x5d], bl; pop r12; ret; 
94187788306284: adc byte ptr [rbx + 0x5d], bl; pop r12; ret; 
94187788306283: mov dword ptr [rdx + 0x10], eax; pop rbx; pop rbp; pop r12; ret; 
94187788306282: mov qword ptr [rdx + 0x10], r8; pop rbx; pop rbp; pop r12; ret; 
94187788306281: fimul word ptr [rcx + rcx*4 + 0x42]; adc byte ptr [rbx + 0x5d], bl; pop r12; ret; 
94187788306340: ret; 
94187788306339: pop rbp; ret; 
94187788306338: pop rbx; pop rbp; ret; 
94187788306337: or byte ptr [rbx + 0x5d], bl; ret; 
94187788306335: add esp, 8; pop rbx; pop rbp; ret; 
94187788306334: add rsp, 8; pop rbx; pop rbp; ret; 
94187788306331: push qword ptr [rdx + rcx + 0x48]; add esp, 8; pop rbx; pop rbp; ret; 
94187788306589: ret; 
94187788306588: pop rbp; ret; 
94187788306587: pop rbx; pop rbp; ret; 
94187788306585: mov eax, ebp; pop rbx; pop rbp; ret; 
94187788306584: mov rax, rbp; pop rbx; pop rbp; ret; 
94187788306581: add esp, 8; mov rax, rbp; pop rbx; pop rbp; ret; 
94187788306580: add rsp, 8; mov rax, rbp; pop rbx; pop rbp; ret; 
94187788306621: ret; 
94187788306620: pop rbp; ret; 
94187788306619: pop rbx; pop rbp; ret; 
94187788306617: mov eax, ebp; pop rbx; pop rbp; ret; 
94187788306616: mov rax, rbp; pop rbx; pop rbp; ret; 
94187788306613: add esp, 8; mov rax, rbp; pop rbx; pop rbp; ret; 
94187788306612: add rsp, 8; mov rax, rbp; pop rbx; pop rbp; ret; 
94187788306771: ret; 
94187788306770: pop rbp; ret; 
94187788306769: pop rbx; pop rbp; ret; 
94187788306768: or byte ptr [rbx + 0x5d], bl; ret; 
94187788306766: add esp, 8; pop rbx; pop rbp; ret; 
94187788306765: add rsp, 8; pop rbx; pop rbp; ret; 
94187788306762: mov dword ptr [rax + 0x20], ebx; add rsp, 8; pop rbx; pop rbp; ret; 
94187788306761: mov qword ptr [rax + 0x20], rbx; add rsp, 8; pop rbx; pop rbp; ret; 
94187788306760: mov qword ptr [rax + 0x20], rbx; add rsp, 8; pop rbx; pop rbp; ret; 
94187788307096: ret; 
94187788307095: pop rsp; ret; 
94187788307094: pop r12; ret; 
94187788307093: pop rbp; pop r12; ret; 
94187788307092: pop rbx; pop rbp; pop r12; ret; 
94187788307091: in al, dx; pop rbx; pop rbp; pop r12; ret; 
94187788307210: ret; 
94187788307209: pop rbp; ret; 
94187788307208: pop rbx; pop rbp; ret; 
94187788307207: or byte ptr [rbx + 0x5d], bl; ret; 
94187788307205: add esp, 8; pop rbx; pop rbp; ret; 
94187788307204: add rsp, 8; pop rbx; pop rbp; ret; 
94187788307202: add byte ptr [rax], al; add rsp, 8; pop rbx; pop rbp; ret; 
94187788307286: ret; 
94187788307284: mov dword ptr [rdx], esi; ret; 
94187788307283: mov qword ptr [rdx], rsi; ret; 
94187788307281: add esi, eax; mov qword ptr [rdx], rsi; ret; 
94187788307280: add rsi, rax; mov qword ptr [rdx], rsi; ret; 
94187788307374: ret; 
94187788307372: mov dword ptr [rdx], esi; ret; 
94187788307371: mov qword ptr [rdx], rsi; ret; 
94187788307369: add esi, eax; mov qword ptr [rdx], rsi; ret; 
94187788307368: add rsi, rax; mov qword ptr [rdx], rsi; ret; 
94187788307367: call 0x55aa16700cf4; mov dword ptr [rdx], esi; ret; 
94187788307501: ret; 
94187788307500: pop rbp; ret; 
94187788307499: pop rbx; pop rbp; ret; 
94187788307497: mov eax, ebp; pop rbx; pop rbp; ret; 
94187788307496: mov rax, rbp; pop rbx; pop rbp; ret; 
94187788307493: add esp, 8; mov rax, rbp; pop rbx; pop rbp; ret; 
94187788307492: add rsp, 8; mov rax, rbp; pop rbx; pop rbp; ret; 
94187788307606: ret; 
94187788307605: pop rbx; ret; 
94187788307603: xor eax, eax; pop rbx; ret; 
94187788307601: add byte ptr [rax], al; xor eax, eax; pop rbx; ret; 
94187788307599: add byte ptr [rax], al; add byte ptr [rax], al; xor eax, eax; pop rbx; ret; 
94187788307596: mov dword ptr [rbx + 8], 0; xor eax, eax; pop rbx; ret; 
94187788307595: mov qword ptr [rbx + 8], 0; xor eax, eax; pop rbx; ret; 
94187788307590: call 0x55a9cda9c7f0; mov qword ptr [rbx + 8], 0; xor eax, eax; pop rbx; ret; 
94187788307624: ret; 
94187788307623: pop rbx; ret; 
94187788307617: mov eax, 0xfffffffb; pop rbx; ret; 
94187788307616: mov rax, -5; pop rbx; ret; 
94187788307614: add byte ptr [rax], al; mov rax, -5; pop rbx; ret; 
94187788307612: add byte ptr [rax], al; add byte ptr [rax], al; mov rax, -5; pop rbx; ret; 
94187788307701: ret; 
94187788307700: pop rbx; ret; 
94187788307698: mov eax, ecx; pop rbx; ret; 
94187788307697: mov rax, rcx; pop rbx; ret; 
94187788307696: ror dword ptr [rax - 0x77], -0x38; pop rbx; ret; 
94187788307695: mov ecx, eax; mov rax, rcx; pop rbx; ret; 
94187788307694: mov rcx, rax; mov rax, rcx; pop rbx; ret; 
94187788307693: dec dword ptr [rax - 0x77]; ror dword ptr [rax - 0x77], -0x38; pop rbx; ret; 
94187788307691: mov ah, 0xff; dec dword ptr [rax - 0x77]; ror dword ptr [rax - 0x77], -0x38; pop rbx; ret; 
94187788307689: call 0x55a9cda9c170; mov rcx, rax; mov rax, rcx; pop rbx; ret; 
94187788307739: ret; 
94187788307734: sal byte ptr [rbx + rcx*2 + 0x48], 0x89; ret; 
94187788307731: dec dword ptr [rax - 0x7b]; sal byte ptr [rbx + rcx*2 + 0x48], 0x89; ret; 
94187788307788: ret; 
94187788307787: pop rsp; ret; 
94187788307786: pop r12; ret; 
94187788307785: pop rbp; pop r12; ret; 
94187788307784: pop rbx; pop rbp; pop r12; ret; 
94187788307783: fcomp dword ptr [rbx + 0x5d]; pop r12; ret; 
94187788307782: mov eax, ebx; pop rbx; pop rbp; pop r12; ret; 
94187788307781: mov rax, rbx; pop rbx; pop rbp; pop r12; ret; 
94187788307780: sub ecx, dword ptr [rax - 0x77]; fcomp dword ptr [rbx + 0x5d]; pop r12; ret; 
94187788307821: ret; 
94187788307820: pop rsp; ret; 
94187788307819: pop r12; ret; 
94187788307818: pop rbp; pop r12; ret; 
94187788307817: pop rbx; pop rbp; pop r12; ret; 
94187788307816: fcomp dword ptr [rbx + 0x5d]; pop r12; ret; 
94187788307815: mov eax, ebx; pop rbx; pop rbp; pop r12; ret; 
94187788307814: mov rax, rbx; pop rbx; pop rbp; pop r12; ret; 
94187788307813: fisttp dword ptr [rax - 0x77]; fcomp dword ptr [rbx + 0x5d]; pop r12; ret; 
94187788307855: ret; 
94187788307854: pop rsp; ret; 
94187788307853: pop r12; ret; 
94187788307852: pop rbp; pop r12; ret; 
94187788307851: pop rbx; pop rbp; pop r12; ret; 
94187788307850: fcomp dword ptr [rbx + 0x5d]; pop r12; ret; 
94187788307849: mov eax, ebx; pop rbx; pop rbp; pop r12; ret; 
94187788307848: mov rax, rbx; pop rbx; pop rbp; pop r12; ret; 
94187788307847: dec dword ptr [rax - 0x77]; fcomp dword ptr [rbx + 0x5d]; pop r12; ret; 
94187788307915: ret; 
94187788307914: pop rbx; ret; 
94187788307912: add byte ptr [rax], al; pop rbx; ret; 
94187788307910: add byte ptr [rax], al; add byte ptr [rax], al; pop rbx; ret; 
94187788307908: mov dword ptr [rbx], 0; pop rbx; ret; 
94187788307907: mov qword ptr [rbx], 0; pop rbx; ret; 
94187788307903: mov ebp, 0x48fffff9; mov dword ptr [rbx], 0; pop rbx; ret; 
94187788307902: call 0x55a9cdaa0780; mov qword ptr [rbx], 0; pop rbx; ret; 
94187788307974: ret; 
94187788307973: pop rbp; ret; 
94187788307972: pop rbx; pop rbp; ret; 
94187788307971: or byte ptr [rbx + 0x5d], bl; ret; 
94187788307969: add esp, 8; pop rbx; pop rbp; ret; 
94187788307968: add rsp, 8; pop rbx; pop rbp; ret; 
94187788307967: add rsp, 8; pop rbx; pop rbp; ret; 
94187788307965: push qword ptr [rax + rax*2 + 0x48]; add esp, 8; pop rbx; pop rbp; ret; 
94187788308174: ret; 
94187788308221: ret; 
94187788308220: pop rbp; ret; 
94187788308219: pop r13; ret; 
94187788308218: pop rsp; pop r13; ret; 
94187788308217: pop r12; pop r13; ret; 
94187788308216: pop rbp; pop r12; pop r13; ret; 
94187788308215: pop rbx; pop rbp; pop r12; pop r13; ret; 
94187788308214: fcomp dword ptr [rbx + 0x5d]; pop r12; pop r13; ret; 
94187788308239: ret; 
94187788308238: pop rbp; ret; 
94187788308237: pop r13; ret; 
94187788308236: pop rsp; pop r13; ret; 
94187788308235: pop r12; pop r13; ret; 
94187788308234: pop rbp; pop r12; pop r13; ret; 
94187788308233: pop rbx; pop rbp; pop r12; pop r13; ret; 
94187788308232: fcomp dword ptr [rbx + 0x5d]; pop r12; pop r13; ret; 
94187788308276: ret; 
94187788308283: ret; 
94187788308281: mov dword ptr [rcx], edi; ret; 
94187788308280: mov qword ptr [rcx], rdi; ret; 
94187788308277: nop dword ptr [rax]; mov qword ptr [rcx], rdi; ret; 
94187788308276: ret; 
94187788308354: ret; 
94187788308353: pop rbp; ret; 
94187788308352: pop rbx; pop rbp; ret; 
94187788308350: mov eax, ecx; pop rbx; pop rbp; ret; 
94187788308349: mov rax, rcx; pop rbx; pop rbp; ret; 
94187788308346: add esp, 8; mov rax, rcx; pop rbx; pop rbp; ret; 
94187788308345: add rsp, 8; mov rax, rcx; pop rbx; pop rbp; ret; 
94187788306820: call rdx; 
94187788306818: jnp 0x55a9cdaa098c; call rdx; 
94187788306817: mov edi, dword ptr [rbx + 8]; call rdx; 
94187788306816: mov rdi, qword ptr [rbx + 8]; call rdx; 
94187788304484: jmp qword ptr [rsi + 0x66]; 
94187788306145: jmp qword ptr [rsi + 0x2e]; 
94187788306393: jmp qword ptr [rsi + 0xf]; 
94187788307300: jmp qword ptr [rsi + 0x66]; 
94187788307380: jmp qword ptr [rsi + 0x66]; 
94187788308081: jmp qword ptr [rsi + 0xf]; 
94187788308468: jmp qword ptr [rsi + 0x66]; 
94187788304474: ret 0xfff9; 
94187788305066: ret 0xda80; 
94187788305065: xchg eax, edi; ret 0xda80; 
94187788305097: ret 0xda80; 
94187788305096: xchg eax, edi; ret 0xda80; 
94187788305464: ret 0x4801; 
94187788305461: add byte ptr [rax - 0x7d], cl; ret 0x4801; 
94187788305459: add byte ptr [rax], al; add byte ptr [rax - 0x7d], cl; ret 0x4801; 
94187788305457: test dl, bl; add byte ptr [rax], al; add byte ptr [rax - 0x7d], cl; ret 0x4801; 
94187788305453: or byte ptr [rbp - 0x257bf040], al; add byte ptr [rax], al; add byte ptr [rax - 0x7d], cl; ret 0x4801; 
94187788305549: ret 0x4808; 
94187788305554: ret 0xde5; 
94187788305549: ret 0x4808; 
94187788305565: ret 0x854d; 
94187788305802: ret 0; 
94187788305921: ret 0x69e8; 
94187788308273: ret 0x474; 
94187788308270: sub byte ptr [rax + 0x39], cl; ret 0x474; 
94187788308269: sub byte ptr [r8 + 0x39], r9b; ret 0x474; 
94187788308290: ret 0x8948; 
94187788308287: add byte ptr [rax + 0x29], cl; ret 0x8948; 
94187788308286: add byte ptr [rax + 0x29], cl; ret 0x8948; 
94187788305742: call qword ptr [rax + 0x10688349]; 
94187788306014: call qword ptr [rax + 0x48e88949]; 
94187788353569: ret; 
94187788353567: and byte ptr [rax], al; ret; 
94187788353566: and byte ptr [rax], al; ret; 
94187788353565: mov byte ptr [rax + 0x20], 0; ret; 
94187788353564: inc esi; and byte ptr [rax], al; ret; 
94187788353561: sub eax, 0xc6ffffff; and byte ptr [rax], al; ret; 
94187788353560: test dword ptr [rip - 0x39000001], ebp; and byte ptr [rax], al; ret; 
94187788353642: ret; 
94187788353640: add byte ptr [rax], al; ret; 
94187788353638: add byte ptr [rax], al; add byte ptr [rax], al; ret; 
94187788353636: mov dword ptr [rsi], 0; ret; 
94187788353635: mov qword ptr [rsi], 0; ret; 
94187788353633: add byte ptr [rax], al; mov qword ptr [rsi], 0; ret; 
94187788353631: add byte ptr [rax], al; add byte ptr [rax], al; mov qword ptr [rsi], 0; ret; 
94187788353628: mov dword ptr [rsi + 0x18], 0; mov qword ptr [rsi], 0; ret; 
94187788353627: mov qword ptr [rsi + 0x18], 0; mov qword ptr [rsi], 0; ret; 
94187788353625: add byte ptr [rax], al; mov qword ptr [rsi + 0x18], 0; mov qword ptr [rsi], 0; ret; 
94187788353623: add byte ptr [rax], al; add byte ptr [rax], al; mov qword ptr [rsi + 0x18], 0; mov qword ptr [rsi], 0; ret; 
94187788353620: mov dword ptr [rsi + 0x10], 0; mov qword ptr [rsi + 0x18], 0; mov qword ptr [rsi], 0; ret; 
94187788353619: mov qword ptr [rsi + 0x10], 0; mov qword ptr [rsi + 0x18], 0; mov qword ptr [rsi], 0; ret; 
94187788353617: add byte ptr [rax], al; mov qword ptr [rsi + 0x10], 0; mov qword ptr [rsi + 0x18], 0; mov qword ptr [rsi], 0; ret; 
94187788354396: ret; 
94187788354395: hlt; ret; 
94187788354393: sal dword ptr [rbp - 0xc], 1; ret; 
94187788354390: or byte ptr [rax + 0x39], cl; sal dword ptr [rbp - 0xc], 1; ret; 
94187788354389: push rax; or byte ptr [rax + 0x39], cl; sal dword ptr [rbp - 0xc], 1; ret; 
94187788354386: ror byte ptr [rax - 0x75], 1; push rax; or byte ptr [rax + 0x39], cl; sal dword ptr [rbp - 0xc], 1; ret; 
94187788354428: ret; 
94187788354426: xor eax, eax; ret; 
94187788354425: out dx, al; xor eax, eax; ret; 
94187788354432: ret; 
94187788354429: nop dword ptr [rax]; ret; 
94187788354428: ret; 
94187788354464: ret; 
94187788354461: mov dword ptr [rdi + 0x10], edx; ret; 
94187788354460: mov qword ptr [rdi + 0x10], rdx; ret; 
94187788354458: mov edx, dword ptr [rax]; mov qword ptr [rdi + 0x10], rdx; ret; 
94187788354457: mov rdx, qword ptr [rax]; mov qword ptr [rdi + 0x10], rdx; ret; 
94187788354517: ret; 
94187788354516: pop rbp; ret; 
94187788354515: pop rbx; pop rbp; ret; 
94187788354514: or byte ptr [rbx + 0x5d], bl; ret; 
94187788354512: add esp, 8; pop rbx; pop rbp; ret; 
94187788354511: add rsp, 8; pop rbx; pop rbp; ret; 
94187788354508: mov dword ptr [rbx + 0x20], edx; add rsp, 8; pop rbx; pop rbp; ret; 
94187788354507: mov qword ptr [rbx + 0x20], rdx; add rsp, 8; pop rbx; pop rbp; ret; 
94187788354787: ret; 
94187788354786: pop rdi; ret; 
94187788354785: pop r15; ret; 
94187788354784: pop rsi; pop r15; ret; 
94187788354783: pop r14; pop r15; ret; 
94187788354782: pop rbp; pop r14; pop r15; ret; 
94187788354781: pop r13; pop r14; pop r15; ret; 
94187788354780: pop rsp; pop r13; pop r14; pop r15; ret; 
94187788354779: pop r12; pop r13; pop r14; pop r15; ret; 
94187788354813: ret; 
94187788354812: pop rdi; ret; 
94187788354811: pop r15; ret; 
94187788354810: pop rsi; pop r15; ret; 
94187788354809: pop r14; pop r15; ret; 
94187788354808: pop rbp; pop r14; pop r15; ret; 
94187788354807: pop r13; pop r14; pop r15; ret; 
94187788354806: pop rsp; pop r13; pop r14; pop r15; ret; 
94187788354805: pop r12; pop r13; pop r14; pop r15; ret; 
94187788355045: ret; 
94187788355044: pop rdi; ret; 
94187788355043: pop r15; ret; 
94187788355042: pop rsi; pop r15; ret; 
94187788355041: pop r14; pop r15; ret; 
94187788355040: pop rbp; pop r14; pop r15; ret; 
94187788355039: pop r13; pop r14; pop r15; ret; 
94187788355038: pop rsp; pop r13; pop r14; pop r15; ret; 
94187788355037: pop r12; pop r13; pop r14; pop r15; ret; 
94187788355199: ret; 
94187788355193: mov eax, 0xffffffff; ret; 
94187788355192: mov rax, -1; ret; 
94187788355189: sal byte ptr [rbp - 0x18], 0x48; mov eax, 0xffffffff; ret; 
94187788355200: ret; 
94187788355199: ret; 
94187788355231: ret; 
94187788355229: xor eax, eax; ret; 
94187788355222: mov dword ptr [rcx + 0x18], 0xffffffff; xor eax, eax; ret; 
94187788355221: mov qword ptr [rcx + 0x18], -1; xor eax, eax; ret; 
94187788355218: push qword ptr [rbx + 0x48]; mov dword ptr [rcx + 0x18], 0xffffffff; xor eax, eax; ret; 
94187788355216: jns 0x55a9cdaac6aa; push qword ptr [rbx + 0x48]; mov dword ptr [rcx + 0x18], 0xffffffff; xor eax, eax; ret; 
94187788355325: ret; 
94187788355323: xor eax, eax; ret; 
94187788355320: mov dword ptr [rdi + 0x10], ecx; xor eax, eax; ret; 
94187788355319: mov qword ptr [rdi + 0x10], rcx; xor eax, eax; ret; 
94187788355318: leave; mov qword ptr [rdi + 0x10], rcx; xor eax, eax; ret; 
94187788355316: add bl, ch; leave; mov qword ptr [rdi + 0x10], rcx; xor eax, eax; ret; 
94187788355384: ret; 
94187788355381: push qword ptr [rbp - 0x20]; ret; 
94187788355535: ret; 
94187788355534: pop rdi; ret; 
94187788355533: pop r15; ret; 
94187788355532: pop rsi; pop r15; ret; 
94187788355531: pop r14; pop r15; ret; 
94187788355530: pop rbp; pop r14; pop r15; ret; 
94187788355529: pop r13; pop r14; pop r15; ret; 
94187788355528: pop rsp; pop r13; pop r14; pop r15; ret; 
94187788355527: pop r12; pop r13; pop r14; pop r15; ret; 
94187788355669: ret; 
94187788355668: pop rdi; ret; 
94187788355667: pop r15; ret; 
94187788355666: pop rsi; pop r15; ret; 
94187788355665: pop r14; pop r15; ret; 
94187788355664: pop rbp; pop r14; pop r15; ret; 
94187788355663: pop r13; pop r14; pop r15; ret; 
94187788355662: pop rsp; pop r13; pop r14; pop r15; ret; 
94187788355661: pop r12; pop r13; pop r14; pop r15; ret; 
94187788355780: ret; 
94187788355774: mov eax, 0xffffffff; ret; 
94187788355773: mov rax, -1; ret; 
94187788355812: ret; 
94187788355810: xor eax, eax; ret; 
94187788355803: mov dword ptr [rcx + 0x18], 0xffffffff; xor eax, eax; ret; 
94187788355802: mov qword ptr [rcx + 0x18], -1; xor eax, eax; ret; 
94187788355799: push qword ptr [rbx + 0x48]; mov dword ptr [rcx + 0x18], 0xffffffff; xor eax, eax; ret; 
94187788355797: jns 0x55a9cdaac8ef; push qword ptr [rbx + 0x48]; mov dword ptr [rcx + 0x18], 0xffffffff; xor eax, eax; ret; 
94187788355794: adc eax, 0x18798348; push qword ptr [rbx + 0x48]; mov dword ptr [rcx + 0x18], 0xffffffff; xor eax, eax; ret; 
94187788355909: ret; 
94187788355907: xor eax, eax; ret; 
94187788355904: mov dword ptr [rdi + 0x10], ecx; xor eax, eax; ret; 
94187788355903: mov qword ptr [rdi + 0x10], rcx; xor eax, eax; ret; 
94187788355902: leave; mov qword ptr [rdi + 0x10], rcx; xor eax, eax; ret; 
94187788355900: add bl, ch; leave; mov qword ptr [rdi + 0x10], rcx; xor eax, eax; ret; 
94187788355997: ret; 
94187788355994: sal byte ptr [rbp - 0x2d], cl; ret; 
94187788355991: dec dword ptr [rax - 0x7b]; sal byte ptr [rbp - 0x2d], cl; ret; 
94187788355988: cmp bh, 0xff; dec dword ptr [rax - 0x7b]; sal byte ptr [rbp - 0x2d], cl; ret; 
94187788355985: rol byte ptr [rcx], 0xb9; cmp bh, 0xff; dec dword ptr [rax - 0x7b]; sal byte ptr [rbp - 0x2d], cl; ret; 
94187788356078: ret; 
94187788356125: ret; 
94187788356124: pop rsp; ret; 
94187788356121: add byte ptr [rax - 0x77], cl; pop rsp; ret; 
94187788356120: insd dword ptr [rdi], dx; add byte ptr [rax - 0x77], cl; pop rsp; ret; 
94187788356119: insd dword ptr [rdi], dx; add byte ptr [rax - 0x77], cl; pop rsp; ret; 
94187788356116: or cl, byte ptr [rbx - 0x73]; insd dword ptr [rdi], dx; add byte ptr [rax - 0x77], cl; pop rsp; ret; 
94187788356161: ret; 
94187788356160: pop rbp; ret; 
94187788356159: pop r13; ret; 
94187788356158: pop rsp; pop r13; ret; 
94187788356157: pop r12; pop r13; ret; 
94187788356156: pop rbp; pop r12; pop r13; ret; 
94187788356155: pop rbx; pop rbp; pop r12; pop r13; ret; 
94187788356154: or byte ptr [rbx + 0x5d], bl; pop r12; pop r13; ret; 
94187788356252: ret; 
94187788356249: add byte ptr [rax - 0x77], cl; ret; 
94187788356247: add byte ptr [rax], al; add byte ptr [rax - 0x77], cl; ret; 
94187788356245: adc byte ptr [rax], al; add byte ptr [rax], al; add byte ptr [rax - 0x77], cl; ret; 
94187788356244: adc byte ptr [r8], al; add byte ptr [rax], al; add byte ptr [rax - 0x77], cl; ret; 
94187788356241: add byte ptr [rax - 0x39], cl; adc byte ptr [r8], al; add byte ptr [rax], al; add byte ptr [rax - 0x77], cl; ret; 
94187788356422: ret; 
94187788356669: ret; 
94187788356666: add dword ptr [rbp - 0x1d], esi; ret; 
94187788356665: out dx, al; add dword ptr [rbp - 0x1d], esi; ret; 
94187788356662: add byte ptr [rax - 0x7d], cl; out dx, al; add dword ptr [rbp - 0x1d], esi; ret; 
94187788356660: add byte ptr [rax], al; add byte ptr [rax - 0x7d], cl; out dx, al; add dword ptr [rbp - 0x1d], esi; ret; 
94187788356683: ret; 
94187788356680: add dword ptr [rbp + 0x1d], esi; ret; 
94187788356678: add byte ptr [rax], al; add dword ptr [rbp + 0x1d], esi; ret; 
94187788356676: mov cl, 0; add byte ptr [rax], al; add dword ptr [rbp + 0x1d], esi; ret; 
94187788356673: sal dh, 0x87; mov cl, 0; add byte ptr [rax], al; add dword ptr [rbp + 0x1d], esi; ret; 
94187788356669: ret; 
94187788356747: ret; 
94187788356744: add esp, 0x18; ret; 
94187788356743: add rsp, 0x18; ret; 
94187788356741: and al, 8; add rsp, 0x18; ret; 
94187788356740: and al, 8; add rsp, 0x18; ret; 
94187788356739: mov eax, dword ptr [rsp + 8]; add rsp, 0x18; ret; 
94187788356738: mov rax, qword ptr [rsp + 8]; add rsp, 0x18; ret; 
94187788356737: dec dword ptr [rax - 0x75]; and al, 8; add rsp, 0x18; ret; 
94187788356733: call 0x55a9cdaacb30; mov rax, qword ptr [rsp + 8]; add rsp, 0x18; ret; 
94187788356731: and al, 8; call 0x55a9cdaacb30; mov rax, qword ptr [rsp + 8]; add rsp, 0x18; ret; 
94187788356730: and al, 8; call 0x55a9cdaacb30; mov rax, qword ptr [rsp + 8]; add rsp, 0x18; ret; 
94187788356729: mov dword ptr [rsp + 8], eax; call 0x55a9cdaacb30; mov rax, qword ptr [rsp + 8]; add rsp, 0x18; ret; 
94187788356728: mov qword ptr [rsp + 8], rax; call 0x55a9cdaacb30; mov rax, qword ptr [rsp + 8]; add rsp, 0x18; ret; 
94187788356835: ret; 
94187788356830: adc eax, 0xed655; ret; 
94187788356829: mov dword ptr [rip + 0xed655], edx; ret; 
94187788356828: mov qword ptr [rip + 0xed655], rdx; ret; 
94187788356827: hlt; mov qword ptr [rip + 0xed655], rdx; ret; 
94187788356825: add dword ptr [rbp - 0xc], esi; mov qword ptr [rip + 0xed655], rdx; ret; 
94187788356824: add qword ptr [rbp - 0xc], rsi; mov qword ptr [rip + 0xed655], rdx; ret; 
94187788357233: ret; 
94187788357232: pop rbp; ret; 
94187788357231: pop r13; ret; 
94187788357230: pop rsp; pop r13; ret; 
94187788357229: pop r12; pop r13; ret; 
94187788357228: pop rbp; pop r12; pop r13; ret; 
94187788357227: pop rbx; pop rbp; pop r12; pop r13; ret; 
94187788357226: or byte ptr [rbx + 0x5d], bl; pop r12; pop r13; ret; 
94187788357466: ret; 
94187788357463: add dword ptr [rcx - 0x7d], ecx; ret; 
94187788357513: ret; 
94187788357510: dec dword ptr [rax - 0x77]; ret; 
94187788353677: jmp qword ptr [rsi - 0x70]; 
94187788355125: jmp qword ptr [rsi + 0x2e]; 
94187788355119: mov dword ptr [rsi], 0xffff5fe9; jmp qword ptr [rsi + 0x2e]; 
94187788355689: jmp qword ptr [rsi + 0xf]; 
94187788355942: jmp qword ptr [rsi + 0xf]; 
94187788355939: cmp bh, 0xff; jmp qword ptr [rsi + 0xf]; 
94187788356257: jmp qword ptr [rsi + 0xf]; 
94187788356389: jmp qword ptr [rsi + 0x2e]; 
94187788356464: jmp qword ptr [rsi + 0x66]; 
94187788356461: comiss xmm7, xmm7; jmp qword ptr [rsi + 0x66]; 
94187788353558: ret 0x850f; 
94187788353555: ror byte ptr [rax + 0x39], 1; ret 0x850f; 
94187788353578: ret 0x8b48; 
94187788353575: add byte ptr [rax - 0x77], cl; ret 0x8b48; 
94187788353787: ret 0x8445; 
94187788353784: add byte ptr [rax - 0x77], cl; ret 0x8445; 
94187788353782: add byte ptr [rax], al; add byte ptr [rax - 0x77], cl; ret 0x8445; 
94187788353781: mov dword ptr [rax], 0x89480000; ret 0x8445; 
94187788353780: test edi, eax; add byte ptr [rax], al; add byte ptr [rax - 0x77], cl; ret 0x8445; 
94187788353778: and byte ptr [rdi], cl; test edi, eax; add byte ptr [rax], al; add byte ptr [rax - 0x77], cl; ret 0x8445; 
94187788354290: ret 0x8b48; 
94187788354287: dec dword ptr [rax - 0x77]; ret 0x8b48; 
94187788355169: ret 0x2474; 
94187788356090: ret 0xf03; 
94187788356088: adc dh, dh; ret 0xf03; 
94187788356087: push rax; adc dh, dh; ret 0xf03; 
94187788356645: ret 0x4818; 
94187788356642: or cl, byte ptr [rax - 0x7d]; ret 0x4818; 
94187788356639: add byte ptr [rax - 0x77], cl; or cl, byte ptr [rax - 0x7d]; ret 0x4818; 
94187788356764: ret 0xd148; 
94187788356761: add byte ptr [rax - 0x77], cl; ret 0xd148; 
94187788356758: add byte ptr [rax - 0x75], cl; add byte ptr [rax - 0x77], cl; ret 0xd148; 
94187788356756: or byte ptr [rax], dl; add byte ptr [rax - 0x75], cl; add byte ptr [rax - 0x77], cl; ret 0xd148; 
94187788356755: pop rcx; or byte ptr [rax], dl; add byte ptr [rax - 0x75], cl; add byte ptr [rax - 0x77], cl; ret 0xd148; 
94187788356777: ret 0xc148; 
94187788356774: add byte ptr [rax - 0x77], cl; ret 0xc148; 
94187788357138: ret 0x8948; 
94187788357152: ret 0x8548; 
94187788357462: ret 0x4901; 
94187788357459: add byte ptr [rcx - 0x7d], cl; ret 0x4901; 
94187788357457: add al, byte ptr [rax]; add byte ptr [rcx - 0x7d], cl; ret 0x4901; 
94187788357455: test dword ptr [rdx + rax - 0x7cb70000], esi; ret 0x4901; 
94187788357453: dec dword ptr [rdi]; test dword ptr [rdx + rax - 0x7cb70000], esi; ret 0x4901; 
94187788357452: cli; dec dword ptr [rdi]; test dword ptr [rdx + rax - 0x7cb70000], esi; ret 0x4901; 
94187788357449: adc ecx, dword ptr [rax - 0x7d]; cli; dec dword ptr [rdi]; test dword ptr [rdx + rax - 0x7cb70000], esi; ret 0x4901; 
94187788357664: ret; 
94187788357808: ret; 
94187788357805: dec dword ptr [rax - 0x77]; ret; 
94187788357877: ret; 
94187788357876: pop rdi; ret; 
94187788357875: pop r15; ret; 
94187788357874: pop rsi; pop r15; ret; 
94187788357873: pop r14; pop r15; ret; 
94187788357872: pop rbp; pop r14; pop r15; ret; 
94187788357871: pop r13; pop r14; pop r15; ret; 
94187788357870: pop rsp; pop r13; pop r14; pop r15; ret; 
94187788357869: pop r12; pop r13; pop r14; pop r15; ret; 
94187788357929: ret; 
94187788359043: ret; 
94187788359042: pop rsp; ret; 
94187788359041: pop r12; ret; 
94187788359040: pop rbp; pop r12; ret; 
94187788359039: pop rbx; pop rbp; pop r12; ret; 
94187788359038: call 0x55aa29ec32de; ret; 
94187788359037: mov eax, ebp; pop rbx; pop rbp; pop r12; ret; 
94187788359036: mov rax, rbp; pop rbx; pop rbp; pop r12; ret; 
94187788359035: add byte ptr [rax - 0x77], cl; call 0x55aa29ec32de; ret; 
94187788359093: ret; 
94187788359092: pop rbx; ret; 
94187788359090: mov eax, ecx; pop rbx; ret; 
94187788359089: mov rax, rcx; pop rbx; ret; 
94187788359088: ror dword ptr [rax - 0x77], -0x38; pop rbx; ret; 
94187788359087: mov ecx, eax; mov rax, rcx; pop rbx; ret; 
94187788359086: mov rcx, rax; mov rax, rcx; pop rbx; ret; 
94187788359085: dec dword ptr [rax - 0x77]; ror dword ptr [rax - 0x77], -0x38; pop rbx; ret; 
94187788359081: call 0x55a9cda9c170; mov rcx, rax; mov rax, rcx; pop rbx; ret; 
94187788359155: ret; 
94187788359154: pop rsp; ret; 
94187788359153: pop r12; ret; 
94187788359152: pop rbp; pop r12; ret; 
94187788359151: pop rbx; pop rbp; pop r12; ret; 
94187788359150: call 0x55aa29ec334e; ret; 
94187788359149: mov eax, ebp; pop rbx; pop rbp; pop r12; ret; 
94187788359148: mov rax, rbp; pop rbx; pop rbp; pop r12; ret; 
94187788359147: add byte ptr [rax - 0x77], cl; call 0x55aa29ec334e; ret; 
94187788359324: ret; 
94187788359321: add dword ptr [rax - 0x7b], ecx; ret; 
94187788359808: ret; 
94187788359847: ret; 
94187788359871: ret; 
94187788359965: ret; 
94187788359962: add dword ptr [rax - 0x7b], ecx; ret; 
94187788360124: ret; 
94187788360123: pop rdi; ret; 
94187788360122: pop r15; ret; 
94187788360121: pop rsi; pop r15; ret; 
94187788360120: pop r14; pop r15; ret; 
94187788360119: pop rbp; pop r14; pop r15; ret; 
94187788360118: pop r13; pop r14; pop r15; ret; 
94187788360117: pop rsp; pop r13; pop r14; pop r15; ret; 
94187788360116: pop r12; pop r13; pop r14; pop r15; ret; 
94187788360425: ret; 
94187788360632: ret; 
94187788360629: mov dword ptr [rsi + 0x18], ebx; ret; 
94187788360628: mov dword ptr [rsi + 0x18], r11d; ret; 
94187788360627: adc al, 0x44; mov dword ptr [rsi + 0x18], ebx; ret; 
94187788360626: adc al, 0x44; mov dword ptr [rsi + 0x18], ebx; ret; 
94187788360625: mov dword ptr [rsi + 0x14], ecx; mov dword ptr [rsi + 0x18], r11d; ret; 
94187788360624: mov dword ptr [rsi + 0x14], r9d; mov dword ptr [rsi + 0x18], r11d; ret; 
94187788360623: pop rbp; mov dword ptr [rsi + 0x14], r9d; mov dword ptr [rsi + 0x18], r11d; ret; 
94187788360622: pop r13; mov dword ptr [rsi + 0x14], r9d; mov dword ptr [rsi + 0x18], r11d; ret; 
94187788360621: adc byte ptr [rcx + 0x5d], al; mov dword ptr [rsi + 0x14], r9d; mov dword ptr [rsi + 0x18], r11d; ret; 
94187788360620: adc byte ptr [rcx + 0x5d], r8b; mov dword ptr [rsi + 0x14], r9d; mov dword ptr [rsi + 0x18], r11d; ret; 
94187788360619: mov dword ptr [rsi + 0x10], eax; pop r13; mov dword ptr [rsi + 0x14], r9d; mov dword ptr [rsi + 0x18], r11d; ret; 
94187788360732: ret; 
94187788360729: ror dword ptr [rcx + 0x29], cl; ret; 
94187788360735: ret; 
94187788360732: ret; 
94187788360749: ret; 
94187788360746: add byte ptr [rcx - 0x7d], cl; ret; 
94187788360972: ret; 
94187788360969: rol byte ptr [rcx + 0x29], 1; ret; 
94187788360966: add byte ptr [rax + 0x29], cl; rol byte ptr [rcx + 0x29], 1; ret; 
94187788360964: add byte ptr [rax], al; add byte ptr [rax + 0x29], cl; rol byte ptr [rcx + 0x29], 1; ret; 
94187788360992: ret; 
94187788361192: ret; 
94187788361191: pop rdi; ret; 
94187788361190: pop r15; ret; 
94187788361189: pop rsi; pop r15; ret; 
94187788361188: pop r14; pop r15; ret; 
94187788361187: pop rbp; pop r14; pop r15; ret; 
94187788361186: pop r13; pop r14; pop r15; ret; 
94187788361185: pop rsp; pop r13; pop r14; pop r15; ret; 
94187788361184: pop r12; pop r13; pop r14; pop r15; ret; 
94187788357737: jmp qword ptr [rsi + 0xf]; 
94187788358321: jmp qword ptr [rsi + 0xf]; 
94187788358429: jmp qword ptr [rsi - 0x70]; 
94187788358976: jmp qword ptr [rsi + 0x66]; 
94187788359417: jmp qword ptr [rsi + 0xf]; 
94187788360371: jmp qword ptr [rsi + 0x66]; 
94187788361092: jmp qword ptr [rsi + 0x66]; 
94187788357698: ret 0x4801; 
94187788358113: ret 0x8d48; 
94187788358112: scasd eax, dword ptr [rdi]; ret 0x8d48; 
94187788358109: add ecx, dword ptr [rax + 0xf]; scasd eax, dword ptr [rdi]; ret 0x8d48; 
94187788358108: clc; add ecx, dword ptr [rax + 0xf]; scasd eax, dword ptr [rdi]; ret 0x8d48; 
94187788358213: ret 0x4d01; 
94187788358210: dec dword ptr [rcx - 0x7d]; ret 0x4d01; 
94187788358206: test dword ptr [rsi + rdi*8 - 0x7cb60001], edx; ret 0x4d01; 
94187788358204: dec dword ptr [rdi]; test dword ptr [rsi + rdi*8 - 0x7cb60001], edx; ret 0x4d01; 
94187788358261: ret 0x4808; 
94187788358258: or cl, byte ptr [rax - 0x7d]; ret 0x4808; 
94187788358255: add byte ptr [rax - 0x75], cl; or cl, byte ptr [rax - 0x7d]; ret 0x4808; 
94187788358548: ret 0x8d48; 
94187788358547: scasd eax, dword ptr [rdi]; ret 0x8d48; 
94187788358544: add ecx, dword ptr [rax + 0xf]; scasd eax, dword ptr [rdi]; ret 0x8d48; 
94187788358543: clc; add ecx, dword ptr [rax + 0xf]; scasd eax, dword ptr [rdi]; ret 0x8d48; 
94187788358757: ret 0x4808; 
94187788358754: xor cl, byte ptr [rax - 0x7d]; ret 0x4808; 
94187788358774: ret 0x4d01; 
94187788358825: ret 0x4808; 
94187788358822: add byte ptr [rax - 0x7d], cl; ret 0x4808; 
94187788358820: add byte ptr [rax], al; add byte ptr [rax - 0x7d], cl; ret 0x4808; 
94187788358818: add al, byte ptr [rax]; add byte ptr [rax], al; add byte ptr [rax - 0x7d], cl; ret 0x4808; 
94187788358815: add byte ptr [rax - 0x39], cl; add al, byte ptr [rax]; add byte ptr [rax], al; add byte ptr [rax - 0x7d], cl; ret 0x4808; 
94187788358889: ret 0x149; 
94187788358886: add dword ptr [rax + 0x29], ecx; ret 0x149; 
94187788359082: ret 0xfeeb; 
94187788359528: ret 0x840f; 
94187788359749: ret 0x8948; 
94187788359885: ret 0x4808; 
94187788359882: add cl, byte ptr [rax - 0x7d]; ret 0x4808; 
94187788359879: add byte ptr [rax - 0x75], cl; add cl, byte ptr [rax - 0x7d]; ret 0x4808; 
94187788360013: ret 0x7074; 
94187788360081: ret 0xc148; 
94187788360197: ret 0xfffe; 
94187788360872: ret 0x8949; 
94187788360958: ret 0x8d48; 
94187788360997: ret 0x28f5; 
94187788361087: ret 0xb5e9; 
94187788361084: add dword ptr [rbp - 0x77], ecx; ret 0xb5e9; 
94187788361339: ret 0x8d48; 
94187788360318: call qword ptr [rax + 0x7f0c8d48]; 
94187788360315: sar ebp, -1; call qword ptr [rax + 0x7f0c8d48]; 
94187788360313: add ecx, ebp; sar ebp, -1; call qword ptr [rax + 0x7f0c8d48]; 
94187788468359: ret; 
94187788468356: or cl, byte ptr [rax - 0x7d]; ret; 
94187788468607: ret; 
94187788468606: pop rdi; ret; 
94187788468605: pop r15; ret; 
94187788468604: pop rsi; pop r15; ret; 
94187788468603: pop r14; pop r15; ret; 
94187788468602: pop rbp; pop r14; pop r15; ret; 
94187788468601: pop r13; pop r14; pop r15; ret; 
94187788468600: pop rsp; pop r13; pop r14; pop r15; ret; 
94187788468599: pop r12; pop r13; pop r14; pop r15; ret; 
94187788468642: ret; 
94187788468893: ret; 
94187788469507: ret; 
94187788470390: ret; 
94187788470621: ret; 
94187788470620: pop rdi; ret; 
94187788470619: pop r15; ret; 
94187788470618: pop rsi; pop r15; ret; 
94187788470617: pop r14; pop r15; ret; 
94187788470616: pop rbp; pop r14; pop r15; ret; 
94187788470615: pop r13; pop r14; pop r15; ret; 
94187788470614: pop rsp; pop r13; pop r14; pop r15; ret; 
94187788470613: pop r12; pop r13; pop r14; pop r15; ret; 
94187788471515: ret; 
94187788471597: ret; 
94187788471596: pop rbp; ret; 
94187788471595: pop r13; ret; 
94187788471594: pop rsp; pop r13; ret; 
94187788471593: pop r12; pop r13; ret; 
94187788471592: pop rbp; pop r12; pop r13; ret; 
94187788471591: pop rbx; pop rbp; pop r12; pop r13; ret; 
94187788471590: add byte ptr [rbx + 0x5d], bl; pop r12; pop r13; ret; 
94187788471718: ret; 
94187788471778: ret; 
94187788471775: add byte ptr [rax - 0x7d], cl; ret; 
94187788471856: ret; 
94187788471888: ret; 
94187788471887: pop rdi; ret; 
94187788471886: pop r15; ret; 
94187788471885: pop rsi; pop r15; ret; 
94187788471884: pop r14; pop r15; ret; 
94187788471883: pop rbp; pop r14; pop r15; ret; 
94187788471882: pop r13; pop r14; pop r15; ret; 
94187788471881: pop rsp; pop r13; pop r14; pop r15; ret; 
94187788471880: pop r12; pop r13; pop r14; pop r15; ret; 
94187788471912: ret; 
94187788471911: pop rdi; ret; 
94187788471910: pop r15; ret; 
94187788471909: pop rsi; pop r15; ret; 
94187788471908: pop r14; pop r15; ret; 
94187788471907: pop rbp; pop r14; pop r15; ret; 
94187788471906: pop r13; pop r14; pop r15; ret; 
94187788471905: pop rsp; pop r13; pop r14; pop r15; ret; 
94187788471904: pop r12; pop r13; pop r14; pop r15; ret; 
94187788471976: ret; 
94187788471975: pop rbp; ret; 
94187788471974: pop rbx; pop rbp; ret; 
94187788471973: lcall ptr [rbx + 0x5d]; ret; 
94187788471968: mov eax, 0xffffffff; pop rbx; pop rbp; ret; 
94187788471967: mov rax, -1; pop rbx; pop rbp; ret; 
94187788471964: add esp, 8; mov rax, -1; pop rbx; pop rbp; ret; 
94187788471963: add rsp, 8; mov rax, -1; pop rbx; pop rbp; ret; 
94187788472050: ret; 
94187788472112: ret; 
94187788472111: pop rbp; ret; 
94187788472110: pop rbx; pop rbp; ret; 
94187788472108: xor eax, eax; pop rbx; pop rbp; ret; 
94187788472105: add esp, 8; xor eax, eax; pop rbx; pop rbp; ret; 
94187788472104: add rsp, 8; xor eax, eax; pop rbx; pop rbp; ret; 
94187788472276: ret; 
94187788468557: call qword ptr [rcx]; 
94187788468725: call qword ptr [rcx]; 
94187788468722: inc dword ptr [rcx - 0x7d]; call qword ptr [rcx]; 
94187788468721: std; inc dword ptr [rcx - 0x7d]; call qword ptr [rcx]; 
94187788468719: lea edi, dword ptr [rax - 3]; inc dword ptr [rcx - 0x7d]; call qword ptr [rcx]; 
94187788468717: add al, ch; lea edi, dword ptr [rax - 3]; inc dword ptr [rcx - 0x7d]; call qword ptr [rcx]; 
94187788468715: add byte ptr [rax], al; add al, ch; lea edi, dword ptr [rax - 3]; inc dword ptr [rcx - 0x7d]; call qword ptr [rcx]; 
94187788468439: jmp rax; 
94187788468437: add eax, ecx; jmp rax; 
94187788468436: add rax, rcx; jmp rax; 
94187788468435: xchg eax, ecx; add rax, rcx; jmp rax; 
94187788468434: add al, 0x91; add rax, rcx; jmp rax; 
94187788468432: movsxd rax, dword ptr [rcx + rdx*4]; add rax, rcx; jmp rax; 
94187788468431: cli; movsxd rax, dword ptr [rcx + rdx*4]; add rax, rcx; jmp rax; 
94187788468430: mov edx, edi; movsxd rax, dword ptr [rcx + rdx*4]; add rax, rcx; jmp rax; 
94187788468429: mov edx, r15d; movsxd rax, dword ptr [rcx + rdx*4]; add rax, rcx; jmp rax; 
94187788468428: add byte ptr [rcx + rcx*4 - 6], al; movsxd rax, dword ptr [rcx + rdx*4]; add rax, rcx; jmp rax; 
94187788468427: or byte ptr [rax], al; mov edx, r15d; movsxd rax, dword ptr [rcx + rdx*4]; add rax, rcx; jmp rax; 
94187788468426: movabs al, byte ptr [0x46348fa89440008]; xchg eax, ecx; add rax, rcx; jmp rax; 
94187788468424: or eax, 0x8a01f; mov edx, r15d; movsxd rax, dword ptr [rcx + rdx*4]; add rax, rcx; jmp rax; 
94187788468423: lea ecx, dword ptr [rip + 0x8a01f]; mov edx, r15d; movsxd rax, dword ptr [rcx + rdx*4]; add rax, rcx; jmp rax; 
94187788468422: lea rcx, qword ptr [rip + 0x8a01f]; mov edx, r15d; movsxd rax, dword ptr [rcx + rdx*4]; add rax, rcx; jmp rax; 
94187788468907: jmp rax; 
94187788468905: add eax, ecx; jmp rax; 
94187788468904: add rax, rcx; jmp rax; 
94187788468903: xchg eax, ecx; add rax, rcx; jmp rax; 
94187788468902: add al, 0x91; add rax, rcx; jmp rax; 
94187788468900: movsxd rax, dword ptr [rcx + rdx*4]; add rax, rcx; jmp rax; 
94187788468899: cli; movsxd rax, dword ptr [rcx + rdx*4]; add rax, rcx; jmp rax; 
94187788468898: mov edx, edi; movsxd rax, dword ptr [rcx + rdx*4]; add rax, rcx; jmp rax; 
94187788468897: mov edx, r15d; movsxd rax, dword ptr [rcx + rdx*4]; add rax, rcx; jmp rax; 
94187788468896: add byte ptr [rcx + rcx*4 - 6], al; movsxd rax, dword ptr [rcx + rdx*4]; add rax, rcx; jmp rax; 
94187788468895: or byte ptr [rax], al; mov edx, r15d; movsxd rax, dword ptr [rcx + rdx*4]; add rax, rcx; jmp rax; 
94187788470556: jmp rax; 
94187788470554: add eax, edx; jmp rax; 
94187788470553: add rax, rdx; jmp rax; 
94187788470552: stosb byte ptr [rdi], al; add rax, rdx; jmp rax; 
94187788470551: add al, 0xaa; add rax, rdx; jmp rax; 
94187788470549: movsxd rax, dword ptr [rdx + rbp*4]; add rax, rdx; jmp rax; 
94187788470548: add byte ptr [rax + 0x63], cl; add al, 0xaa; add rax, rdx; jmp rax; 
94187788470547: or byte ptr [rax], al; movsxd rax, dword ptr [rdx + rbp*4]; add rax, rdx; jmp rax; 
94187788470546: cwde; or byte ptr [rax], al; movsxd rax, dword ptr [rdx + rbp*4]; add rax, rdx; jmp rax; 
94187788470544: adc eax, 0x898c7; movsxd rax, dword ptr [rdx + rbp*4]; add rax, rdx; jmp rax; 
94187788470543: lea edx, dword ptr [rip + 0x898c7]; movsxd rax, dword ptr [rdx + rbp*4]; add rax, rdx; jmp rax; 
94187788470542: lea rdx, qword ptr [rip + 0x898c7]; movsxd rax, dword ptr [rdx + rbp*4]; add rax, rdx; jmp rax; 
94187788470541: add byte ptr [rax - 0x73], cl; adc eax, 0x898c7; movsxd rax, dword ptr [rdx + rbp*4]; add rax, rdx; jmp rax; 
94187788470540: add byte ptr [rax], al; lea rdx, qword ptr [rip + 0x898c7]; movsxd rax, dword ptr [rdx + rbp*4]; add rax, rdx; jmp rax; 
94187788470449: call rax; 
94187788470447: and al, 8; call rax; 
94187788470446: and al, 8; call rax; 
94187788470445: mov eax, dword ptr [rsp + 8]; call rax; 
94187788470444: mov rax, qword ptr [rsp + 8]; call rax; 
94187788470443: add cl, byte ptr [rax - 0x75]; and al, 8; call rax; 
94187788470442: mov dword ptr [rdx], eax; mov rax, qword ptr [rsp + 8]; call rax; 
94187788470441: out dx, eax; mov dword ptr [rdx], eax; mov rax, qword ptr [rsp + 8]; call rax; 
94187788470440: mov edi, ebp; mov dword ptr [rdx], eax; mov rax, qword ptr [rsp + 8]; call rax; 
94187788470439: mov rdi, r13; mov dword ptr [rdx], eax; mov rax, qword ptr [rsp + 8]; call rax; 
94187788470438: adc byte ptr [rcx + rcx*4 - 0x11], cl; mov dword ptr [rdx], eax; mov rax, qword ptr [rsp + 8]; call rax; 
94187788470437: and al, 0x10; mov rdi, r13; mov dword ptr [rdx], eax; mov rax, qword ptr [rsp + 8]; call rax; 
94187788470435: mov esi, dword ptr [rsp + 0x10]; mov rdi, r13; mov dword ptr [rdx], eax; mov rax, qword ptr [rsp + 8]; call rax; 
94187788470434: mov rsi, qword ptr [rsp + 0x10]; mov rdi, r13; mov dword ptr [rdx], eax; mov rax, qword ptr [rsp + 8]; call rax; 
94187788470577: jmp qword ptr [rsi + 0xf]; 
94187788471401: jmp qword ptr [rsi + 0xf]; 
94187788471653: jmp qword ptr [rsi + 0x2e]; 
94187788471652: std; jmp qword ptr [rsi + 0x2e]; 
94187788471651: std; jmp qword ptr [rsi + 0x2e]; 
94187788471650: sub al, byte ptr [rcx - 3]; jmp qword ptr [rsi + 0x2e]; 
94187788471648: test eax, 0xfd412ae8; jmp qword ptr [rsi + 0x2e]; 
94187788471949: jmp qword ptr [rsi - 0x70]; 
94187788471948: std; jmp qword ptr [rsi - 0x70]; 
94187788471947: xor al, 0xfd; jmp qword ptr [rsi - 0x70]; 
94187788468486: ret 0xf14; 
94187788469138: ret 0x4430; 
94187788470674: ret 0x8330; 
94187788470974: call qword ptr [rax + 0x7f048d4b]; 
94187788471006: call qword ptr [rax + 0x7f048d4b]; 
94187788471038: call qword ptr [rax + 0x7f048d4b]; 
94187788464251: ret; 
94187788464248: fimul dword ptr [rax - 0x7d]; ret; 
94187788464379: ret; 
94187788464378: pop rbp; ret; 
94187788464377: pop rbx; pop rbp; ret; 
94187788464376: or byte ptr [rbx + 0x5d], bl; ret; 
94187788464374: add esp, 8; pop rbx; pop rbp; ret; 
94187788464373: add rsp, 8; pop rbx; pop rbp; ret; 
94187788464370: mov dword ptr [rdi + 0x10], ecx; add rsp, 8; pop rbx; pop rbp; ret; 
94187788464369: mov qword ptr [rdi + 0x10], r9; add rsp, 8; pop rbx; pop rbp; ret; 
94187788464408: ret; 
94187788464407: pop rbp; ret; 
94187788464406: pop rbx; pop rbp; ret; 
94187788464405: or byte ptr [rbx + 0x5d], bl; ret; 
94187788464403: add esp, 8; pop rbx; pop rbp; ret; 
94187788464402: add rsp, 8; pop rbx; pop rbp; ret; 
94187788464396: mov eax, 0xffffffff; add rsp, 8; pop rbx; pop rbp; ret; 
94187788464395: mov rax, -1; add rsp, 8; pop rbx; pop rbp; ret; 
94187788464620: ret; 
94187788464619: pop rbp; ret; 
94187788464618: pop r13; ret; 
94187788464617: pop rsp; pop r13; ret; 
94187788464616: pop r12; pop r13; ret; 
94187788464615: pop rbp; pop r12; pop r13; ret; 
94187788464614: pop rbx; pop rbp; pop r12; pop r13; ret; 
94187788464613: call 0x55aa29edcf45; pop r13; ret; 
94187788464740: ret; 
94187788464739: pop rbp; ret; 
94187788464738: pop r13; ret; 
94187788464737: pop rsp; pop r13; ret; 
94187788464736: pop r12; pop r13; ret; 
94187788464735: pop rbp; pop r12; pop r13; ret; 
94187788464734: pop rbx; pop rbp; pop r12; pop r13; ret; 
94187788464733: call 0x55aa29edcfbd; pop r13; ret; 
94187788464781: ret; 
94187788464780: pop rbp; ret; 
94187788464779: pop r13; ret; 
94187788464778: pop rsp; pop r13; ret; 
94187788464777: pop r12; pop r13; ret; 
94187788464776: pop rbp; pop r12; pop r13; ret; 
94187788464775: pop rbx; pop rbp; pop r12; pop r13; ret; 
94187788464774: call 0x55aa29edcfe6; pop r13; ret; 
94187788465110: ret; 
94187788465109: pop rdi; ret; 
94187788465108: pop r15; ret; 
94187788465107: pop rsi; pop r15; ret; 
94187788465106: pop r14; pop r15; ret; 
94187788465105: pop rbp; pop r14; pop r15; ret; 
94187788465104: pop r13; pop r14; pop r15; ret; 
94187788465103: pop rsp; pop r13; pop r14; pop r15; ret; 
94187788465102: pop r12; pop r13; pop r14; pop r15; ret; 
94187788465430: ret; 
94187788465429: pop rdi; ret; 
94187788465428: pop r15; ret; 
94187788465427: pop rsi; pop r15; ret; 
94187788465426: pop r14; pop r15; ret; 
94187788465425: pop rbp; pop r14; pop r15; ret; 
94187788465424: pop r13; pop r14; pop r15; ret; 
94187788465423: pop rsp; pop r13; pop r14; pop r15; ret; 
94187788465422: pop r12; pop r13; pop r14; pop r15; ret; 
94187788465757: ret; 
94187788466139: ret; 
94187788466138: pop rdi; ret; 
94187788466137: pop r15; ret; 
94187788466136: pop rsi; pop r15; ret; 
94187788466135: pop r14; pop r15; ret; 
94187788466134: pop rbp; pop r14; pop r15; ret; 
94187788466133: pop r13; pop r14; pop r15; ret; 
94187788466132: pop rsp; pop r13; pop r14; pop r15; ret; 
94187788466131: pop r12; pop r13; pop r14; pop r15; ret; 
94187788466337: ret; 
94187788466334: add byte ptr [rcx - 0x39], cl; ret; 
94187788466332: adc al, 0; add byte ptr [rcx - 0x39], cl; ret; 
94187788466331: rcl dword ptr [rax + rax], 1; add byte ptr [rcx - 0x39], cl; ret; 
94187788466329: add al, ch; rcl dword ptr [rax + rax], 1; add byte ptr [rcx - 0x39], cl; ret; 
94187788466327: add byte ptr [rax], al; add al, ch; rcl dword ptr [rax + rax], 1; add byte ptr [rcx - 0x39], cl; ret; 
94187788466381: ret; 
94187788466378: dec dword ptr [rcx - 0x39]; ret; 
94187788466377: std; dec dword ptr [rcx - 0x39]; ret; 
94187788466375: mov ch, 0x81; std; dec dword ptr [rcx - 0x39]; ret; 
94187788466948: ret; 
94187788466945: dec dword ptr [rax - 0x77]; ret; 
94187788466944: std; dec dword ptr [rax - 0x77]; ret; 
94187788466943: std; dec dword ptr [rax - 0x77]; ret; 
94187788466942: fimul word ptr [rsi - 3]; dec dword ptr [rax - 0x77]; ret; 
94187788466940: add al, ch; fimul word ptr [rsi - 3]; dec dword ptr [rax - 0x77]; ret; 
94187788466938: add byte ptr [rax], al; add al, ch; fimul word ptr [rsi - 3]; dec dword ptr [rax - 0x77]; ret; 
94187788466986: ret; 
94187788466985: pop rbp; ret; 
94187788466984: pop rbx; pop rbp; ret; 
94187788466981: add esp, 0x78; pop rbx; pop rbp; ret; 
94187788466980: add rsp, 0x78; pop rbx; pop rbp; ret; 
94187788466978: add byte ptr [rax], al; add rsp, 0x78; pop rbx; pop rbp; ret; 
94187788467106: ret; 
94187788467242: ret; 
94187788467239: dec dword ptr [rax - 0x77]; ret; 
94187788467238: std; dec dword ptr [rax - 0x77]; ret; 
94187788467237: std; dec dword ptr [rax - 0x77]; ret; 
94187788467236: fadd dword ptr [rsi - 3]; dec dword ptr [rax - 0x77]; ret; 
94187788467234: add al, ch; fadd dword ptr [rsi - 3]; dec dword ptr [rax - 0x77]; ret; 
94187788467232: add byte ptr [rax], al; add al, ch; fadd dword ptr [rsi - 3]; dec dword ptr [rax - 0x77]; ret; 
94187788467317: ret; 
94187788467316: pop rsp; ret; 
94187788467315: pop r12; ret; 
94187788467314: pop rbp; pop r12; ret; 
94187788467313: pop rbx; pop rbp; pop r12; ret; 
94187788467312: jo 0x55a9cdac7ccd; pop rbp; pop r12; ret; 
94187788467310: add esp, 0x70; pop rbx; pop rbp; pop r12; ret; 
94187788467309: add rsp, 0x70; pop rbx; pop rbp; pop r12; ret; 
94187788467474: ret; 
94187788467471: add byte ptr [rax - 0x39], cl; ret; 
94187788467491: ret; 
94187788467488: add dword ptr [rax - 0x39], ecx; ret; 
94187788467486: cmp al, 0x24; add dword ptr [rax - 0x39], ecx; ret; 
94187788467483: dec dword ptr [rcx - 0x7d]; cmp al, 0x24; add dword ptr [rax - 0x39], ecx; ret; 
94187788467543: ret; 
94187788467540: dec dword ptr [rax - 0x39]; ret; 
94187788467597: ret; 
94187788467631: ret; 
94187788467653: ret; 
94187788467650: add dword ptr [rax - 0x39], ecx; ret; 
94187788467648: cmp al, 0x24; add dword ptr [rax - 0x39], ecx; ret; 
94187788467645: dec dword ptr [rcx - 0x7d]; cmp al, 0x24; add dword ptr [rax - 0x39], ecx; ret; 
94187788467737: ret; 
94187788467734: add byte ptr [rax - 0x77], cl; ret; 
94187788467732: add byte ptr [rax], al; add byte ptr [rax - 0x77], cl; ret; 
94187788467731: xchg eax, edx; add byte ptr [rax], al; add byte ptr [rax - 0x77], cl; ret; 
94187788467728: ror byte ptr [rdi], 0x84; xchg eax, edx; add byte ptr [rax], al; add byte ptr [rax - 0x77], cl; ret; 
94187788467840: ret; 
94187788467839: pop rbp; ret; 
94187788467838: pop r13; ret; 
94187788467837: pop rsp; pop r13; ret; 
94187788467836: pop r12; pop r13; ret; 
94187788467835: pop rbp; pop r12; pop r13; ret; 
94187788467834: pop rbx; pop rbp; pop r12; pop r13; ret; 
94187788467833: sbb byte ptr [rbx + 0x5d], bl; pop r12; pop r13; ret; 
94187788467947: ret; 
94187788467946: pop rbp; ret; 
94187788467945: pop rbx; pop rbp; ret; 
94187788467944: or byte ptr [rbx + 0x5d], bl; ret; 
94187788467942: add esp, 8; pop rbx; pop rbp; ret; 
94187788467941: add rsp, 8; pop rbx; pop rbp; ret; 
94187788467940: add rsp, 8; pop rbx; pop rbp; ret; 
94187788467938: push qword ptr [rbx + rax*2 + 0x48]; add esp, 8; pop rbx; pop rbp; ret; 
94187788468120: ret; 
94187788468119: pop rsp; ret; 
94187788468118: pop r12; ret; 
94187788468117: pop rbp; pop r12; ret; 
94187788468116: pop rbx; pop rbp; pop r12; ret; 
94187788468115: fcomp dword ptr [rbx + 0x5d]; pop r12; ret; 
94187788468114: mov eax, ebx; pop rbx; pop rbp; pop r12; ret; 
94187788468113: mov rax, rbx; pop rbx; pop rbp; pop r12; ret; 
94187788468112: fisttp dword ptr [rax - 0x77]; fcomp dword ptr [rbx + 0x5d]; pop r12; ret; 
94187788468127: ret; 
94187788468124: and byte ptr [rax - 0x77], cl; ret; 
94187788468123: and byte ptr gs:[rax - 0x77], cl; ret; 
94187788468120: ret; 
94187788468208: ret; 
94187788468207: pop rbp; ret; 
94187788468206: pop rbx; pop rbp; ret; 
94187788468205: or byte ptr [rbx + 0x5d], bl; ret; 
94187788468203: add esp, 8; pop rbx; pop rbp; ret; 
94187788468202: add rsp, 8; pop rbx; pop rbp; ret; 
94187788468199: push qword ptr [rsi + rcx + 0x48]; add esp, 8; pop rbx; pop rbp; ret; 
94187788467853: call qword ptr [rax]; 
94187788467851: mov esi, esp; call qword ptr [rax]; 
94187788467850: mov rsi, r12; call qword ptr [rax]; 
94187788467849: ror byte ptr [rcx + rcx*4 - 0x1a], cl; call qword ptr [rax]; 
94187788467848: xor edx, edx; mov rsi, r12; call qword ptr [rax]; 
94187788467847: add byte ptr [rcx], dh; ror byte ptr [rcx + rcx*4 - 0x1a], cl; call qword ptr [rax]; 
94187788467846: add byte ptr [rax], al; xor edx, edx; mov rsi, r12; call qword ptr [rax]; 
94187788467845: add byte ptr [rax], al; add byte ptr [rcx], dh; ror byte ptr [rcx + rcx*4 - 0x1a], cl; call qword ptr [rax]; 
94187788467844: add byte ptr [rax], al; add byte ptr [rax], al; xor edx, edx; mov rsi, r12; call qword ptr [rax]; 
94187788467843: add byte ptr [rax], 0; add byte ptr [rax], al; xor edx, edx; mov rsi, r12; call qword ptr [rax]; 
94187788467841: nop dword ptr [rax]; xor edx, edx; mov rsi, r12; call qword ptr [rax]; 
94187788467820: call rdx; 
94187788467818: mov edi, ebx; call rdx; 
94187788467817: mov rdi, rbx; call rdx; 
94187788464697: jmp qword ptr [rsi + 0xf]; 
94187788466313: jmp qword ptr [rsi + 0xf]; 
94187788466390: jmp qword ptr [rsi + 0xf]; 
94187788466417: jmp qword ptr [rsi + 0xf]; 
94187788467101: jmp qword ptr [rsi - 0x70]; 
94187788467120: jmp qword ptr [rsi + 0x66]; 
94187788467119: std; jmp qword ptr [rsi + 0x66]; 
94187788467118: push rdx; std; jmp qword ptr [rsi + 0x66]; 
94187788467117: fist word ptr [rdx - 3]; jmp qword ptr [rsi + 0x66]; 
94187788467465: jmp qword ptr [rsi + 0xf]; 
94187788467680: jmp qword ptr [rsi + 0x66]; 
94187788467679: std; jmp qword ptr [rsi + 0x66]; 
94187788467678: push rax; std; jmp qword ptr [rsi + 0x66]; 
94187788467677: scasd eax, dword ptr [rdi]; push rax; std; jmp qword ptr [rsi + 0x66]; 
94187788468049: jmp qword ptr [rsi + 0x2e]; 
94187788468048: std; jmp qword ptr [rsi + 0x2e]; 
94187788468047: jnp 0x55a9cdac7f4e; jmp qword ptr [rsi + 0x2e]; 
94187788468046: jnp 0x55a9cdac7f4e; jmp qword ptr [rsi + 0x2e]; 
94187788468042: rcr byte ptr [rbx + 0x5d], 0xe9; jnp 0x55a9cdac7f4e; jmp qword ptr [rsi + 0x2e]; 
94187788468040: or byte ptr [rcx], dh; rcr byte ptr [rbx + 0x5d], 0xe9; jnp 0x55a9cdac7f4e; jmp qword ptr [rsi + 0x2e]; 
94187788468034: add byte ptr [rbx - 0x3b7cb7f0], cl; or byte ptr [rcx], dh; rcr byte ptr [rbx + 0x5d], 0xe9; jnp 0x55a9cdac7f4e; jmp qword ptr [rsi + 0x2e]; 
94187788468031: movabs eax, dword ptr [0xc48348108b00089c]; or byte ptr [rcx], dh; rcr byte ptr [rbx + 0x5d], 0xe9; jnp 0x55a9cdac7f4e; jmp qword ptr [rsi + 0x2e]; 
94187788464191: call qword ptr [rbp + 0x53]; 
94187788465365: ret 0x5541; 
94187788465262: call qword ptr [rax + 0x56415741]; 
94187788465261: std; call qword ptr [rax + 0x56415741]; 
94187788465260: pop rdx; std; call qword ptr [rax + 0x56415741]; 
94187788465259: and dword ptr [rdx - 3], ebx; call qword ptr [rax + 0x56415741]; 
94187788465550: call qword ptr [rax - 0x76b6a8bf]; 
94187788466270: call qword ptr [rax + 0x50738b48]; 
94187788466750: call qword ptr [rax + 0x13e8348]; 
ERROR: Failed to disassemble given code!
94187788390415: ret; 
94187788390414: pop rbp; ret; 
94187788390413: pop rbx; pop rbp; ret; 
94187788390412: add byte ptr [rbx + 0x5d], bl; ret; 
94187788390411: or dword ptr [rax], eax; pop rbx; pop rbp; ret; 
94187788390409: add eax, 0x5b000981; pop rbp; ret; 
94187788390408: add eax, 0x98105; pop rbx; pop rbp; ret; 
94187788390407: lea eax, dword ptr [rip + 0x98105]; pop rbx; pop rbp; ret; 
94187788390406: lea rax, qword ptr [rip + 0x98105]; pop rbx; pop rbp; ret; 
94187788390405: or byte ptr [rax - 0x73], cl; add eax, 0x98105; pop rbx; pop rbp; ret; 
94187788390403: add esp, 8; lea rax, qword ptr [rip + 0x98105]; pop rbx; pop rbp; ret; 
94187788390402: add rsp, 8; lea rax, qword ptr [rip + 0x98105]; pop rbx; pop rbp; ret; 
94187788390401: mov eax, 0x8c48348; lea rax, qword ptr [rip + 0x98105]; pop rbx; pop rbp; ret; 
94187788390486: ret; 
94187788390540: ret; 
94187788390539: pop rbp; ret; 
94187788390538: pop r13; ret; 
94187788390537: pop rsp; pop r13; ret; 
94187788390536: pop r12; pop r13; ret; 
94187788390535: pop rbp; pop r12; pop r13; ret; 
94187788390534: pop rbx; pop rbp; pop r12; pop r13; ret; 
94187788390533: lcall ptr [rbx + 0x5d]; pop r12; pop r13; ret; 
94187788390568: ret; 
94187788390565: nop dword ptr [rax]; ret; 
94187788390564: scasd eax, dword ptr [rdi]; nop dword ptr [rax]; ret; 
94187788390562: sbb bl, ch; scasd eax, dword ptr [rdi]; nop dword ptr [rax]; ret; 
94187788390596: ret; 
94187788390595: pop rbp; ret; 
94187788390594: pop r13; ret; 
94187788390593: pop rsp; pop r13; ret; 
94187788390592: pop r12; pop r13; ret; 
94187788390591: pop rbp; pop r12; pop r13; ret; 
94187788390590: pop rbx; pop rbp; pop r12; pop r13; ret; 
94187788390589: rcr byte ptr [rbx + 0x5d], 0x41; pop rsp; pop r13; ret; 
94187788390695: ret; 
94187788390753: ret; 
94187788390752: pop rdi; ret; 
94187788390751: pop r15; ret; 
94187788390750: pop rsi; pop r15; ret; 
94187788390749: pop r14; pop r15; ret; 
94187788390748: pop rbp; pop r14; pop r15; ret; 
94187788390747: pop r13; pop r14; pop r15; ret; 
94187788390746: pop rsp; pop r13; pop r14; pop r15; ret; 
94187788390745: pop r12; pop r13; pop r14; pop r15; ret; 
94187788390836: ret; 
94187788390835: pop rdi; ret; 
94187788390834: pop r15; ret; 
94187788390833: pop rsi; pop r15; ret; 
94187788390832: pop r14; pop r15; ret; 
94187788390831: pop rbp; pop r14; pop r15; ret; 
94187788390830: pop r13; pop r14; pop r15; ret; 
94187788390829: pop rsp; pop r13; pop r14; pop r15; ret; 
94187788390828: pop r12; pop r13; pop r14; pop r15; ret; 
94187788390938: ret; 
94187788390935: add esp, 8; ret; 
94187788390934: add rsp, 8; ret; 
94187788390932: xor eax, eax; add rsp, 8; ret; 
94187788390927: call 0x55a9cdab37b0; xor eax, eax; add rsp, 8; ret; 
94187788390925: add byte ptr [rax], al; call 0x55a9cdab37b0; xor eax, eax; add rsp, 8; ret; 
94187788390922: mov edi, 5; call 0x55a9cdab37b0; xor eax, eax; add rsp, 8; ret; 
94187788390921: sar byte ptr [rdi + 5], cl; call 0x55a9cdab37b0; xor eax, eax; add rsp, 8; ret; 
94187788391012: ret; 
94187788391009: add esp, 0x18; ret; 
94187788391008: add rsp, 0x18; ret; 
94187788391002: mov eax, 0xffffffff; add rsp, 0x18; ret; 
94187788391001: mov rax, -1; add rsp, 0x18; ret; 
94187788390996: call 0x55a9cdab37b0; mov rax, -1; add rsp, 0x18; ret; 
94187788390994: add byte ptr [rax], al; call 0x55a9cdab37b0; mov rax, -1; add rsp, 0x18; ret; 
94187788391062: ret; 
94187788391060: mov eax, ecx; ret; 
94187788391059: mov rax, r9; ret; 
94187788391058: sbb byte ptr [rcx + rcx*4 - 0x38], cl; ret; 
94187788391056: add esp, 0x18; mov rax, r9; ret; 
94187788391055: add rsp, 0x18; mov rax, r9; ret; 
94187788391053: and al, 8; add rsp, 0x18; mov rax, r9; ret; 
94187788391052: and al, 8; add rsp, 0x18; mov rax, r9; ret; 
94187788391051: mov ecx, dword ptr [rsp + 8]; add rsp, 0x18; mov rax, r9; ret; 
94187788391050: mov r9, qword ptr [rsp + 8]; add rsp, 0x18; mov rax, r9; ret; 
94187788391049: dec dword ptr [rbx + rcx*4 + 0x4c]; and al, 8; add rsp, 0x18; mov rax, r9; ret; 
94187788391157: ret; 
94187788391155: xor eax, eax; ret; 
94187788391153: mov dword ptr [rdx], eax; xor eax, eax; ret; 
94187788391152: mov qword ptr [rdx], rax; xor eax, eax; ret; 
94187788391147: or eax, 0xe7618; mov qword ptr [rdx], rax; xor eax, eax; ret; 
94187788391146: mov dword ptr [rip + 0xe7618], ecx; mov qword ptr [rdx], rax; xor eax, eax; ret; 
94187788391145: mov qword ptr [rip + 0xe7618], rcx; mov qword ptr [rdx], rax; xor eax, eax; ret; 
94187788391144: add byte ptr [rax - 0x77], cl; or eax, 0xe7618; mov qword ptr [rdx], rax; xor eax, eax; ret; 
94187788391143: str word ptr [rax - 0x77]; or eax, 0xe7618; mov qword ptr [rdx], rax; xor eax, eax; ret; 
94187788391142: or byte ptr [rdi], 0; mov qword ptr [rip + 0xe7618], rcx; mov qword ptr [rdx], rax; xor eax, eax; ret; 
94187788391141: mov edi, 0x48000f80; mov dword ptr [rip + 0xe7618], ecx; mov qword ptr [rdx], rax; xor eax, eax; ret; 
94187788391140: adc eax, 0xf80bf; mov qword ptr [rip + 0xe7618], rcx; mov qword ptr [rdx], rax; xor eax, eax; ret; 
94187788391139: lea edx, dword ptr [rip + 0xf80bf]; mov qword ptr [rip + 0xe7618], rcx; mov qword ptr [rdx], rax; xor eax, eax; ret; 
94187788391138: lea rdx, qword ptr [rip + 0xf80bf]; mov qword ptr [rip + 0xe7618], rcx; mov qword ptr [rdx], rax; xor eax, eax; ret; 
94187788391277: ret; 
94187788391276: pop rbp; ret; 
94187788391275: pop rbx; pop rbp; ret; 
94187788391274: or byte ptr [rbx + 0x5d], bl; ret; 
94187788391272: add esp, 8; pop rbx; pop rbp; ret; 
94187788391271: add rsp, 8; pop rbx; pop rbp; ret; 
94187788391270: ror byte ptr [rax - 0x7d], 0xc4; or byte ptr [rbx + 0x5d], bl; ret; 
94187788391269: xor eax, eax; add rsp, 8; pop rbx; pop rbp; ret; 
94187788391268: add byte ptr [rcx], dh; ror byte ptr [rax - 0x7d], 0xc4; or byte ptr [rbx + 0x5d], bl; ret; 
94187788391360: ret; 
94187788391357: sbb cl, byte ptr [rax - 0x7d]; ret; 
94187788391375: ret; 
94187788391374: pop rbp; ret; 
94187788391373: pop rbx; pop rbp; ret; 
94187788391371: xor eax, eax; pop rbx; pop rbp; ret; 
94187788391368: add esp, 8; xor eax, eax; pop rbx; pop rbp; ret; 
94187788391367: add rsp, 8; xor eax, eax; pop rbx; pop rbp; ret; 
94187788391389: ret; 
94187788391388: pop rbp; ret; 
94187788391387: pop rbx; pop rbp; ret; 
94187788391386: lcall ptr [rbx + 0x5d]; ret; 
94187788391381: mov eax, 0xffffffff; pop rbx; pop rbp; ret; 
94187788391380: mov rax, -1; pop rbx; pop rbp; ret; 
94187788391377: add esp, 8; mov rax, -1; pop rbx; pop rbp; ret; 
94187788391376: add rsp, 8; mov rax, -1; pop rbx; pop rbp; ret; 
94187788391375: ret; 
94187788391392: ret; 
94187788391390: xor eax, eax; ret; 
94187788391389: ret; 
94187788391438: ret; 
94187788391435: add byte ptr [rcx - 0x7d], cl; ret; 
94187788391433: add dword ptr [rax], eax; add byte ptr [rcx - 0x7d], cl; ret; 
94187788391726: ret; 
94187788391725: pop rbp; ret; 
94187788391724: pop rbx; pop rbp; ret; 
94187788391723: add dword ptr [rbx + 0x5d], ebx; ret; 
94187788391722: rol byte ptr [rcx], 0x5b; pop rbp; ret; 
94187788391721: add eax, 1; pop rbx; pop rbp; ret; 
94187788391720: add rax, 1; pop rbx; pop rbp; ret; 
94187788391719: add byte ptr [rax - 0x7d], cl; rol byte ptr [rcx], 0x5b; pop rbp; ret; 
94187788391718: add byte ptr [rax], al; add rax, 1; pop rbx; pop rbp; ret; 
94187788391717: add byte ptr [rax], al; add byte ptr [rax - 0x7d], cl; rol byte ptr [rcx], 0x5b; pop rbp; ret; 
94187788391973: ret; 
94187788391970: add byte ptr [rax - 0x39], cl; ret; 
94187788391968: test eax, 0xc7480009; ret; 
94187788392000: ret; 
94187788391999: pop rdi; ret; 
94187788391998: pop r15; ret; 
94187788391997: pop rsi; pop r15; ret; 
94187788391996: pop r14; pop r15; ret; 
94187788391995: pop rbp; pop r14; pop r15; ret; 
94187788391994: pop r13; pop r14; pop r15; ret; 
94187788391993: pop rsp; pop r13; pop r14; pop r15; ret; 
94187788391992: pop r12; pop r13; pop r14; pop r15; ret; 
94187788392614: ret; 
94187788392611: add byte ptr [rax - 0x39], cl; ret; 
94187788392609: add byte ptr [rax], al; add byte ptr [rax - 0x39], cl; ret; 
94187788392673: ret; 
94187788392670: add byte ptr [rax - 0x39], cl; ret; 
94187788392668: add byte ptr [rax], al; add byte ptr [rax - 0x39], cl; ret; 
94187788392713: ret; 
94187788392710: add byte ptr [rax - 0x39], cl; ret; 
94187788392708: add byte ptr [rax], al; add byte ptr [rax - 0x39], cl; ret; 
94187788392795: ret; 
94187788392793: sub eax, edx; ret; 
94187788392792: sub rax, rdx; ret; 
94187788392788: movzx edx, word ptr [rsi + 0x10]; sub rax, rdx; ret; 
94187788392784: movzx eax, word ptr [rdi + 0x10]; movzx edx, word ptr [rsi + 0x10]; sub rax, rdx; ret; 
94187788392780: nop dword ptr [rax]; movzx eax, word ptr [rdi + 0x10]; movzx edx, word ptr [rsi + 0x10]; sub rax, rdx; ret; 
94187788392850: ret; 
94187788392895: ret; 
94187788392894: pop rsp; ret; 
94187788392893: pop r12; ret; 
94187788392892: pop rbp; pop r12; ret; 
94187788392891: clc; pop rbp; pop r12; ret; 
94187788392890: mov eax, edi; pop rbp; pop r12; ret; 
94187788392889: mov rax, rdi; pop rbp; pop r12; ret; 
94187788392888: pop rbx; mov rax, rdi; pop rbp; pop r12; ret; 
94187788392887: add byte ptr [rbx + 0x48], bl; mov eax, edi; pop rbp; pop r12; ret; 
94187788392922: ret; 
94187788393009: ret; 
94187788393008: pop rsp; ret; 
94187788393007: pop r12; ret; 
94187788393006: pop rbp; pop r12; ret; 
94187788393005: add dword ptr [rbp + 0x41], ebx; pop rsp; ret; 
94187788393004: and byte ptr [rcx], al; pop rbp; pop r12; ret; 
94187788393003: and byte ptr [r9], r8b; pop rbp; pop r12; ret; 
94187788393002: mov byte ptr [rbp + 0x20], 1; pop rbp; pop r12; ret; 
94187788393001: adc dh, al; and byte ptr [r9], r8b; pop rbp; pop r12; ret; 
94187788393000: adc dh, al; and byte ptr [r9], r8b; pop rbp; pop r12; ret; 
94187788392999: mov dword ptr [rbp + 0x10], esp; mov byte ptr [rbp + 0x20], 1; pop rbp; pop r12; ret; 
94187788392998: mov qword ptr [rbp + 0x10], r12; mov byte ptr [rbp + 0x20], 1; pop rbp; pop r12; ret; 
94187788393094: ret; 
94187788393141: ret; 
94187788393140: pop rsi; ret; 
94187788393139: pop r14; ret; 
94187788393138: pop rbp; pop r14; ret; 
94187788393137: pop r13; pop r14; ret; 
94187788393136: add dword ptr [rcx + 0x5d], eax; pop r14; ret; 
94187788393135: and byte ptr [rcx], al; pop r13; pop r14; ret; 
94187788393134: and byte ptr [rcx], r8b; pop r13; pop r14; ret; 
94187788393133: mov byte ptr [rsi + 0x20], 1; pop r13; pop r14; ret; 
94187788393132: mov byte ptr [r14 + 0x20], 1; pop r13; pop r14; ret; 
94187788393131: pop rsp; mov byte ptr [r14 + 0x20], 1; pop r13; pop r14; ret; 
94187788393130: pop r12; mov byte ptr [r14 + 0x20], 1; pop r13; pop r14; ret; 
94187788393129: adc byte ptr [rcx + 0x5c], al; mov byte ptr [r14 + 0x20], 1; pop r13; pop r14; ret; 
94187788393128: adc byte ptr [rcx + 0x5c], r8b; mov byte ptr [r14 + 0x20], 1; pop r13; pop r14; ret; 
94187788393307: ret; 
94187788393306: pop rsi; ret; 
94187788393305: pop r14; ret; 
94187788393304: pop rbp; pop r14; ret; 
94187788393303: pop r13; pop r14; ret; 
94187788393302: pop rsp; pop r13; pop r14; ret; 
94187788393301: pop r12; pop r13; pop r14; ret; 
94187788393300: pop rbp; pop r12; pop r13; pop r14; ret; 
94187788393477: ret; 
94187788393476: pop rsi; ret; 
94187788393475: pop r14; ret; 
94187788393474: pop rbp; pop r14; ret; 
94187788393473: pop r13; pop r14; ret; 
94187788393472: pop rsp; pop r13; pop r14; ret; 
94187788393471: pop r12; pop r13; pop r14; ret; 
94187788393470: pop rbp; pop r12; pop r13; pop r14; ret; 
94187788393558: ret; 
94187788393557: pop rsi; ret; 
94187788393556: pop r14; ret; 
94187788393555: pop rbp; pop r14; ret; 
94187788393554: pop r13; pop r14; ret; 
94187788393553: pop rsp; pop r13; pop r14; ret; 
94187788393552: pop r12; pop r13; pop r14; ret; 
94187788393551: pop rbp; pop r12; pop r13; pop r14; ret; 
94187788393642: ret; 
94187788393641: pop rbp; ret; 
94187788393640: pop rbx; pop rbp; ret; 
94187788393638: mov eax, ecx; pop rbx; pop rbp; ret; 
94187788393637: mov rax, rcx; pop rbx; pop rbp; ret; 
94187788393634: add esp, 8; mov rax, rcx; pop rbx; pop rbp; ret; 
94187788393633: add rsp, 8; mov rax, rcx; pop rbx; pop rbp; ret; 
94187788393692: ret; 
94187788393691: pop rbx; ret; 
94187788393689: mov eax, ecx; pop rbx; ret; 
94187788393688: mov rax, rcx; pop rbx; ret; 
94187788393687: ror dword ptr [rax - 0x77], -0x38; pop rbx; ret; 
94187788393686: mov ecx, eax; mov rax, rcx; pop rbx; ret; 
94187788393685: mov rcx, rax; mov rax, rcx; pop rbx; ret; 
94187788393684: dec dword ptr [rax - 0x77]; ror dword ptr [rax - 0x77], -0x38; pop rbx; ret; 
94187788393680: call 0x55a9cda9c170; mov rcx, rax; mov rax, rcx; pop rbx; ret; 
94187788393901: ret; 
94187788394030: ret; 
94187788394027: sub byte ptr [rax - 0x7d], cl; ret; 
94187788394102: ret; 
94187788394101: pop rdi; ret; 
94187788394100: pop r15; ret; 
94187788394099: pop rsi; pop r15; ret; 
94187788394098: pop r14; pop r15; ret; 
94187788394097: pop rbp; pop r14; pop r15; ret; 
94187788394096: pop r13; pop r14; pop r15; ret; 
94187788394095: pop rsp; pop r13; pop r14; pop r15; ret; 
94187788394094: pop r12; pop r13; pop r14; pop r15; ret; 
94187788394382: ret; 
94187788394381: pop rsi; ret; 
94187788394380: pop r14; ret; 
94187788394379: pop rbp; pop r14; ret; 
94187788394378: pop r13; pop r14; ret; 
94187788394377: pop rsp; pop r13; pop r14; ret; 
94187788394376: pop r12; pop r13; pop r14; ret; 
94187788394375: pop rbp; pop r12; pop r13; pop r14; ret; 
94187788394374: rcr byte ptr [rbp + 0x41], 0x5c; pop r13; pop r14; ret; 
94187788394395: ret; 
94187788394394: pop rsi; ret; 
94187788394393: pop r14; ret; 
94187788394392: pop rbp; pop r14; ret; 
94187788394391: pop r13; pop r14; ret; 
94187788394390: pop rsp; pop r13; pop r14; ret; 
94187788394389: pop r12; pop r13; pop r14; ret; 
94187788394388: pop rbp; pop r12; pop r13; pop r14; ret; 
94187788394398: ret; 
94187788394396: xor eax, eax; ret; 
94187788394395: ret; 
94187788391340: call rax; 
94187788391339: out dx, eax; call rax; 
94187788391338: mov edi, ebp; call rax; 
94187788391337: mov rdi, rbp; call rax; 
94187788391336: adc dword ptr [rax - 0x77], ecx; out dx, eax; call rax; 
94187788391334: sal byte ptr [rcx + rdx + 0x48], 0x89; out dx, eax; call rax; 
94187788392337: call rax; 
94187788392335: and al, 0x10; call rax; 
94187788392333: mov edi, dword ptr [rsp + 0x10]; call rax; 
94187788392332: mov rdi, qword ptr [rsp + 0x10]; call rax; 
94187788392328: movabs dword ptr [0x10247c8b48fffffe], eax; call rax; 
94187788392327: test byte ptr [rbx + 0x48fffffe], ah; mov edi, dword ptr [rsp + 0x10]; call rax; 
94187788392325: ror byte ptr [rdi], 0x84; movabs dword ptr [0x10247c8b48fffffe], eax; call rax; 
94187788392322: adc byte ptr [rax - 0x7b], cl; ror byte ptr [rdi], 0x84; movabs dword ptr [0x10247c8b48fffffe], eax; call rax; 
94187788392321: adc byte ptr [rax - 0x7b], cl; ror byte ptr [rdi], 0x84; movabs dword ptr [0x10247c8b48fffffe], eax; call rax; 
94187788392318: cmp byte ptr [rax - 0x75], cl; adc byte ptr [rax - 0x7b], cl; ror byte ptr [rdi], 0x84; movabs dword ptr [0x10247c8b48fffffe], eax; call rax; 
94187788392317: cmp byte ptr [r8 - 0x75], r9b; adc byte ptr [rax - 0x7b], cl; ror byte ptr [rdi], 0x84; movabs dword ptr [0x10247c8b48fffffe], eax; call rax; 
94187788392736: jmp qword ptr [rsi + 0x2e]; 
94187788394177: jmp qword ptr [rsi + 0x41]; 
94187788394174: cmp dword ptr [rbp + 0x31], eax; jmp qword ptr [rsi + 0x41]; 
94187788394436: jmp qword ptr [rsi - 0x7d]; 
94187788394433: sub ebp, dword ptr [rax - 2]; jmp qword ptr [rsi - 0x7d]; 
94187788394431: add eax, 0xfe682be8; jmp qword ptr [rsi - 0x7d]; 
94187788394429: push qword ptr [rbp + rax - 0x18]; sub ebp, dword ptr [rax - 2]; jmp qword ptr [rsi - 0x7d]; 
94187788394426: cmp byte ptr [rax - 0x7b], cl; push qword ptr [rbp + rax - 0x18]; sub ebp, dword ptr [rax - 2]; jmp qword ptr [rsi - 0x7d]; 
94187788391462: ret 0x3948; 
94187788391468: ret 0xb60f; 
94187788391467: xchg eax, esp; ret 0xb60f; 
94187788391462: ret 0x3948; 
94187788391477: ret 0x4d08; 
94187788391474: ror dword ptr [rcx - 0x7d], 1; ret 0x4d08; 
94187788391471: ror byte ptr [rax + 1], cl; ror dword ptr [rcx - 0x7d], 1; ret 0x4d08; 
94187788391468: ret 0xb60f; 
94187788391624: ret 0x4d08; 
94187788391695: ret 0x8348; 
94187788393165: ret 0xffff; 
94187788393162: add byte ptr [rcx - 0x39], cl; ret 0xffff; 
94187788393160: add byte ptr [rax], al; add byte ptr [rcx - 0x39], cl; ret 0xffff; 
94187788393159: add byte ptr [rax], 0; add byte ptr [rcx - 0x39], cl; ret 0xffff; 
94187788390894: call qword ptr [rax + 0x8ec8348]; 
94187788394142: call qword ptr [rax + 0x24448948]; 
94187788392763: jmp qword ptr [rdi + 0xb0]; 
94187788392761: add byte ptr [rax], al; jmp qword ptr [rdi + 0xb0]; 
94187788392758: and byte ptr [rsi], ch; add byte ptr [rax], al; jmp qword ptr [rdi + 0xb0]; 
94187788392757: and byte ptr [r14], r13b; add byte ptr [rax], al; jmp qword ptr [rdi + 0xb0]; 
94187788392756: mov dword ptr [rdi + 0x20], 0x6e; jmp qword ptr [rdi + 0xb0]; 
94187788392755: mov qword ptr [rdi + 0x20], 0x6e; jmp qword ptr [rdi + 0xb0]; 
94187788392753: mov edi, dword ptr [rdi]; mov qword ptr [rdi + 0x20], 0x6e; jmp qword ptr [rdi + 0xb0]; 
94187788392752: mov rdi, qword ptr [rdi]; mov qword ptr [rdi + 0x20], 0x6e; jmp qword ptr [rdi + 0xb0]; 
94187788392750: add byte ptr [rax], al; mov rdi, qword ptr [rdi]; mov qword ptr [rdi + 0x20], 0x6e; jmp qword ptr [rdi + 0xb0]; 
94187788392749: add byte ptr [rax], r8b; mov rdi, qword ptr [rdi]; mov qword ptr [rdi + 0x20], 0x6e; jmp qword ptr [rdi + 0xb0]; 
94187788392747: nop dword ptr [rax + rax]; mov rdi, qword ptr [rdi]; mov qword ptr [rdi + 0x20], 0x6e; jmp qword ptr [rdi + 0xb0]; 
94187788392745: add byte ptr [rax], al; nop dword ptr [rax + rax]; mov rdi, qword ptr [rdi]; mov qword ptr [rdi + 0x20], 0x6e; jmp qword ptr [rdi + 0xb0]; 
94187788386825: ret; 
94187788386822: test byte ptr [rdi], 0x84; ret; 
94187788386831: ret; 
94187788386828: add byte ptr [rax - 0x7d], cl; ret; 
94187788386826: add eax, 0x83480000; ret; 
94187788386825: ret; 
94187788386924: ret; 
94187788388134: ret; 
94187788388608: ret; 
94187788388607: pop rbx; ret; 
94187788388605: add byte ptr [rax], al; pop rbx; ret; 
94187788388601: add esp, 0x160; pop rbx; ret; 
94187788388600: add rsp, 0x160; pop rbx; ret; 
94187788388597: add byte ptr [rbp + 9], dh; add rsp, 0x160; pop rbx; ret; 
94187788388595: add byte ptr [rax], al; add byte ptr [rbp + 9], dh; add rsp, 0x160; pop rbx; ret; 
94187788389081: ret; 
94187788389080: pop rsi; ret; 
94187788389079: pop r14; ret; 
94187788389078: pop rbp; pop r14; ret; 
94187788389077: pop r13; pop r14; ret; 
94187788389076: pop rsp; pop r13; pop r14; ret; 
94187788389075: pop r12; pop r13; pop r14; ret; 
94187788389074: pop rbp; pop r12; pop r13; pop r14; ret; 
94187788389240: ret; 
94187788389239: pop rbp; ret; 
94187788389238: pop r13; ret; 
94187788389237: pop rsp; pop r13; ret; 
94187788389236: pop r12; pop r13; ret; 
94187788389235: pop rbp; pop r12; pop r13; ret; 
94187788389234: pop rbx; pop rbp; pop r12; pop r13; ret; 
94187788389233: or byte ptr [rbx + 0x5d], bl; pop r12; pop r13; ret; 
94187788389426: ret; 
94187788389597: ret; 
94187788389596: pop rsp; ret; 
94187788389595: pop r12; ret; 
94187788389594: pop rbp; pop r12; ret; 
94187788389592: mov eax, esi; pop rbp; pop r12; ret; 
94187788389591: mov rax, rsi; pop rbp; pop r12; ret; 
94187788389590: pop rbx; mov rax, rsi; pop rbp; pop r12; ret; 
94187788389589: lcall ptr [rbx + 0x48]; mov eax, esi; pop rbp; pop r12; ret; 
94187788389733: ret; 
94187788389732: pop rsp; ret; 
94187788389731: pop r12; ret; 
94187788389730: pop rbp; pop r12; ret; 
94187788389728: mov eax, esi; pop rbp; pop r12; ret; 
94187788389727: mov rax, rsi; pop rbp; pop r12; ret; 
94187788389726: pop rbx; mov rax, rsi; pop rbp; pop r12; ret; 
94187788389725: lcall ptr [rbx + 0x48]; mov eax, esi; pop rbp; pop r12; ret; 
94187788389772: ret; 
94187788389771: pop rsp; ret; 
94187788389770: pop r12; ret; 
94187788389769: pop rbp; pop r12; ret; 
94187788389768: pop rbx; pop rbp; pop r12; ret; 
94187788389767: or byte ptr [rbx + 0x5d], bl; pop r12; ret; 
94187788389765: push qword ptr [rax + rcx + 0x5b]; pop rbp; pop r12; ret; 
94187788389884: ret; 
94187788389883: pop rsp; ret; 
94187788389882: pop r12; ret; 
94187788389881: pop rbp; pop r12; ret; 
94187788389880: pop rbx; pop rbp; pop r12; ret; 
94187788389879: or byte ptr [rbx + 0x5d], bl; pop r12; ret; 
94187788389877: push qword ptr [rax + rcx + 0x5b]; pop rbp; pop r12; ret; 
94187788389996: ret; 
94187788389995: pop rsp; ret; 
94187788389994: pop r12; ret; 
94187788389993: pop rbp; pop r12; ret; 
94187788389992: pop rbx; pop rbp; pop r12; ret; 
94187788389991: or byte ptr [rbx + 0x5d], bl; pop r12; ret; 
94187788389989: push qword ptr [rax + rcx + 0x5b]; pop rbp; pop r12; ret; 
94187788390108: ret; 
94187788390107: pop rsp; ret; 
94187788390106: pop r12; ret; 
94187788390105: pop rbp; pop r12; ret; 
94187788390104: pop rbx; pop rbp; pop r12; ret; 
94187788390103: or byte ptr [rbx + 0x5d], bl; pop r12; ret; 
94187788390101: push qword ptr [rax + rcx + 0x5b]; pop rbp; pop r12; ret; 
94187788390220: ret; 
94187788390219: pop rsp; ret; 
94187788390218: pop r12; ret; 
94187788390217: pop rbp; pop r12; ret; 
94187788390216: pop rbx; pop rbp; pop r12; ret; 
94187788390215: or byte ptr [rbx + 0x5d], bl; pop r12; ret; 
94187788390213: push qword ptr [rax + rcx + 0x5b]; pop rbp; pop r12; ret; 
94187788390336: ret; 
94187788390335: pop rbp; ret; 
94187788390334: pop rbx; pop rbp; ret; 
94187788390333: or byte ptr [rbx + 0x5d], bl; ret; 
94187788390331: add esp, 8; pop rbx; pop rbp; ret; 
94187788390330: add rsp, 8; pop rbx; pop rbp; ret; 
94187788390327: add byte ptr [rsi + rcx + 0x48], dh; add esp, 8; pop rbx; pop rbp; ret; 
94187788389320: jmp rcx; 
94187788389319: pop rbp; jmp rcx; 
94187788389318: pop r13; jmp rcx; 
94187788389317: pop rsp; pop r13; jmp rcx; 
94187788389316: pop r12; pop r13; jmp rcx; 
94187788389315: pop rbp; pop r12; pop r13; jmp rcx; 
94187788389313: mov esi, eax; pop rbp; pop r12; pop r13; jmp rcx; 
94187788389312: mov rsi, rax; pop rbp; pop r12; pop r13; jmp rcx; 
94187788389462: jmp rcx; 
94187788389460: mov esi, eax; jmp rcx; 
94187788389459: mov rsi, rax; jmp rcx; 
94187788389457: mov ecx, dword ptr [rax]; mov rsi, rax; jmp rcx; 
94187788389456: mov rcx, qword ptr [rax]; mov rsi, rax; jmp rcx; 
94187788389546: jmp rcx; 
94187788389545: pop rsp; jmp rcx; 
94187788389544: pop r12; jmp rcx; 
94187788389542: mov ecx, dword ptr [rsi]; pop r12; jmp rcx; 
94187788389541: mov rcx, qword ptr [rsi]; pop r12; jmp rcx; 
94187788389539: mov edx, eax; mov rcx, qword ptr [rsi]; pop r12; jmp rcx; 
94187788389538: mov rdx, rax; mov rcx, qword ptr [rsi]; pop r12; jmp rcx; 
94187788389537: pop rbp; mov rdx, rax; mov rcx, qword ptr [rsi]; pop r12; jmp rcx; 
94187788389536: out 0x5d, eax; mov rdx, rax; mov rcx, qword ptr [rsi]; pop r12; jmp rcx; 
94187788389682: jmp rcx; 
94187788389681: pop rsp; jmp rcx; 
94187788389680: pop r12; jmp rcx; 
94187788389678: mov ecx, dword ptr [rsi]; pop r12; jmp rcx; 
94187788389677: mov rcx, qword ptr [rsi]; pop r12; jmp rcx; 
94187788389675: mov edx, eax; mov rcx, qword ptr [rsi]; pop r12; jmp rcx; 
94187788389674: mov rdx, rax; mov rcx, qword ptr [rsi]; pop r12; jmp rcx; 
94187788389673: pop rbp; mov rdx, rax; mov rcx, qword ptr [rsi]; pop r12; jmp rcx; 
94187788389672: out 0x5d, eax; mov rdx, rax; mov rcx, qword ptr [rsi]; pop r12; jmp rcx; 
94187788389836: jmp rcx; 
94187788389835: pop rsp; jmp rcx; 
94187788389834: pop r12; jmp rcx; 
94187788389832: mov esi, eax; pop r12; jmp rcx; 
94187788389831: mov rsi, rax; pop r12; jmp rcx; 
94187788389830: pop rbp; mov rsi, rax; pop r12; jmp rcx; 
94187788389829: or byte ptr [rbp + 0x48], bl; mov esi, eax; pop r12; jmp rcx; 
94187788389828: mov ecx, dword ptr [rax]; pop rbp; mov rsi, rax; pop r12; jmp rcx; 
94187788389827: mov rcx, qword ptr [rax]; pop rbp; mov rsi, rax; pop r12; jmp rcx; 
94187788389944: jmp rcx; 
94187788389943: pop rsp; jmp rcx; 
94187788389942: pop r12; jmp rcx; 
94187788389940: mov esi, eax; pop r12; jmp rcx; 
94187788389939: mov rsi, rax; pop r12; jmp rcx; 
94187788389938: pop rbp; mov rsi, rax; pop r12; jmp rcx; 
94187788389937: or byte ptr [rbp + 0x48], bl; mov esi, eax; pop r12; jmp rcx; 
94187788389936: mov ecx, dword ptr [rax]; pop rbp; mov rsi, rax; pop r12; jmp rcx; 
94187788389935: mov rcx, qword ptr [rax]; pop rbp; mov rsi, rax; pop r12; jmp rcx; 
94187788390056: jmp rcx; 
94187788390055: pop rsp; jmp rcx; 
94187788390054: pop r12; jmp rcx; 
94187788390052: mov esi, eax; pop r12; jmp rcx; 
94187788390051: mov rsi, rax; pop r12; jmp rcx; 
94187788390050: pop rbp; mov rsi, rax; pop r12; jmp rcx; 
94187788390049: or byte ptr [rbp + 0x48], bl; mov esi, eax; pop r12; jmp rcx; 
94187788390048: mov ecx, dword ptr [rax]; pop rbp; mov rsi, rax; pop r12; jmp rcx; 
94187788390047: mov rcx, qword ptr [rax]; pop rbp; mov rsi, rax; pop r12; jmp rcx; 
94187788390170: jmp rcx; 
94187788390169: pop rsp; jmp rcx; 
94187788390168: pop r12; jmp rcx; 
94187788390166: mov esi, eax; pop r12; jmp rcx; 
94187788390165: mov rsi, rax; pop r12; jmp rcx; 
94187788390164: pop rbp; mov rsi, rax; pop r12; jmp rcx; 
94187788390163: or byte ptr [rbp + 0x48], bl; mov esi, eax; pop r12; jmp rcx; 
94187788390162: mov ecx, dword ptr [rax]; pop rbp; mov rsi, rax; pop r12; jmp rcx; 
94187788390161: mov rcx, qword ptr [rax]; pop rbp; mov rsi, rax; pop r12; jmp rcx; 
94187788390285: jmp rcx; 
94187788390284: pop rsp; jmp rcx; 
94187788390283: pop r12; jmp rcx; 
94187788390281: mov esi, eax; pop r12; jmp rcx; 
94187788390280: mov rsi, rax; pop r12; jmp rcx; 
94187788390279: pop rbp; mov rsi, rax; pop r12; jmp rcx; 
94187788390278: or byte ptr [rbp + 0x48], bl; mov esi, eax; pop r12; jmp rcx; 
94187788390277: mov ecx, dword ptr [rax]; pop rbp; mov rsi, rax; pop r12; jmp rcx; 
94187788390276: mov rcx, qword ptr [rax]; pop rbp; mov rsi, rax; pop r12; jmp rcx; 
94187788386365: jmp qword ptr [rsi - 0x70]; 
94187788386637: jmp qword ptr [rsi - 0x70]; 
94187788386678: jmp qword ptr [rsi + 0xf]; 
94187788386737: jmp qword ptr [rsi + 0xf]; 
94187788387117: jmp qword ptr [rsi - 0x70]; 
94187788387221: jmp qword ptr [rsi + 0x2e]; 
94187788387219: idiv bh; jmp qword ptr [rsi + 0x2e]; 
94187788387413: jmp qword ptr [rsi + 0x2e]; 
94187788387513: jmp qword ptr [rsi + 0xf]; 
94187788387510: sar dl, 0xff; jmp qword ptr [rsi + 0xf]; 
94187788387609: jmp qword ptr [rsi + 0xf]; 
94187788388025: jmp qword ptr [rsi + 0xf]; 
94187788388214: jmp qword ptr [rsi + 0xf]; 
94187788388389: jmp qword ptr [rsi + 0x2e]; 
94187788388613: jmp qword ptr [rsi + 0x2e]; 
94187788388611: test esi, edi; jmp qword ptr [rsi + 0x2e]; 
94187788389033: jmp qword ptr [rsi + 0xf]; 
94187788389142: jmp qword ptr [rsi + 0xf]; 
94187788386517: ret 0x4901; 
94187788386514: dec dword ptr [rax - 0x7d]; ret 0x4901; 
94187788386513: dec qword ptr [rax - 0x7d]; ret 0x4901; 
94187788386603: ret 0xeb02; 
94187788386600: or cl, byte ptr [rax - 0x7d]; ret 0xeb02; 
94187788386978: ret 0x8901; 
94187788386975: dec dword ptr [rax - 0x7d]; ret 0x8901; 
94187788387342: ret 0x894c; 
94187788388020: ret 0x55e9; 
94187788388070: ret 0xe902; 
94187788388067: or dword ptr [rax - 0x7d], ecx; ret 0xe902; 
94187788388086: ret 0xe902; 
94187788388119: ret 0xf2e9; 
94187788389500: ret 0xfffe; 
94187788389540: ret 0x8b48; 
94187788389627: ret 0xfffe; 
94187788389626: push rdx; ret 0xfffe; 
94187788389622: push qword ptr [rdi + rdi - 0x18]; push rdx; ret 0xfffe; 
94187788389619: cmp ecx, dword ptr [rax - 0x7b]; push qword ptr [rdi + rdi - 0x18]; push rdx; ret 0xfffe; 
94187788389616: ror dword ptr [rax - 0x75], cl; cmp ecx, dword ptr [rax - 0x7b]; push qword ptr [rdi + rdi - 0x18]; push rdx; ret 0xfffe; 
94187788389676: ret 0x8b48; 
94187788388110: call qword ptr [rax + 0x8468b49]; 
94187788312675: ret; 
94187788312674: pop rdi; ret; 
94187788312673: pop r15; ret; 
94187788312672: pop rsi; pop r15; ret; 
94187788312671: pop r14; pop r15; ret; 
94187788312670: pop rbp; pop r14; pop r15; ret; 
94187788312669: pop r13; pop r14; pop r15; ret; 
94187788312668: pop rsp; pop r13; pop r14; pop r15; ret; 
94187788312667: pop r12; pop r13; pop r14; pop r15; ret; 
94187788312974: ret; 
94187788312973: pop rdi; ret; 
94187788312972: pop r15; ret; 
94187788312971: pop rsi; pop r15; ret; 
94187788312970: pop r14; pop r15; ret; 
94187788312969: pop rbp; pop r14; pop r15; ret; 
94187788312968: pop r13; pop r14; pop r15; ret; 
94187788312967: pop rsp; pop r13; pop r14; pop r15; ret; 
94187788312966: pop r12; pop r13; pop r14; pop r15; ret; 
94187788313029: ret; 
94187788313028: pop rdi; ret; 
94187788313027: pop r15; ret; 
94187788313026: pop rsi; pop r15; ret; 
94187788313025: pop r14; pop r15; ret; 
94187788313024: pop rbp; pop r14; pop r15; ret; 
94187788313023: pop r13; pop r14; pop r15; ret; 
94187788313022: pop rsp; pop r13; pop r14; pop r15; ret; 
94187788313021: pop r12; pop r13; pop r14; pop r15; ret; 
94187788314177: ret; 
94187788314217: ret; 
94187788314216: pop rsp; ret; 
94187788314215: pop r12; ret; 
94187788314214: pop rbp; pop r12; ret; 
94187788314213: pop rbx; pop rbp; pop r12; ret; 
94187788314212: add dword ptr [rbx + 0x5d], ebx; pop r12; ret; 
94187788314211: add qword ptr [rbx + 0x5d], rbx; pop r12; ret; 
94187788314210: add qword ptr [rbx + 0x5d], rbx; pop r12; ret; 
94187788314209: or byte ptr [rbx + 0x48], 1; pop rbx; pop rbp; pop r12; ret; 
94187788314208: fadd dword ptr [rax + 0x5b01484b]; pop rbp; pop r12; ret; 
94187788314233: ret; 
94187788314232: pop rsp; ret; 
94187788314231: pop r12; ret; 
94187788314230: pop rbp; pop r12; ret; 
94187788314229: pop rbx; pop rbp; pop r12; ret; 
94187788314228: fcomp dword ptr [rbx + 0x5d]; pop r12; ret; 
94187788314227: mov eax, ebx; pop rbx; pop rbp; pop r12; ret; 
94187788314226: mov rax, rbx; pop rbx; pop rbp; pop r12; ret; 
94187788314225: fisttp dword ptr [rax - 0x77]; fcomp dword ptr [rbx + 0x5d]; pop r12; ret; 
94187788314257: ret; 
94187788314254: mov dword ptr [rdi + 0x30], edx; ret; 
94187788314253: mov qword ptr [rdi + 0x30], rdx; ret; 
94187788314250: mov edx, dword ptr [rax + 8]; mov qword ptr [rdi + 0x30], rdx; ret; 
94187788314249: mov rdx, qword ptr [rax + 8]; mov qword ptr [rdi + 0x30], rdx; ret; 
94187788314439: ret; 
94187788314436: dec dword ptr [rax - 0x77]; ret; 
94187788314434: in eax, 0xff; dec dword ptr [rax - 0x77]; ret; 
94187788314477: ret; 
94187788314476: pop rdi; ret; 
94187788314475: pop r15; ret; 
94187788314474: pop rsi; pop r15; ret; 
94187788314473: pop r14; pop r15; ret; 
94187788314472: pop rbp; pop r14; pop r15; ret; 
94187788314471: pop r13; pop r14; pop r15; ret; 
94187788314470: pop rsp; pop r13; pop r14; pop r15; ret; 
94187788314469: pop r12; pop r13; pop r14; pop r15; ret; 
94187788314618: ret; 
94187788314617: pop rsp; ret; 
94187788314616: pop r12; ret; 
94187788314615: pop rbp; pop r12; ret; 
94187788314614: pop rbx; pop rbp; pop r12; ret; 
94187788314613: rcr byte ptr [rbx + 0x5d], 0x41; pop rsp; ret; 
94187788314612: xor eax, eax; pop rbx; pop rbp; pop r12; ret; 
94187788314611: add byte ptr [rcx], dh; rcr byte ptr [rbx + 0x5d], 0x41; pop rsp; ret; 
94187788314643: ret; 
94187788314642: pop rsp; ret; 
94187788314641: pop r12; ret; 
94187788314640: pop rbp; pop r12; ret; 
94187788314639: pop rbx; pop rbp; pop r12; ret; 
94187788314638: lcall ptr [rbx + 0x5d]; pop r12; ret; 
94187788314633: mov eax, 0xffffffff; pop rbx; pop rbp; pop r12; ret; 
94187788314632: mov rax, -1; pop rbx; pop rbp; pop r12; ret; 
94187788314690: ret; 
94187788314689: pop rsp; ret; 
94187788314688: pop r12; ret; 
94187788314687: pop rbp; pop r12; ret; 
94187788314686: pop rbx; pop rbp; pop r12; ret; 
94187788314685: fcomp dword ptr [rbx + 0x5d]; pop r12; ret; 
94187788314684: mov eax, ebx; pop rbx; pop rbp; pop r12; ret; 
94187788314683: mov rax, rbx; pop rbx; pop rbp; pop r12; ret; 
94187788314682: add byte ptr [rax - 0x77], cl; fcomp dword ptr [rbx + 0x5d]; pop r12; ret; 
94187788314753: ret; 
94187788314752: pop rsp; ret; 
94187788314751: pop r12; ret; 
94187788314750: pop rbp; pop r12; ret; 
94187788314749: pop rbx; pop rbp; pop r12; ret; 
94187788314748: fcomp dword ptr [rbx + 0x5d]; pop r12; ret; 
94187788314747: mov eax, ebx; pop rbx; pop rbp; pop r12; ret; 
94187788314746: mov rax, rbx; pop rbx; pop rbp; pop r12; ret; 
94187788314867: ret; 
94187788315062: ret; 
94187788315059: ror dword ptr [rbp + 0x29], cl; ret; 
94187788315056: fimul dword ptr [rcx - 0x77]; ror dword ptr [rbp + 0x29], cl; ret; 
94187788315076: ret; 
94187788315074: mov dword ptr [rdi], ecx; ret; 
94187788315073: mov qword ptr [rdi], rcx; ret; 
94187788315070: cmovl eax, esi; mov qword ptr [rdi], rcx; ret; 
94187788315069: cmovl rax, rsi; mov qword ptr [rdi], rcx; ret; 
94187788315067: cmp ecx, edx; cmovl rax, rsi; mov qword ptr [rdi], rcx; ret; 
94187788315066: cmp r9, rdx; cmovl rax, rsi; mov qword ptr [rdi], rcx; ret; 
94187788315064: add eax, ebx; cmp r9, rdx; cmovl rax, rsi; mov qword ptr [rdi], rcx; ret; 
94187788315063: add rax, r11; cmp r9, rdx; cmovl rax, rsi; mov qword ptr [rdi], rcx; ret; 
94187788315062: ret; 
94187788315156: ret; 
94187788315153: add dword ptr [rdx + 0x10], esi; ret; 
94187788315152: add qword ptr [rdx + 0x10], rsi; ret; 
94187788315149: adc byte ptr [rax + rcx + 0x48], dh; add dword ptr [rdx + 0x10], esi; ret; 
94187788315146: cmp al, byte ptr [rbx + 0x87410e1]; add qword ptr [rdx + 0x10], rsi; ret; 
94187788315160: ret; 
94187788315157: nop dword ptr [rax]; ret; 
94187788315156: ret; 
94187788315208: ret; 
94187788315206: xor eax, eax; ret; 
94187788315205: xchg eax, edx; xor eax, eax; ret; 
94187788315278: ret; 
94187788315275: sal dword ptr [rbp - 0x16], 1; ret; 
94187788315272: or byte ptr [rax + 0x39], cl; sal dword ptr [rbp - 0x16], 1; ret; 
94187788315271: or byte ptr [rax + 0x39], cl; sal dword ptr [rbp - 0x16], 1; ret; 
94187788315268: or byte ptr [rax - 0x75], cl; or byte ptr [rax + 0x39], cl; sal dword ptr [rbp - 0x16], 1; ret; 
94187788315267: push rdx; or byte ptr [rax - 0x75], cl; or byte ptr [rax + 0x39], cl; sal dword ptr [rbp - 0x16], 1; ret; 
94187788315409: ret; 
94187788315408: pop rsi; ret; 
94187788315407: pop r14; ret; 
94187788315406: pop rbp; pop r14; ret; 
94187788315405: pop r13; pop r14; ret; 
94187788315404: pop rsp; pop r13; pop r14; ret; 
94187788315403: pop r12; pop r13; pop r14; ret; 
94187788315402: pop rbp; pop r12; pop r13; pop r14; ret; 
94187788315410: ret; 
94187788315409: ret; 
94187788315831: ret; 
94187788315830: pop rdi; ret; 
94187788315829: pop r15; ret; 
94187788315828: pop rsi; pop r15; ret; 
94187788315827: pop r14; pop r15; ret; 
94187788315826: pop rbp; pop r14; pop r15; ret; 
94187788315825: pop r13; pop r14; pop r15; ret; 
94187788315824: pop rsp; pop r13; pop r14; pop r15; ret; 
94187788315823: pop r12; pop r13; pop r14; pop r15; ret; 
94187788313133: jmp qword ptr [rsi - 0x70]; 
94187788314134: jmp qword ptr [rsi + 0xf]; 
94187788314273: jmp qword ptr [rsi + 0x66]; 
94187788314271: in al, 0xff; jmp qword ptr [rsi + 0x66]; 
94187788314270: outsb dx, byte ptr [rsi]; in al, 0xff; jmp qword ptr [rsi + 0x66]; 
94187788314268: add cl, ch; outsb dx, byte ptr [rsi]; in al, 0xff; jmp qword ptr [rsi + 0x66]; 
94187788314266: add byte ptr [rax], al; add cl, ch; outsb dx, byte ptr [rsi]; in al, 0xff; jmp qword ptr [rsi + 0x66]; 
94187788314505: jmp qword ptr [rsi + 0xf]; 
94187788315723: call qword ptr [rbp + 0x78]; 
94187788315721: add byte ptr [rax], al; call qword ptr [rbp + 0x78]; 
94187788315718: mov ebp, 0x80; call qword ptr [rbp + 0x78]; 
94187788315717: mov edi, dword ptr [rbp + 0x80]; call qword ptr [rbp + 0x78]; 
94187788315716: mov rdi, qword ptr [rbp + 0x80]; call qword ptr [rbp + 0x78]; 
94187788315715: add byte ptr [rax - 0x75], cl; mov ebp, 0x80; call qword ptr [rbp + 0x78]; 
94187788315714: add byte ptr [rax], al; mov rdi, qword ptr [rbp + 0x80]; call qword ptr [rbp + 0x78]; 
94187788315713: or byte ptr [rax], al; add byte ptr [rax - 0x75], cl; mov ebp, 0x80; call qword ptr [rbp + 0x78]; 
94187788315712: cmpsd dword ptr [rsi], dword ptr [rdi]; or byte ptr [rax], al; add byte ptr [rax - 0x75], cl; mov ebp, 0x80; call qword ptr [rbp + 0x78]; 
94187788315711: test byte ptr [rdi + 0x48000008], ah; mov edi, dword ptr [rbp + 0x80]; call qword ptr [rbp + 0x78]; 
94187788312754: ret 0x8348; 
94187788312751: cmp cl, byte ptr [rax - 0x77]; ret 0x8348; 
94187788312749: mov dh, 0x34; cmp cl, byte ptr [rax - 0x77]; ret 0x8348; 
94187788312746: or byte ptr [rcx + 0xf], al; mov dh, 0x34; cmp cl, byte ptr [rax - 0x77]; ret 0x8348; 
94187788312765: ret 0xf40; 
94187788313882: ret 0x4c10; 
94187788313879: add dword ptr [rcx - 0x7d], ecx; ret 0x4c10; 
94187788314546: ret 0x8b48; 
94187788314543: add byte ptr [rax - 0x77], cl; ret 0x8b48; 
94187788314541: add byte ptr [rax], al; add byte ptr [rax - 0x77], cl; ret 0x8b48; 
94187788314539: add byte ptr [rax], al; add byte ptr [rax], al; add byte ptr [rax - 0x77], cl; ret 0x8b48; 
94187788315021: ret 0x894c; 
94187788315027: ret 0x3949; 
94187788315021: ret 0x894c; 
94187788315042: ret 0x8b4c; 
94187788315039: add byte ptr [rbp + 1], cl; ret 0x8b4c; 
94187788315246: ret 0x10eb; 
94187788315243: and cl, byte ptr [rax - 0x77]; ret 0x10eb; 
94187788315241: sal dword ptr [rdx + 0x48], -0x77; ret 0x10eb; 
94187788315238: cmovs edi, dword ptr [rcx]; sal dword ptr [rdx + 0x48], -0x77; ret 0x10eb; 
94187788315235: or byte ptr [rax - 0x75], cl; cmovs edi, dword ptr [rcx]; sal dword ptr [rdx + 0x48], -0x77; ret 0x10eb; 
94187788315234: or byte ptr [r8 - 0x75], r9b; cmovs edi, dword ptr [rcx]; sal dword ptr [rdx + 0x48], -0x77; ret 0x10eb; 
94187788315231: add byte ptr [rax - 0x75], cl; or byte ptr [r8 - 0x75], r9b; cmovs edi, dword ptr [rcx]; sal dword ptr [rdx + 0x48], -0x77; ret 0x10eb; 
94187788315842: ret 4; 
94187788316473: ret 0xf41; 
94187788313006: call qword ptr [rax + 0x38c48348]; 
94187788316654: call qword ptr [rax - 0x2617c075]; 
94187788308624: ret; 
94187788308623: pop rsp; ret; 
94187788308622: pop r12; ret; 
94187788308621: pop rbp; pop r12; ret; 
94187788308619: mov eax, ecx; pop rbp; pop r12; ret; 
94187788308618: mov rax, rcx; pop rbp; pop r12; ret; 
94187788308617: pop rbx; mov rax, rcx; pop rbp; pop r12; ret; 
94187788308714: ret; 
94187788308781: ret; 
94187788308780: pop rbp; ret; 
94187788308779: pop r13; ret; 
94187788308778: pop rsp; pop r13; ret; 
94187788308777: pop r12; pop r13; ret; 
94187788308776: pop rbp; pop r12; pop r13; ret; 
94187788308775: pop rbx; pop rbp; pop r12; pop r13; ret; 
94187788308774: or byte ptr [rbx + 0x5d], bl; pop r12; pop r13; ret; 
94187788308799: ret; 
94187788308798: pop rbp; ret; 
94187788308797: pop r13; ret; 
94187788308796: pop rsp; pop r13; ret; 
94187788308795: pop r12; pop r13; ret; 
94187788308794: pop rbp; pop r12; pop r13; ret; 
94187788308793: pop rbx; pop rbp; pop r12; pop r13; ret; 
94187788308792: fcomp dword ptr [rbx + 0x5d]; pop r12; pop r13; ret; 
94187788308844: ret; 
94187788308843: pop rbp; ret; 
94187788308842: pop rbx; pop rbp; ret; 
94187788308841: or byte ptr [rbx + 0x5d], bl; ret; 
94187788308839: add esp, 8; pop rbx; pop rbp; ret; 
94187788308838: add rsp, 8; pop rbx; pop rbp; ret; 
94187788308835: mov dword ptr [rbx + 8], edx; add rsp, 8; pop rbx; pop rbp; ret; 
94187788308834: mov qword ptr [rbx + 8], rdx; add rsp, 8; pop rbx; pop rbp; ret; 
94187788308864: ret; 
94187788308861: dec dword ptr [rax - 0x77]; ret; 
94187788309057: ret; 
94187788309060: ret; 
94187788309058: xor eax, eax; ret; 
94187788309057: ret; 
94187788309064: ret; 
94187788309061: nop dword ptr [rax]; ret; 
94187788309060: ret; 
94187788309133: ret; 
94187788309236: ret; 
94187788309235: pop rsp; ret; 
94187788309234: pop r12; ret; 
94187788309233: adc byte ptr [rcx + 0x5c], al; ret; 
94187788309232: adc byte ptr [rcx + 0x5c], al; ret; 
94187788309231: mov eax, dword ptr [rax + 0x10]; pop r12; ret; 
94187788309230: mov rax, qword ptr [rax + 0x10]; pop r12; ret; 
94187788309229: pop rbp; mov rax, qword ptr [rax + 0x10]; pop r12; ret; 
94187788309228: pop rbx; pop rbp; mov rax, qword ptr [rax + 0x10]; pop r12; ret; 
94187788309275: ret; 
94187788309274: pop rsp; ret; 
94187788309273: pop r12; ret; 
94187788309272: pop rbp; pop r12; ret; 
94187788309271: pop rbx; pop rbp; pop r12; ret; 
94187788309268: cmove eax, edx; pop rbx; pop rbp; pop r12; ret; 
94187788309267: cmove rax, rdx; pop rbx; pop rbp; pop r12; ret; 
94187788309316: ret; 
94187788309315: pop rsp; ret; 
94187788309314: pop r12; ret; 
94187788309313: pop rbp; pop r12; ret; 
94187788309312: pop rbx; pop rbp; pop r12; ret; 
94187788309311: adc byte ptr [rbx + 0x5d], bl; pop r12; ret; 
94187788309310: and al, 0x10; pop rbx; pop rbp; pop r12; ret; 
94187788309309: and al, 0x10; pop rbx; pop rbp; pop r12; ret; 
94187788309308: mov eax, dword ptr [rsp + 0x10]; pop rbx; pop rbp; pop r12; ret; 
94187788309307: mov rax, qword ptr [r12 + 0x10]; pop rbx; pop rbp; pop r12; ret; 
94187788309326: ret; 
94187788309397: ret; 
94187788309427: ret; 
94187788309426: pop rbp; ret; 
94187788309425: pop r13; ret; 
94187788309424: pop rsp; pop r13; ret; 
94187788309423: pop r12; pop r13; ret; 
94187788309422: pop rbp; pop r12; pop r13; ret; 
94187788309421: pop rbx; pop rbp; pop r12; pop r13; ret; 
94187788309420: or byte ptr [rbx + 0x5d], bl; pop r12; pop r13; ret; 
94187788309466: ret; 
94187788309463: ror dword ptr [rax - 0x7d], 1; ret; 
94187788309513: ret; 
94187788309512: pop rbp; ret; 
94187788309511: pop r13; ret; 
94187788309510: pop rsp; pop r13; ret; 
94187788309509: pop r12; pop r13; ret; 
94187788309508: pop rbp; pop r12; pop r13; ret; 
94187788309507: pop rbx; pop rbp; pop r12; pop r13; ret; 
94187788309506: or byte ptr [rbx + 0x5d], bl; pop r12; pop r13; ret; 
94187788309516: ret; 
94187788309514: xor eax, eax; ret; 
94187788309513: ret; 
94187788309553: ret; 
94187788309552: pop rsp; ret; 
94187788309551: pop r12; ret; 
94187788309550: pop rbp; pop r12; ret; 
94187788309549: pop rbx; pop rbp; pop r12; ret; 
94187788309548: or ebx, dword ptr [rbx + 0x5d]; pop r12; ret; 
94187788309546: sal byte ptr [rbx + rcx + 0x5b], 0x5d; pop r12; ret; 
94187788309543: dec dword ptr [rax - 0x7b]; sal byte ptr [rbx + rcx + 0x5b], 0x5d; pop r12; ret; 
94187788309538: adc eax, 0xfffda8e8; dec dword ptr [rax - 0x7b]; sal byte ptr [rbx + rcx + 0x5b], 0x5d; pop r12; ret; 
94187788309638: ret; 
94187788309637: pop rsp; ret; 
94187788309636: pop r12; ret; 
94187788309635: pop rbp; pop r12; ret; 
94187788309634: rcr byte ptr [rbp + 0x41], 0x5c; ret; 
94187788309633: xor eax, eax; pop rbp; pop r12; ret; 
94187788309632: pop rbx; xor eax, eax; pop rbp; pop r12; ret; 
94187788309631: add byte ptr [rbx + 0x31], bl; rcr byte ptr [rbp + 0x41], 0x5c; ret; 
94187788310489: ret; 
94187788310488: pop rdi; ret; 
94187788310487: pop r15; ret; 
94187788310486: pop rsi; pop r15; ret; 
94187788310485: pop r14; pop r15; ret; 
94187788310484: pop rbp; pop r14; pop r15; ret; 
94187788310483: pop r13; pop r14; pop r15; ret; 
94187788310482: pop rsp; pop r13; pop r14; pop r15; ret; 
94187788310481: pop r12; pop r13; pop r14; pop r15; ret; 
94187788310632: ret; 
94187788310631: pop rdi; ret; 
94187788310630: pop r15; ret; 
94187788310629: pop rsi; pop r15; ret; 
94187788310628: pop r14; pop r15; ret; 
94187788310627: pop rbp; pop r14; pop r15; ret; 
94187788310626: pop r13; pop r14; pop r15; ret; 
94187788310625: pop rsp; pop r13; pop r14; pop r15; ret; 
94187788310624: pop r12; pop r13; pop r14; pop r15; ret; 
94187788311719: ret; 
94187788311718: pop rdi; ret; 
94187788311717: pop r15; ret; 
94187788311716: pop rsi; pop r15; ret; 
94187788311715: pop r14; pop r15; ret; 
94187788311714: pop rbp; pop r14; pop r15; ret; 
94187788311713: pop r13; pop r14; pop r15; ret; 
94187788311712: pop rsp; pop r13; pop r14; pop r15; ret; 
94187788311711: pop r12; pop r13; pop r14; pop r15; ret; 
94187788311946: ret; 
94187788311943: div dword ptr [rbp - 0x1a]; ret; 
94187788311940: ror byte ptr [rax + 0x39], 1; div dword ptr [rbp - 0x1a]; ret; 
94187788311937: dec dword ptr [rax + 1]; ror byte ptr [rax + 0x39], 1; div dword ptr [rbp - 0x1a]; ret; 
94187788311936: dec dword ptr [r8 + 1]; ror byte ptr [rax + 0x39], 1; div dword ptr [rbp - 0x1a]; ret; 
94187788311935: mov dh, 0x47; dec dword ptr [rax + 1]; ror byte ptr [rax + 0x39], 1; div dword ptr [rbp - 0x1a]; ret; 
94187788311954: ret; 
94187788311952: xor eax, eax; ret; 
94187788311950: add byte ptr [rax], al; xor eax, eax; ret; 
94187788311949: add byte ptr [rax], r8b; xor eax, eax; ret; 
94187788311947: nop dword ptr [rax + rax]; xor eax, eax; ret; 
94187788311946: ret; 
94187788312036: ret; 
94187788312033: div dword ptr [rbp - 0x34]; ret; 
94187788312042: ret; 
94187788312040: xor eax, eax; ret; 
94187788312037: nop dword ptr [rax]; xor eax, eax; ret; 
94187788312036: ret; 
94187788312118: ret; 
94187788312115: sal byte ptr [rbp - 0x36], 1; ret; 
94187788312112: or dword ptr [rcx + 0x39], ecx; sal byte ptr [rbp - 0x36], 1; ret; 
94187788312130: ret; 
94187788312128: xor eax, eax; ret; 
94187788312126: add byte ptr [rax], al; xor eax, eax; ret; 
94187788312124: add byte ptr [rax], al; add byte ptr [rax], al; xor eax, eax; ret; 
94187788312122: test byte ptr [rax], al; add byte ptr [rax], al; add byte ptr [rax], al; xor eax, eax; ret; 
94187788312120: nop dword ptr [rax + rax]; xor eax, eax; ret; 
94187788312119: nop word ptr [rax + rax]; xor eax, eax; ret; 
94187788312118: ret; 
94187788312457: ret; 
94187788312456: pop rsp; ret; 
94187788312455: pop r12; ret; 
94187788312454: pop rbp; pop r12; ret; 
94187788312453: pop rbx; pop rbp; pop r12; ret; 
94187788312452: fcomp dword ptr [rbx + 0x5d]; pop r12; ret; 
94187788312451: neg eax; pop rbx; pop rbp; pop r12; ret; 
94187788312450: neg rax; pop rbx; pop rbp; pop r12; ret; 
94187788312449: ror byte ptr [rax - 9], 0xd8; pop rbx; pop rbp; pop r12; ret; 
94187788309625: jmp qword ptr [rsi + 0xf]; 
94187788310854: jmp qword ptr [rsi + 0xf]; 
94187788311897: jmp qword ptr [rsi + 0xf]; 
94187788311895: mov cl, 0xff; jmp qword ptr [rsi + 0xf]; 
94187788311894: mov cl, 0xff; jmp qword ptr [rsi + 0xf]; 
94187788311892: fsub st(0), st(0); mov cl, 0xff; jmp qword ptr [rsi + 0xf]; 
94187788311890: adc bl, ch; fsub st(0), st(0); mov cl, 0xff; jmp qword ptr [rsi + 0xf]; 
94187788311889: push rax; adc bl, ch; fsub st(0), st(0); mov cl, 0xff; jmp qword ptr [rsi + 0xf]; 
94187788311216: call qword ptr [rax + 8]; 
94187788311213: mov dword ptr [rsi + 8], edi; call qword ptr [rax + 8]; 
94187788311212: mov qword ptr [r14 + 8], rdi; call qword ptr [rax + 8]; 
94187788311210: mov dword ptr [rsi], ebx; mov qword ptr [r14 + 8], rdi; call qword ptr [rax + 8]; 
94187788311209: mov qword ptr [r14], rbx; mov qword ptr [r14 + 8], rdi; call qword ptr [rax + 8]; 
94187788311207: and al, 0x28; mov qword ptr [r14], rbx; mov qword ptr [r14 + 8], rdi; call qword ptr [rax + 8]; 
94187788311206: and al, 0x28; mov qword ptr [r14], rbx; mov qword ptr [r14 + 8], rdi; call qword ptr [rax + 8]; 
94187788311205: mov eax, dword ptr [rsp + 0x28]; mov qword ptr [r14], rbx; mov qword ptr [r14 + 8], rdi; call qword ptr [rax + 8]; 
94187788311204: mov rax, qword ptr [rsp + 0x28]; mov qword ptr [r14], rbx; mov qword ptr [r14 + 8], rdi; call qword ptr [rax + 8]; 
94187788311203: add dword ptr [rax - 0x75], ecx; and al, 0x28; mov qword ptr [r14], rbx; mov qword ptr [r14 + 8], rdi; call qword ptr [rax + 8]; 
94187788311201: lea esp, dword ptr [rbx + 1]; mov rax, qword ptr [rsp + 0x28]; mov qword ptr [r14], rbx; mov qword ptr [r14 + 8], rdi; call qword ptr [rax + 8]; 
94187788311200: lea r12, qword ptr [rbx + 1]; mov rax, qword ptr [rsp + 0x28]; mov qword ptr [r14], rbx; mov qword ptr [r14 + 8], rdi; call qword ptr [rax + 8]; 
94187788311628: call qword ptr [rax + 8]; 
94187788311626: jnp 0x55a9cdaa1c54; call qword ptr [rax + 8]; 
94187788311625: mov dword ptr [rbx + 8], edi; call qword ptr [rax + 8]; 
94187788311624: mov qword ptr [rbx + 8], rdi; call qword ptr [rax + 8]; 
94187788311623: and ecx, dword ptr [rax - 0x77]; jnp 0x55a9cdaa1c54; call qword ptr [rax + 8]; 
94187788311622: mov dword ptr [rbx], esp; mov qword ptr [rbx + 8], rdi; call qword ptr [rax + 8]; 
94187788311621: mov qword ptr [rbx], r12; mov qword ptr [rbx + 8], rdi; call qword ptr [rax + 8]; 
94187788311620: sub byte ptr [rcx + rcx*4 + 0x23], cl; mov qword ptr [rbx + 8], rdi; call qword ptr [rax + 8]; 
94187788311619: and al, 0x28; mov qword ptr [rbx], r12; mov qword ptr [rbx + 8], rdi; call qword ptr [rax + 8]; 
94187788311618: and al, 0x28; mov qword ptr [rbx], r12; mov qword ptr [rbx + 8], rdi; call qword ptr [rax + 8]; 
94187788311617: mov eax, dword ptr [rsp + 0x28]; mov qword ptr [rbx], r12; mov qword ptr [rbx + 8], rdi; call qword ptr [rax + 8]; 
94187788311616: mov rax, qword ptr [rsp + 0x28]; mov qword ptr [rbx], r12; mov qword ptr [rbx + 8], rdi; call qword ptr [rax + 8]; 
94187788311615: out 0x48, al; mov eax, dword ptr [rsp + 0x28]; mov qword ptr [rbx], r12; mov qword ptr [rbx + 8], rdi; call qword ptr [rax + 8]; 
94187788311614: mov esi, esp; mov rax, qword ptr [rsp + 0x28]; mov qword ptr [rbx], r12; mov qword ptr [rbx + 8], rdi; call qword ptr [rax + 8]; 
94187788311613: mov rsi, r12; mov rax, qword ptr [rsp + 0x28]; mov qword ptr [rbx], r12; mov qword ptr [rbx + 8], rdi; call qword ptr [rax + 8]; 
94187788311612: or byte ptr [rcx + rcx*4 - 0x1a], cl; mov rax, qword ptr [rsp + 0x28]; mov qword ptr [rbx], r12; mov qword ptr [rbx + 8], rdi; call qword ptr [rax + 8]; 
94187788309209: ret 0xe283; 
94187788309204: sal byte ptr [rsp + 0x48], 0x89; ret 0xe283; 
94187788309201: dec dword ptr [rax - 0x7b]; sal byte ptr [rsp + 0x48], 0x89; ret 0xe283; 
94187788309270: ret 0x5d5b; 
94187788309771: ret 0x4901; 
94187788309768: add byte ptr [rax - 0x7d], cl; ret 0x4901; 
94187788309766: add eax, dword ptr [rax]; add byte ptr [rax - 0x7d], cl; ret 0x4901; 
94187788309764: xchg dword ptr [rdi], ebx; add eax, dword ptr [rax]; add byte ptr [rax - 0x7d], cl; ret 0x4901; 
94187788309956: ret 0x8b48; 
94187788309993: ret 0xec75; 
94187788309990: dec byte ptr [rax + 0x39]; ret 0xec75; 
94187788309989: dec byte ptr [rax + 0x39]; ret 0xec75; 
94187788310292: ret 0xf175; 
94187788310289: dec byte ptr [rax + 0x39]; ret 0xf175; 
94187788311922: ret 0x8348; 
94187788311919: add byte ptr [rax - 0x77], cl; ret 0x8348; 
94187788311933: ret 0xb60f; 
94187788311986: ret 0xc148; 
94187788311983: add byte ptr [rax - 0x77], cl; ret 0xc148; 
94187788312019: ret 0xf49; 
94187788312016: ror byte ptr [rdi], 0xb6; ret 0xf49; 
94187788312012: sbb dword ptr [rdi + rcx - 0x4a], eax; ror byte ptr [rdi], 0xb6; ret 0xf49; 
94187788312011: stc; sbb dword ptr [rdi + rcx - 0x4a], eax; ror byte ptr [rdi], 0xb6; ret 0xf49; 
94187788312008: and byte ptr [rcx - 0x80], al; stc; sbb dword ptr [rdi + rcx - 0x4a], eax; ror byte ptr [rdi], 0xb6; ret 0xf49; 
94187788312188: ret 0xba; 
94187788310302: call qword ptr [rax + 0x8758b48]; 
94187788394525: ret; 
94187788394529: ret; 
94187788394526: add dword ptr [rax + 0x39], ecx; ret; 
94187788394525: ret; 
94187788394794: ret; 
94187788394793: pop rdi; ret; 
94187788394792: pop r15; ret; 
94187788394791: pop rsi; pop r15; ret; 
94187788394790: pop r14; pop r15; ret; 
94187788394789: pop rbp; pop r14; pop r15; ret; 
94187788394788: pop r13; pop r14; pop r15; ret; 
94187788394787: pop rsp; pop r13; pop r14; pop r15; ret; 
94187788394786: pop r12; pop r13; pop r14; pop r15; ret; 
94187788394975: ret; 
94187788394974: pop rbp; ret; 
94187788394973: pop r13; ret; 
94187788394972: pop rsp; pop r13; ret; 
94187788394971: pop r12; pop r13; ret; 
94187788394970: pop rbp; pop r12; pop r13; ret; 
94187788394969: pop rbx; pop rbp; pop r12; pop r13; ret; 
94187788394968: rcr byte ptr [rbx + 0x5d], 0x41; pop rsp; pop r13; ret; 
94187788394989: ret; 
94187788394988: pop rbp; ret; 
94187788394987: pop r13; ret; 
94187788394986: pop rsp; pop r13; ret; 
94187788394985: pop r12; pop r13; ret; 
94187788394984: pop rbp; pop r12; pop r13; ret; 
94187788394983: pop rbx; pop rbp; pop r12; pop r13; ret; 
94187788394982: fcomp dword ptr [rbx + 0x5d]; pop r12; pop r13; ret; 
94187788394992: ret; 
94187788394990: xor eax, eax; ret; 
94187788394989: ret; 
94187788395067: ret; 
94187788395064: add byte ptr [rax + 0x39], cl; ret; 
94187788395062: add dword ptr [rax], eax; add byte ptr [rax + 0x39], cl; ret; 
94187788395090: ret; 
94187788395089: pop rdi; ret; 
94187788395088: pop r15; ret; 
94187788395087: pop rsi; pop r15; ret; 
94187788395086: pop r14; pop r15; ret; 
94187788395085: pop rbp; pop r14; pop r15; ret; 
94187788395084: pop r13; pop r14; pop r15; ret; 
94187788395083: pop rsp; pop r13; pop r14; pop r15; ret; 
94187788395082: pop r12; pop r13; pop r14; pop r15; ret; 
94187788396018: ret; 
94187788396017: pop rdi; ret; 
94187788396016: pop r15; ret; 
94187788396015: pop rsi; pop r15; ret; 
94187788396014: pop r14; pop r15; ret; 
94187788396013: pop rbp; pop r14; pop r15; ret; 
94187788396012: pop r13; pop r14; pop r15; ret; 
94187788396011: pop rsp; pop r13; pop r14; pop r15; ret; 
94187788396010: pop r12; pop r13; pop r14; pop r15; ret; 
94187788396275: ret; 
94187788396272: add dword ptr [rax - 0x7f], ecx; ret; 
94187788396291: ret; 
94187788396290: pop rsp; ret; 
94187788396289: pop r12; ret; 
94187788396288: pop rbp; pop r12; ret; 
94187788396287: pop rbx; pop rbp; pop r12; ret; 
94187788396286: xchg eax, ecx; pop rbx; pop rbp; pop r12; ret; 
94187788396284: sub byte ptr [rdi - 0x6f], dh; pop rbx; pop rbp; pop r12; ret; 
94187788396490: ret; 
94187788396487: add byte ptr [rax - 0x77], cl; ret; 
94187788396485: add dword ptr [rax], eax; add byte ptr [rax - 0x77], cl; ret; 
94187788396630: ret; 
94187788396629: pop rsi; ret; 
94187788396628: pop r14; ret; 
94187788396627: pop rbp; pop r14; ret; 
94187788396626: pop r13; pop r14; ret; 
94187788396625: pop rsp; pop r13; pop r14; ret; 
94187788396624: pop r12; pop r13; pop r14; ret; 
94187788396623: pop rbp; pop r12; pop r13; pop r14; ret; 
94187788396861: ret; 
94187788397209: ret; 
94187788397208: pop rdi; ret; 
94187788397207: pop r15; ret; 
94187788397206: pop rsi; pop r15; ret; 
94187788397205: pop r14; pop r15; ret; 
94187788397204: pop rbp; pop r14; pop r15; ret; 
94187788397203: pop r13; pop r14; pop r15; ret; 
94187788397202: pop rsp; pop r13; pop r14; pop r15; ret; 
94187788397201: pop r12; pop r13; pop r14; pop r15; ret; 
94187788397630: ret; 
94187788397629: pop rdi; ret; 
94187788397628: pop r15; ret; 
94187788397627: pop rsi; pop r15; ret; 
94187788397626: pop r14; pop r15; ret; 
94187788397625: pop rbp; pop r14; pop r15; ret; 
94187788397624: pop r13; pop r14; pop r15; ret; 
94187788397623: pop rsp; pop r13; pop r14; pop r15; ret; 
94187788397622: pop r12; pop r13; pop r14; pop r15; ret; 
94187788395320: call qword ptr [rax]; 
94187788395314: and edx, 0x80000000; call qword ptr [rax]; 
94187788395311: shl edx, 0x1d; and edx, 0x80000000; call qword ptr [rax]; 
94187788395306: add eax, 0xf70f1; shl edx, 0x1d; and edx, 0x80000000; call qword ptr [rax]; 
94187788395305: lea eax, dword ptr [rip + 0xf70f1]; shl edx, 0x1d; and edx, 0x80000000; call qword ptr [rax]; 
94187788395304: lea rax, qword ptr [rip + 0xf70f1]; shl edx, 0x1d; and edx, 0x80000000; call qword ptr [rax]; 
94187788395303: adc byte ptr [rax - 0x73], cl; add eax, 0xf70f1; shl edx, 0x1d; and edx, 0x80000000; call qword ptr [rax]; 
94187788395302: mov edx, dword ptr [rax]; lea rax, qword ptr [rip + 0xf70f1]; shl edx, 0x1d; and edx, 0x80000000; call qword ptr [rax]; 
94187788395301: mov rdx, qword ptr [rax]; lea rax, qword ptr [rip + 0xf70f1]; shl edx, 0x1d; and edx, 0x80000000; call qword ptr [rax]; 
94187788398243: call qword ptr [rax]; 
94187788398241: and al, 0x20; call qword ptr [rax]; 
94187788398240: and al, 0x20; call qword ptr [rax]; 
94187788398239: mov dword ptr [rsp + 0x20], ecx; call qword ptr [rax]; 
94187788398238: mov qword ptr [rsp + 0x20], rcx; call qword ptr [rax]; 
94187788398236: mov edx, ecx; mov qword ptr [rsp + 0x20], rcx; call qword ptr [rax]; 
94187788398235: mov rdx, rcx; mov qword ptr [rsp + 0x20], rcx; call qword ptr [rax]; 
94187788398230: add eax, 0xf6585; mov rdx, rcx; mov qword ptr [rsp + 0x20], rcx; call qword ptr [rax]; 
94187788398229: lea eax, dword ptr [rip + 0xf6585]; mov rdx, rcx; mov qword ptr [rsp + 0x20], rcx; call qword ptr [rax]; 
94187788398228: lea rax, qword ptr [rip + 0xf6585]; mov rdx, rcx; mov qword ptr [rsp + 0x20], rcx; call qword ptr [rax]; 
94187788398225: cmovne ecx, eax; lea rax, qword ptr [rip + 0xf6585]; mov rdx, rcx; mov qword ptr [rsp + 0x20], rcx; call qword ptr [rax]; 
94187788398224: cmovne rcx, rax; lea rax, qword ptr [rip + 0xf6585]; mov rdx, rcx; mov qword ptr [rsp + 0x20], rcx; call qword ptr [rax]; 
94187788397873: call rax; 
94187788397872: out dx, eax; call rax; 
94187788397871: mov edi, ebp; call rax; 
94187788397870: mov rdi, r13; call rax; 
94187788397867: sal byte ptr [rdi + rcx + 0x4c], 0x89; out dx, eax; call rax; 
94187788397864: add byte ptr [rax - 0x7b], cl; sal byte ptr [rdi + rcx + 0x4c], 0x89; out dx, eax; call rax; 
94187788397862: add byte ptr [rax], al; add byte ptr [rax - 0x7b], cl; sal byte ptr [rdi + rcx + 0x4c], 0x89; out dx, eax; call rax; 
94187788394553: jmp qword ptr [rsi + 0xf]; 
94187788394624: jmp qword ptr [rsi + 0x66]; 
94187788394873: jmp qword ptr [rsi + 0xf]; 
94187788395361: jmp qword ptr [rsi + 0xf]; 
94187788395469: jmp qword ptr [rsi - 0x70]; 
94187788396057: jmp qword ptr [rsi + 0xf]; 
94187788396049: imul edx, dword ptr [rsi + rdi*8 - 0x931601], -1; jmp qword ptr [rsi + 0xf]; 
94187788396325: jmp qword ptr [rsi + 0x2e]; 
94187788396393: jmp qword ptr [rsi + 0xf]; 
94187788396870: jmp qword ptr [rsi + 0xf]; 
94187788398353: jmp qword ptr [rsi + 0xf]; 
94187788398437: jmp qword ptr [rsi + 0x2e]; 
94187788395052: call qword ptr [rax + 0x18]; 
94187788395050: mov esi, esp; call qword ptr [rax + 0x18]; 
94187788395049: mov rsi, r12; call qword ptr [rax + 0x18]; 
94187788395048: fimul dword ptr [rcx + rcx*4 - 0x1a]; call qword ptr [rax + 0x18]; 
94187788395047: mov edx, ebx; mov rsi, r12; call qword ptr [rax + 0x18]; 
94187788395046: mov rdx, rbx; mov rsi, r12; call qword ptr [rax + 0x18]; 
94187788395045: add byte ptr [rax - 0x77], cl; fimul dword ptr [rcx + rcx*4 - 0x1a]; call qword ptr [rax + 0x18]; 
94187788395044: str word ptr [rax - 0x77]; fimul dword ptr [rcx + rcx*4 - 0x1a]; call qword ptr [rax + 0x18]; 
94187788395043: jo 0x55a9cdab6234; add byte ptr [rax - 0x77], cl; fimul dword ptr [rcx + rcx*4 - 0x1a]; call qword ptr [rax + 0x18]; 
94187788395042: cli; jo 0x55a9cdab6234; add byte ptr [rax - 0x77], cl; fimul dword ptr [rcx + rcx*4 - 0x1a]; call qword ptr [rax + 0x18]; 
94187788395041: add eax, 0xf70fa; mov rdx, rbx; mov rsi, r12; call qword ptr [rax + 0x18]; 
94187788395040: lea eax, dword ptr [rip + 0xf70fa]; mov rdx, rbx; mov rsi, r12; call qword ptr [rax + 0x18]; 
94187788395039: lea rax, qword ptr [rip + 0xf70fa]; mov rdx, rbx; mov rsi, r12; call qword ptr [rax + 0x18]; 
94187788395038: cmp dword ptr [rax - 0x73], ecx; add eax, 0xf70fa; mov rdx, rbx; mov rsi, r12; call qword ptr [rax + 0x18]; 
94187788395036: push qword ptr [rcx + rdi + 0x48]; lea eax, dword ptr [rip + 0xf70fa]; mov rdx, rbx; mov rsi, r12; call qword ptr [rax + 0x18]; 
94187788394503: ret 0x4808; 
94187788395450: ret 0xfe96; 
94187788395448: shr al, cl; ret 0xfe96; 
94187788395446: add byte ptr [rcx], dh; shr al, cl; ret 0xfe96; 
94187788396527: ret 0xb60f; 
94187788397228: ret 0x12b; 
94187788398094: call qword ptr [rax + 0x48c08941]; 
94187788439730: ret; 
94187788439729: pop rbp; ret; 
94187788439728: pop rbx; pop rbp; ret; 
94187788439727: sbb byte ptr [rbx + 0x5d], bl; ret; 
94187788439725: add esp, 0x18; pop rbx; pop rbp; ret; 
94187788439724: add rsp, 0x18; pop rbx; pop rbp; ret; 
94187788439723: push rdi; add rsp, 0x18; pop rbx; pop rbp; ret; 
94187788439837: ret; 
94187788439892: ret; 
94187788439891: pop rbx; ret; 
94187788439889: neg eax; pop rbx; ret; 
94187788439888: neg rax; pop rbx; ret; 
94187788439887: ror byte ptr [rax - 9], 0xd8; pop rbx; ret; 
94187788439886: mov dh, 0xc0; neg rax; pop rbx; ret; 
94187788439885: movzx eax, al; neg rax; pop rbx; ret; 
94187788439884: ror byte ptr [rdi], 0xb6; ror byte ptr [rax - 9], 0xd8; pop rbx; ret; 
94187788439883: xchg eax, esp; ror byte ptr [rdi], 0xb6; ror byte ptr [rax - 9], 0xd8; pop rbx; ret; 
94187788439882: sete al; movzx eax, al; neg rax; pop rbx; ret; 
94187788439935: ret; 
94187788439934: pop rbx; ret; 
94187788439933: wait; pop rbx; ret; 
94187788439931: push qword ptr [rbp - 0x65]; pop rbx; ret; 
94187788439930: clc; push qword ptr [rbp - 0x65]; pop rbx; ret; 
94187788439927: dec dword ptr [rax - 0x7d]; clc; push qword ptr [rbp - 0x65]; pop rbx; ret; 
94187788439994: ret; 
94187788439992: neg eax; ret; 
94187788439991: neg rax; ret; 
94187788439990: ror byte ptr [rax - 9], 0xd8; ret; 
94187788439989: mov dh, 0xc0; neg rax; ret; 
94187788439988: movzx eax, al; neg rax; ret; 
94187788439987: ror byte ptr [rdi], 0xb6; ror byte ptr [rax - 9], 0xd8; ret; 
94187788439986: xchg eax, esp; ror byte ptr [rdi], 0xb6; ror byte ptr [rax - 9], 0xd8; ret; 
94187788439985: sete al; movzx eax, al; neg rax; ret; 
94187788439984: dec dword ptr [rdi]; xchg eax, esp; ror byte ptr [rdi], 0xb6; ror byte ptr [rax - 9], 0xd8; ret; 
94187788440008: ret; 
94187788440007: pop rbx; ret; 
94187788440004: sub byte ptr [rcx + rdx*8 + 0x5b], dh; ret; 
94187788440003: cli; sub byte ptr [rcx + rdx*8 + 0x5b], dh; ret; 
94187788440001: rol byte ptr [rax - 0x2e8bd706], 0x5b; ret; 
94187788439999: add byte ptr [rcx], dh; rol byte ptr [rax - 0x2e8bd706], 0x5b; ret; 
94187788439994: ret; 
94187788440057: ret; 
94187788440055: xor eax, eax; ret; 
94187788440052: mov dword ptr [rax + 0x10], edx; xor eax, eax; ret; 
94187788440051: mov qword ptr [rax + 0x10], rdx; xor eax, eax; ret; 
94187788440047: cmp eax, 0x48fffeac; mov dword ptr [rax + 0x10], edx; xor eax, eax; ret; 
94187788440046: adc eax, 0xfffeac3d; mov qword ptr [rax + 0x10], rdx; xor eax, eax; ret; 
94187788440045: lea edx, dword ptr [rip - 0x153c3]; mov qword ptr [rax + 0x10], rdx; xor eax, eax; ret; 
94187788440044: lea rdx, qword ptr [rip - 0x153c3]; mov qword ptr [rax + 0x10], rdx; xor eax, eax; ret; 
94187788440043: or byte ptr [rax - 0x73], cl; adc eax, 0xfffeac3d; mov qword ptr [rax + 0x10], rdx; xor eax, eax; ret; 
94187788440141: ret; 
94187788440138: cmovs eax, edx; ret; 
94187788440137: cmovs rax, rdx; ret; 
94187788440135: sub eax, ecx; cmovs rax, rdx; ret; 
94187788440134: sub rax, rcx; cmovs rax, rdx; ret; 
94187788440132: add byte ptr [rax], al; sub rax, rcx; cmovs rax, rdx; ret; 
94187788440130: add byte ptr [rax], al; add byte ptr [rax], al; sub rax, rcx; cmovs rax, rdx; ret; 
94187788440129: mov edx, 0; sub rax, rcx; cmovs rax, rdx; ret; 
94187788440128: add bh, byte ptr [rdx]; sub rax, rcx; cmovs rax, rdx; ret; 
94187788440127: mov eax, dword ptr [rdx]; mov edx, 0; sub rax, rcx; cmovs rax, rdx; ret; 
94187788440126: mov rax, qword ptr [rdx]; mov edx, 0; sub rax, rcx; cmovs rax, rdx; ret; 
94187788440125: or byte ptr [rax - 0x75], cl; add bh, byte ptr [rdx]; sub rax, rcx; cmovs rax, rdx; ret; 
94187788440202: ret; 
94187788440199: add byte ptr [rax - 0x77], cl; ret; 
94187788440320: ret; 
94187788440319: pop rdi; ret; 
94187788440318: pop r15; ret; 
94187788440317: pop rsi; pop r15; ret; 
94187788440316: pop r14; pop r15; ret; 
94187788440315: pop rbp; pop r14; pop r15; ret; 
94187788440314: pop r13; pop r14; pop r15; ret; 
94187788440313: pop rsp; pop r13; pop r14; pop r15; ret; 
94187788440312: pop r12; pop r13; pop r14; pop r15; ret; 
94187788440441: ret; 
94187788440440: pop rbx; ret; 
94187788440438: xor eax, eax; pop rbx; ret; 
94187788440456: ret; 
94187788440455: pop rbx; ret; 
94187788440449: mov eax, 0xfffffffe; pop rbx; ret; 
94187788440448: mov rax, -2; pop rbx; ret; 
94187788440446: add byte ptr [rax], al; mov rax, -2; pop rbx; ret; 
94187788440445: add byte ptr [rax], r8b; mov rax, -2; pop rbx; ret; 
94187788440443: nop dword ptr [rax + rax]; mov rax, -2; pop rbx; ret; 
94187788440442: nop word ptr [rax + rax]; mov rax, -2; pop rbx; ret; 
94187788440441: ret; 
94187788440636: ret; 
94187788440635: pop rsi; ret; 
94187788440634: pop r14; ret; 
94187788440633: pop rbp; pop r14; ret; 
94187788440632: pop r13; pop r14; ret; 
94187788440631: pop rsp; pop r13; pop r14; ret; 
94187788440630: pop r12; pop r13; pop r14; ret; 
94187788440629: pop rbp; pop r12; pop r13; pop r14; ret; 
94187788440640: ret; 
94187788440637: nop dword ptr [rax]; ret; 
94187788440636: ret; 
94187788440725: ret; 
94187788440724: pop rbp; ret; 
94187788440723: pop rbx; pop rbp; ret; 
94187788440722: or byte ptr [rbx + 0x5d], bl; ret; 
94187788440720: add esp, 8; pop rbx; pop rbp; ret; 
94187788440719: add rsp, 8; pop rbx; pop rbp; ret; 
94187788440717: sub byte ptr [rcx], al; add rsp, 8; pop rbx; pop rbp; ret; 
94187788440716: sub dword ptr [rax], 1; add rsp, 8; pop rbx; pop rbp; ret; 
94187788440715: sub qword ptr [rax], 1; add rsp, 8; pop rbx; pop rbp; ret; 
94187788440714: lock sub qword ptr [rax], 1; add rsp, 8; pop rbx; pop rbp; ret; 
94187788440885: ret; 
94187788440882: add dword ptr [rax - 0x7f], ecx; ret; 
94187788440908: ret; 
94187788440907: pop rbp; ret; 
94187788440906: pop r13; ret; 
94187788440905: pop rsp; pop r13; ret; 
94187788440904: pop r12; pop r13; ret; 
94187788440903: pop rbp; pop r12; pop r13; ret; 
94187788440902: pop rbx; pop rbp; pop r12; pop r13; ret; 
94187788440901: or byte ptr [rbx + 0x5d], bl; pop r12; pop r13; ret; 
94187788440911: ret; 
94187788440909: xor eax, eax; ret; 
94187788440908: ret; 
94187788440938: ret; 
94187788440998: ret; 
94187788440995: add dword ptr [rax - 0x7f], ecx; ret; 
94187788441012: ret; 
94187788441019: ret; 
94187788441018: pop rsp; ret; 
94187788441017: pop r12; ret; 
94187788441016: pop rbp; pop r12; ret; 
94187788441015: pop rbx; pop rbp; pop r12; ret; 
94187788441014: rcr byte ptr [rbx + 0x5d], 0x41; pop rsp; ret; 
94187788441013: xor eax, eax; pop rbx; pop rbp; pop r12; ret; 
94187788441012: ret; 
94187788441138: ret; 
94187788441137: pop rbp; ret; 
94187788441136: pop rbx; pop rbp; ret; 
94187788441135: sbb byte ptr [rbx + 0x5d], bl; ret; 
94187788441133: add esp, 0x18; pop rbx; pop rbp; ret; 
94187788441132: add rsp, 0x18; pop rbx; pop rbp; ret; 
94187788441131: ror byte ptr [rax - 0x7d], 0xc4; sbb byte ptr [rbx + 0x5d], bl; ret; 
94187788441130: xor eax, eax; add rsp, 0x18; pop rbx; pop rbp; ret; 
94187788441129: add byte ptr [rcx], dh; ror byte ptr [rax - 0x7d], 0xc4; sbb byte ptr [rbx + 0x5d], bl; ret; 
94187788441208: ret; 
94187788441207: pop rbp; ret; 
94187788441206: pop rbx; pop rbp; ret; 
94187788441204: xor eax, eax; pop rbx; pop rbp; ret; 
94187788441201: add esp, 0x18; xor eax, eax; pop rbx; pop rbp; ret; 
94187788441200: add rsp, 0x18; xor eax, eax; pop rbx; pop rbp; ret; 
94187788441409: ret; 
94187788441407: mov dword ptr [rax], esi; ret; 
94187788441406: mov qword ptr [rax], rsi; ret; 
94187788441401: mov esi, 0xfffffff0; mov qword ptr [rax], rsi; ret; 
94187788441400: push rax; mov esi, 0xfffffff0; mov qword ptr [rax], rsi; ret; 
94187788441399: push rax; mov esi, 0xfffffff0; mov qword ptr [rax], rsi; ret; 
94187788441398: mov eax, dword ptr [rsi + 0x50]; mov esi, 0xfffffff0; mov qword ptr [rax], rsi; ret; 
94187788441397: mov rax, qword ptr [rsi + 0x50]; mov esi, 0xfffffff0; mov qword ptr [rax], rsi; ret; 
94187788441396: adc ecx, dword ptr [rax - 0x75]; push rax; mov esi, 0xfffffff0; mov qword ptr [rax], rsi; ret; 
94187788441394: or byte ptr [rbp + 0x13], dh; mov rax, qword ptr [rsi + 0x50]; mov esi, 0xfffffff0; mov qword ptr [rax], rsi; ret; 
94187788441428: ret; 
94187788441429: ret; 
94187788441428: ret; 
94187788441972: ret; 
94187788441971: pop rdi; ret; 
94187788441970: pop r15; ret; 
94187788441969: pop rsi; pop r15; ret; 
94187788441968: pop r14; pop r15; ret; 
94187788441967: pop rbp; pop r14; pop r15; ret; 
94187788441966: pop r13; pop r14; pop r15; ret; 
94187788441965: pop rsp; pop r13; pop r14; pop r15; ret; 
94187788441964: pop r12; pop r13; pop r14; pop r15; ret; 
94187788439876: call qword ptr [rax]; 
94187788439874: mov edi, ebx; call qword ptr [rax]; 
94187788439873: mov rdi, rbx; call qword ptr [rax]; 
94187788439871: add byte ptr [rax], al; mov rdi, rbx; call qword ptr [rax]; 
94187788439869: add al, 0; add byte ptr [rax], al; mov rdi, rbx; call qword ptr [rax]; 
94187788439868: mov esi, 4; mov rdi, rbx; call qword ptr [rax]; 
94187788439867: add byte ptr [rsi + 4], bh; mov rdi, rbx; call qword ptr [rax]; 
94187788439863: add eax, 0xec2e4; mov esi, 4; mov rdi, rbx; call qword ptr [rax]; 
94187788439862: lea eax, dword ptr [rip + 0xec2e4]; mov esi, 4; mov rdi, rbx; call qword ptr [rax]; 
94187788439861: lea rax, qword ptr [rip + 0xec2e4]; mov esi, 4; mov rdi, rbx; call qword ptr [rax]; 
94187788439858: sub byte ptr [rbp + 0x1e], dh; lea rax, qword ptr [rip + 0xec2e4]; mov esi, 4; mov rdi, rbx; call qword ptr [rax]; 
94187788440478: call qword ptr [rbx]; 
94187788440984: call qword ptr [rax]; 
94187788440982: add byte ptr [rax], al; call qword ptr [rax]; 
94187788440980: add dword ptr [rax], esp; add byte ptr [rax], al; call qword ptr [rax]; 
94187788440979: mov esi, 0x2001; call qword ptr [rax]; 
94187788440978: sar byte ptr [rsi + 0x2001], cl; call qword ptr [rax]; 
94187788440977: xor edx, edx; mov esi, 0x2001; call qword ptr [rax]; 
94187788440976: add byte ptr [rcx], dh; sar byte ptr [rsi + 0x2001], cl; call qword ptr [rax]; 
94187788440974: mov esi, 0xd231000e; mov esi, 0x2001; call qword ptr [rax]; 
94187788440972: add eax, 0xebe8f; xor edx, edx; mov esi, 0x2001; call qword ptr [rax]; 
94187788440971: lea eax, dword ptr [rip + 0xebe8f]; xor edx, edx; mov esi, 0x2001; call qword ptr [rax]; 
94187788440970: lea rax, qword ptr [rip + 0xebe8f]; xor edx, edx; mov esi, 0x2001; call qword ptr [rax]; 
94187788440967: or byte ptr [rbp + 0x16], dh; lea rax, qword ptr [rip + 0xebe8f]; xor edx, edx; mov esi, 0x2001; call qword ptr [rax]; 
94187788442779: call rax; 
94187788442777: mov edi, esi; call rax; 
94187788442776: mov rdi, r14; call rax; 
94187788442775: add byte ptr [rcx + rcx*4 - 9], cl; call rax; 
94187788442773: nop dword ptr [rax]; mov rdi, r14; call rax; 
94187788439638: jmp qword ptr [rsi + 0xf]; 
94187788441241: jmp qword ptr [rsi + 0xf]; 
94187788441301: jmp qword ptr [rsi + 0x2e]; 
94187788442681: jmp qword ptr [rsi + 0xf]; 
94187788442790: jmp qword ptr [rsi + 0xf]; 
94187788442929: jmp qword ptr [rsi + 0xf]; 
94187788439577: call qword ptr [rax + 8]; 
94187788439575: add byte ptr [rax], al; call qword ptr [rax + 8]; 
94187788439573: add dword ptr [rax], esp; add byte ptr [rax], al; call qword ptr [rax + 8]; 
94187788439572: mov esi, 0x2001; call qword ptr [rax + 8]; 
94187788439571: add byte ptr [rsi + 0x2001], bh; call qword ptr [rax + 8]; 
94187788439567: add eax, 0xec40c; mov esi, 0x2001; call qword ptr [rax + 8]; 
94187788439566: lea eax, dword ptr [rip + 0xec40c]; mov esi, 0x2001; call qword ptr [rax + 8]; 
94187788439565: lea rax, qword ptr [rip + 0xec40c]; mov esi, 0x2001; call qword ptr [rax + 8]; 
94187788439564: lea rax, qword ptr [rip + 0xec40c]; mov esi, 0x2001; call qword ptr [rax + 8]; 
94187788439563: mov edx, esi; lea rax, qword ptr [rip + 0xec40c]; mov esi, 0x2001; call qword ptr [rax + 8]; 
94187788439562: mov rdx, rsi; lea rax, qword ptr [rip + 0xec40c]; mov esi, 0x2001; call qword ptr [rax + 8]; 
94187788439561: push rsi; mov rdx, rsi; lea rax, qword ptr [rip + 0xec40c]; mov esi, 0x2001; call qword ptr [rax + 8]; 
94187788439559: and byte ptr [rsi + rdx*2 + 0x48], dh; mov edx, esi; lea rax, qword ptr [rip + 0xec40c]; mov esi, 0x2001; call qword ptr [rax + 8]; 
94187788439977: call qword ptr [rax + 8]; 
94187788439975: add byte ptr [rax], al; call qword ptr [rax + 8]; 
94187788439973: add al, 0; add byte ptr [rax], al; call qword ptr [rax + 8]; 
94187788439972: mov esi, 4; call qword ptr [rax + 8]; 
94187788439971: fistp qword ptr [rsi + 4]; call qword ptr [rax + 8]; 
94187788439970: mov edi, ebx; mov esi, 4; call qword ptr [rax + 8]; 
94187788439969: mov rdi, rbx; mov esi, 4; call qword ptr [rax + 8]; 
94187788439968: ror byte ptr [rax - 0x77], cl; fistp qword ptr [rsi + 4]; call qword ptr [rax + 8]; 
94187788439967: xor edx, edx; mov rdi, rbx; mov esi, 4; call qword ptr [rax + 8]; 
94187788439966: add byte ptr [rcx], dh; ror byte ptr [rax - 0x77], cl; fistp qword ptr [rsi + 4]; call qword ptr [rax + 8]; 
94187788439963: add edx, 0xd231000e; mov rdi, rbx; mov esi, 4; call qword ptr [rax + 8]; 
94187788439962: add eax, 0xec281; xor edx, edx; mov rdi, rbx; mov esi, 4; call qword ptr [rax + 8]; 
94187788439961: lea eax, dword ptr [rip + 0xec281]; xor edx, edx; mov rdi, rbx; mov esi, 4; call qword ptr [rax + 8]; 
94187788439960: lea rax, qword ptr [rip + 0xec281]; xor edx, edx; mov rdi, rbx; mov esi, 4; call qword ptr [rax + 8]; 
94187788440294: call qword ptr [rbx - 0x18]; 
94187788440291: mov byte ptr [rbx - 0x1f], al; call qword ptr [rbx - 0x18]; 
94187788440288: or eax, 4; mov byte ptr [rbx - 0x1f], al; call qword ptr [rbx - 0x18]; 
94187788440286: add byte ptr [rax], al; or eax, 4; mov byte ptr [rbx - 0x1f], al; call qword ptr [rbx - 0x18]; 
94187788440284: add byte ptr [rax], al; add byte ptr [rax], al; or eax, 4; mov byte ptr [rbx - 0x1f], al; call qword ptr [rbx - 0x18]; 
94187788440281: mov dword ptr [rbx + 0x18], 0; or eax, 4; mov byte ptr [rbx - 0x1f], al; call qword ptr [rbx - 0x18]; 
94187788440280: mov qword ptr [rbx + 0x18], 0; or eax, 4; mov byte ptr [rbx - 0x1f], al; call qword ptr [rbx - 0x18]; 
94187788440279: test dword ptr [rax - 0x39], 0x1843; add byte ptr [rax], al; or eax, 4; mov byte ptr [rbx - 0x1f], al; call qword ptr [rbx - 0x18]; 
94187788440277: and eax, 0xfffffff7; mov qword ptr [rbx + 0x18], 0; or eax, 4; mov byte ptr [rbx - 0x1f], al; call qword ptr [rbx - 0x18]; 
94187788440544: call qword ptr [rbx - 0x40]; 
94187788440542: mov edi, esp; call qword ptr [rbx - 0x40]; 
94187788440541: mov rdi, r12; call qword ptr [rbx - 0x40]; 
94187788440540: xor ecx, dword ptr [rcx + rcx*4 - 0x19]; call qword ptr [rbx - 0x40]; 
94187788440538: adc byte ptr [rbp + 0x33], dh; mov rdi, r12; call qword ptr [rbx - 0x40]; 
94187788440619: call qword ptr [rbx - 0x40]; 
94187788440617: mov edi, esp; call qword ptr [rbx - 0x40]; 
94187788440616: mov rdi, r12; call qword ptr [rbx - 0x40]; 
94187788440615: dec dword ptr [rcx + rcx*4 - 0x19]; call qword ptr [rbx - 0x40]; 
94187788440614: std; dec dword ptr [rcx + rcx*4 - 0x19]; call qword ptr [rbx - 0x40]; 
94187788440613: out 0xfd, al; dec dword ptr [rcx + rcx*4 - 0x19]; call qword ptr [rbx - 0x40]; 
94187788440612: pop rax; out 0xfd, al; dec dword ptr [rcx + rcx*4 - 0x19]; call qword ptr [rbx - 0x40]; 
94187788440611: call 0x55a9cda9fa80; mov rdi, r12; call qword ptr [rbx - 0x40]; 
94187788440610: add al, ch; pop rax; out 0xfd, al; dec dword ptr [rcx + rcx*4 - 0x19]; call qword ptr [rbx - 0x40]; 
94187788440609: or byte ptr [rax], al; call 0x55a9cda9fa80; mov rdi, r12; call qword ptr [rbx - 0x40]; 
94187788440870: call qword ptr [rax + 8]; 
94187788440868: add byte ptr [rax], al; call qword ptr [rax + 8]; 
94187788440866: add dword ptr [rax], esp; add byte ptr [rax], al; call qword ptr [rax + 8]; 
94187788440865: mov esi, 0x2001; call qword ptr [rax + 8]; 
94187788440864: add byte ptr [rsi + 0x2001], bh; call qword ptr [rax + 8]; 
94187788440863: add byte ptr [rax], al; mov esi, 0x2001; call qword ptr [rax + 8]; 
94187788440862: add byte ptr [rax], al; add byte ptr [rsi + 0x2001], bh; call qword ptr [rax + 8]; 
94187788440861: add al, byte ptr [rax]; add byte ptr [rax], al; mov esi, 0x2001; call qword ptr [rax + 8]; 
94187788440860: mov edx, 2; mov esi, 0x2001; call qword ptr [rax + 8]; 
94187788440859: add byte ptr [rdx + 2], bh; mov esi, 0x2001; call qword ptr [rax + 8]; 
94187788440857: mov edi, 0x2ba000e; add byte ptr [rax], al; add byte ptr [rsi + 0x2001], bh; call qword ptr [rax + 8]; 
94187788440855: add eax, 0xebf04; mov edx, 2; mov esi, 0x2001; call qword ptr [rax + 8]; 
94187788440854: lea eax, dword ptr [rip + 0xebf04]; mov edx, 2; mov esi, 0x2001; call qword ptr [rax + 8]; 
94187788440853: lea rax, qword ptr [rip + 0xebf04]; mov edx, 2; mov esi, 0x2001; call qword ptr [rax + 8]; 
94187788440852: sbb cl, byte ptr [rax - 0x73]; add eax, 0xebf04; mov edx, 2; mov esi, 0x2001; call qword ptr [rax + 8]; 
94187788440850: add dword ptr [rbp + 0x1a], esi; lea rax, qword ptr [rip + 0xebf04]; mov edx, 2; mov esi, 0x2001; call qword ptr [rax + 8]; 
94187788440849: vpcmpeqw xmm11, xmm15, xmmword ptr [rdx]; lea rax, qword ptr [rip + 0xebf04]; mov edx, 2; mov esi, 0x2001; call qword ptr [rax + 8]; 
94187788442653: call qword ptr [rbp + 0x50]; 
94187788442651: add byte ptr [rax], al; call qword ptr [rbp + 0x50]; 
94187788442649: add byte ptr [rax], al; add byte ptr [rax], al; call qword ptr [rbp + 0x50]; 
94187788442646: mov dword ptr [rdi + 0x20], 0; call qword ptr [rbp + 0x50]; 
94187788442645: mov qword ptr [r15 + 0x20], 0; call qword ptr [rbp + 0x50]; 
94187788442644: test dword ptr [rcx - 0x39], 0x2047; add byte ptr [rax], al; call qword ptr [rbp + 0x50]; 
94187788442643: mov edi, esi; mov qword ptr [r15 + 0x20], 0; call qword ptr [rbp + 0x50]; 
94187788442642: mov rdi, r14; mov qword ptr [r15 + 0x20], 0; call qword ptr [rbp + 0x50]; 
94187788442641: add byte ptr [rcx + rcx*4 - 9], cl; mov qword ptr [r15 + 0x20], 0; call qword ptr [rbp + 0x50]; 
94187788442640: add byte ptr [rax], al; mov rdi, r14; mov qword ptr [r15 + 0x20], 0; call qword ptr [rbp + 0x50]; 
94187788442639: add byte ptr [rax], al; add byte ptr [rcx + rcx*4 - 9], cl; mov qword ptr [r15 + 0x20], 0; call qword ptr [rbp + 0x50]; 
94187788442638: add byte ptr [rax], al; add byte ptr [rax], al; mov rdi, r14; mov qword ptr [r15 + 0x20], 0; call qword ptr [rbp + 0x50]; 
94187788442637: sub byte ptr [rax], al; add byte ptr [rax], al; add byte ptr [rcx + rcx*4 - 9], cl; mov qword ptr [r15 + 0x20], 0; call qword ptr [rbp + 0x50]; 
94187788442636: sub byte ptr [r8], r8b; add byte ptr [rax], al; add byte ptr [rcx + rcx*4 - 9], cl; mov qword ptr [r15 + 0x20], 0; call qword ptr [rbp + 0x50]; 
94187788442635: mov dword ptr [rdi + 0x28], 0; mov rdi, r14; mov qword ptr [r15 + 0x20], 0; call qword ptr [rbp + 0x50]; 
94187788442634: mov qword ptr [r15 + 0x28], 0; mov rdi, r14; mov qword ptr [r15 + 0x20], 0; call qword ptr [rbp + 0x50]; 
94187788439553: ret 0x7408; 
94187788439612: ret 0x7428; 
94187788439610: or dh, dh; ret 0x7428; 
94187788439609: push rdi; or dh, dh; ret 0x7428; 
94187788439608: mov dh, 0x57; or dh, dh; ret 0x7428; 
94187788439606: mov ah, 0xf; mov dh, 0x57; or dh, dh; ret 0x7428; 
94187788439604: adc byte ptr [rsp + rsi*4 + 0xf], dh; mov dh, 0x57; or dh, dh; ret 0x7428; 
94187788439601: rol byte ptr [rax - 0x4b8bef1b], 0xf; mov dh, 0x57; or dh, dh; ret 0x7428; 
94187788439599: add byte ptr [rcx], dh; rol byte ptr [rax - 0x4b8bef1b], 0xf; mov dh, 0x57; or dh, dh; ret 0x7428; 
94187788439844: ret 0x7404; 
94187788439842: adc dh, dh; ret 0x7404; 
94187788439839: add byte ptr [rax - 0x75], cl; adc dh, dh; ret 0x7404; 
94187788439865: ret 0xe; 
94187788439897: ret 0x7401; 
94187788439895: add dh, dh; ret 0x7401; 
94187788439948: ret 0x7428; 
94187788439946: or dh, dh; ret 0x7428; 
94187788439945: push rbx; or dh, dh; ret 0x7428; 
94187788439944: mov dh, 0x53; or dh, dh; ret 0x7428; 
94187788439940: adc byte ptr [rsp + rcx*8 + 0xf], dh; mov dh, 0x53; or dh, dh; ret 0x7428; 
94187788439937: rol byte ptr [rax - 0x338bef1a], 0xf; mov dh, 0x53; or dh, dh; ret 0x7428; 
94187788439964: ret 0xe; 
94187788439959: mov ebx, 0x81058d48; ret 0xe; 
94187788440020: ret 0xe; 
94187788440019: leave; ret 0xe; 
94187788440068: ret 0xe; 
94187788440067: cdq; ret 0xe; 
94187788440106: ret 0x8b48; 
94187788440103: add byte ptr [rax - 0x77], cl; ret 0x8b48; 
94187788440140: ret 0x66c3; 
94187788440162: ret 0xe; 
94187788440224: ret 0x8548; 
94187788440666: ret 0xfeef; 
94187788440664: or al, ch; ret 0xfeef; 
94187788440663: in al, dx; or al, ch; ret 0xfeef; 
94187788441426: ret 0xc375; 
94187788441423: sub byte ptr [rbp + 0x39], cl; ret 0xc375; 
94187788441462: ret 0x4801; 
94187788442561: ret 0x8b49; 
94187788442755: ret 0xb60f; 
94187788442753: add al, 0x89; ret 0xb60f; 
94187788443364: ret 0x12b; 
94187788442830: call qword ptr [rax + 0x24548b48]; 
94187788435458: ret; 
94187788435545: ret; 
94187788435544: pop rbp; ret; 
94187788435543: pop rbx; pop rbp; ret; 
94187788435542: fcomp dword ptr [rbx + 0x5d]; ret; 
94187788435541: mov eax, ebx; pop rbx; pop rbp; ret; 
94187788435540: mov rax, rbx; pop rbx; pop rbp; ret; 
94187788435539: or byte ptr [rax - 0x77], cl; fcomp dword ptr [rbx + 0x5d]; ret; 
94187788435537: add esp, 8; mov rax, rbx; pop rbx; pop rbp; ret; 
94187788435536: add rsp, 8; mov rax, rbx; pop rbx; pop rbp; ret; 
94187788435563: ret; 
94187788435562: pop rbp; ret; 
94187788435561: pop rbx; pop rbp; ret; 
94187788435560: fcomp dword ptr [rbx + 0x5d]; ret; 
94187788435559: mov eax, ebx; pop rbx; pop rbp; ret; 
94187788435558: mov rax, rbx; pop rbx; pop rbp; ret; 
94187788435557: or byte ptr [rax - 0x77], cl; fcomp dword ptr [rbx + 0x5d]; ret; 
94187788435555: add esp, 8; mov rax, rbx; pop rbx; pop rbp; ret; 
94187788435554: add rsp, 8; mov rax, rbx; pop rbx; pop rbp; ret; 
94187788435612: ret; 
94187788435611: pop rdi; ret; 
94187788435610: pop r15; ret; 
94187788435609: pop rsi; pop r15; ret; 
94187788435608: pop r14; pop r15; ret; 
94187788435607: pop rbp; pop r14; pop r15; ret; 
94187788435606: pop r13; pop r14; pop r15; ret; 
94187788435605: pop rsp; pop r13; pop r14; pop r15; ret; 
94187788435604: pop r12; pop r13; pop r14; pop r15; ret; 
94187788436354: ret; 
94187788436351: add dword ptr [rax - 0x7f], ecx; ret; 
94187788436375: ret; 
94187788436374: pop rsp; ret; 
94187788436373: pop r12; ret; 
94187788436372: pop rbp; pop r12; ret; 
94187788436371: pop rbx; pop rbp; pop r12; ret; 
94187788436370: rcr byte ptr [rbx + 0x5d], 0x41; pop rsp; ret; 
94187788436369: xor eax, eax; pop rbx; pop rbp; pop r12; ret; 
94187788436368: mov edi, 0x5d5bc031; pop r12; ret; 
94187788436405: ret; 
94187788436404: pop rsp; ret; 
94187788436403: pop r12; ret; 
94187788436402: pop rbp; pop r12; ret; 
94187788436401: lcall ptr [rbp + 0x41]; pop rsp; ret; 
94187788436396: mov eax, 0xffffffff; pop rbp; pop r12; ret; 
94187788436395: mov rax, -1; pop rbp; pop r12; ret; 
94187788436394: pop rbx; mov rax, -1; pop rbp; pop r12; ret; 
94187788436840: ret; 
94187788436837: add byte ptr [rax - 0x77], cl; ret; 
94187788437187: ret; 
94187788437184: add dword ptr [rax - 0x7f], ecx; ret; 
94187788437551: ret; 
94187788437550: pop rdi; ret; 
94187788437549: pop r15; ret; 
94187788437548: pop rsi; pop r15; ret; 
94187788437547: pop r14; pop r15; ret; 
94187788437546: pop rbp; pop r14; pop r15; ret; 
94187788437545: pop r13; pop r14; pop r15; ret; 
94187788437544: pop rsp; pop r13; pop r14; pop r15; ret; 
94187788437543: pop r12; pop r13; pop r14; pop r15; ret; 
94187788437799: ret; 
94187788437796: ror byte ptr [rax + 0x29], cl; ret; 
94187788437794: xor byte ptr [rcx], dh; ror byte ptr [rax + 0x29], cl; ret; 
94187788437802: ret; 
94187788437799: ret; 
94187788437954: ret; 
94187788437953: sti; ret; 
94187788438002: ret; 
94187788438165: ret; 
94187788438164: pop rsi; ret; 
94187788438163: pop r14; ret; 
94187788438162: pop rbp; pop r14; ret; 
94187788438161: pop r13; pop r14; ret; 
94187788438160: pop rsp; pop r13; pop r14; ret; 
94187788438159: pop r12; pop r13; pop r14; ret; 
94187788438158: pop rbp; pop r12; pop r13; pop r14; ret; 
94187788438556: ret; 
94187788438921: ret; 
94187788438920: pop rdi; ret; 
94187788438919: pop r15; ret; 
94187788438918: pop rsi; pop r15; ret; 
94187788438917: pop r14; pop r15; ret; 
94187788438916: pop rbp; pop r14; pop r15; ret; 
94187788438915: pop r13; pop r14; pop r15; ret; 
94187788438914: pop rsp; pop r13; pop r14; pop r15; ret; 
94187788438913: pop r12; pop r13; pop r14; pop r15; ret; 
94187788438928: ret; 
94187788438926: add byte ptr [rax], al; ret; 
94187788438925: add byte ptr [rax], r8b; ret; 
94187788438923: nop dword ptr [rax + rax]; ret; 
94187788438922: nop word ptr [rax + rax]; ret; 
94187788438921: ret; 
94187788438952: ret; 
94187788438957: ret; 
94187788438952: ret; 
94187788438998: ret; 
94187788438995: dec dword ptr [rax - 0x77]; ret; 
94187788439033: ret; 
94187788439032: pop rbp; ret; 
94187788439031: pop r13; ret; 
94187788439030: pop rsp; pop r13; ret; 
94187788439029: pop r12; pop r13; ret; 
94187788439028: pop rbp; pop r12; pop r13; ret; 
94187788439027: pop rbx; pop rbp; pop r12; pop r13; ret; 
94187788439026: or byte ptr [rbx + 0x5d], bl; pop r12; pop r13; ret; 
94187788439466: ret; 
94187788439465: pop rbp; ret; 
94187788439464: pop r13; ret; 
94187788439463: pop rsp; pop r13; ret; 
94187788439462: pop r12; pop r13; ret; 
94187788439461: pop rbp; pop r12; pop r13; ret; 
94187788439460: pop rbx; pop rbp; pop r12; pop r13; ret; 
94187788439459: sbb byte ptr [rbx + 0x5d], bl; pop r12; pop r13; ret; 
94187788439535: ret; 
94187788439532: add esp, 8; ret; 
94187788439531: add rsp, 8; ret; 
94187788439529: neg eax; add rsp, 8; ret; 
94187788439528: neg rax; add rsp, 8; ret; 
94187788439527: ror byte ptr [rax - 9], 0xd8; add rsp, 8; ret; 
94187788439526: mov dh, 0xc0; neg rax; add rsp, 8; ret; 
94187788439525: movzx eax, al; neg rax; add rsp, 8; ret; 
94187788439524: ror byte ptr [rdi], 0xb6; ror byte ptr [rax - 9], 0xd8; add rsp, 8; ret; 
94187788439523: xchg eax, esp; ror byte ptr [rdi], 0xb6; ror byte ptr [rax - 9], 0xd8; add rsp, 8; ret; 
94187788439522: sete al; movzx eax, al; neg rax; add rsp, 8; ret; 
94187788437169: call qword ptr [rax]; 
94187788437168: out dx, eax; call qword ptr [rax]; 
94187788437167: mov edi, ebp; call qword ptr [rax]; 
94187788437166: mov rdi, rbp; call qword ptr [rax]; 
94187788437165: add byte ptr [rax - 0x77], cl; out dx, eax; call qword ptr [rax]; 
94187788437164: add byte ptr [rax], al; mov rdi, rbp; call qword ptr [rax]; 
94187788437163: and byte ptr [rax], al; add byte ptr [rax - 0x77], cl; out dx, eax; call qword ptr [rax]; 
94187788437162: add dword ptr [rax], esp; add byte ptr [rax], al; mov rdi, rbp; call qword ptr [rax]; 
94187788437161: mov esi, 0x2001; mov rdi, rbp; call qword ptr [rax]; 
94187788437160: sar byte ptr [rsi + 0x2001], cl; mov rdi, rbp; call qword ptr [rax]; 
94187788437159: xor edx, edx; mov esi, 0x2001; mov rdi, rbp; call qword ptr [rax]; 
94187788437158: add byte ptr [rcx], dh; sar byte ptr [rsi + 0x2001], cl; mov rdi, rbp; call qword ptr [rax]; 
94187788437156: int 0xe; add byte ptr [rcx], dh; sar byte ptr [rsi + 0x2001], cl; mov rdi, rbp; call qword ptr [rax]; 
94187788437154: add eax, 0xecd79; xor edx, edx; mov esi, 0x2001; mov rdi, rbp; call qword ptr [rax]; 
94187788437153: lea eax, dword ptr [rip + 0xecd79]; xor edx, edx; mov esi, 0x2001; mov rdi, rbp; call qword ptr [rax]; 
94187788437152: lea rax, qword ptr [rip + 0xecd79]; xor edx, edx; mov esi, 0x2001; mov rdi, rbp; call qword ptr [rax]; 
94187788439516: call qword ptr [rax]; 
94187788439514: add byte ptr [rax], al; call qword ptr [rax]; 
94187788439512: add dword ptr [rax], esp; add byte ptr [rax], al; call qword ptr [rax]; 
94187788439511: mov esi, 0x2001; call qword ptr [rax]; 
94187788439510: add byte ptr [rsi + 0x2001], bh; call qword ptr [rax]; 
94187788439506: add eax, 0xec449; mov esi, 0x2001; call qword ptr [rax]; 
94187788439505: lea eax, dword ptr [rip + 0xec449]; mov esi, 0x2001; call qword ptr [rax]; 
94187788439504: lea rax, qword ptr [rip + 0xec449]; mov esi, 0x2001; call qword ptr [rax]; 
94187788439503: sbb ecx, dword ptr [rax - 0x73]; add eax, 0xec449; mov esi, 0x2001; call qword ptr [rax]; 
94187788439501: sub byte ptr [rbp + 0x1b], dh; lea rax, qword ptr [rip + 0xec449]; mov esi, 0x2001; call qword ptr [rax]; 
94187788435768: call rdx; 
94187788435766: sub al, 0xc8; call rdx; 
94187788435765: lea ebp, dword ptr [rax + rcx*8]; call rdx; 
94187788435764: lea rbp, qword ptr [rax + rcx*8]; call rdx; 
94187788435763: add byte ptr [rax - 0x73], cl; sub al, 0xc8; call rdx; 
94187788435762: add byte ptr [r8 - 0x73], r9b; sub al, 0xc8; call rdx; 
94187788435761: mov eax, dword ptr [rbp]; lea rbp, qword ptr [rax + rcx*8]; call rdx; 
94187788435760: mov rax, qword ptr [r13]; lea rbp, qword ptr [rax + rcx*8]; call rdx; 
94187788435759: or byte ptr [rcx - 0x75], cl; add byte ptr [r8 - 0x73], r9b; sub al, 0xc8; call rdx; 
94187788435758: mov ecx, dword ptr [rax]; mov rax, qword ptr [r13]; lea rbp, qword ptr [rax + rcx*8]; call rdx; 
94187788435757: mov rcx, qword ptr [rax]; mov rax, qword ptr [r13]; lea rbp, qword ptr [rax + rcx*8]; call rdx; 
94187788435756: mov rcx, qword ptr [rax]; mov rax, qword ptr [r13]; lea rbp, qword ptr [rax + rcx*8]; call rdx; 
94187788435754: sal byte ptr [rsp + rcx*2 + 0x48], cl; mov ecx, dword ptr [rax]; mov rax, qword ptr [r13]; lea rbp, qword ptr [rax + rcx*8]; call rdx; 
94187788436190: call rdx; 
94187788436188: xor al, 0xc8; call rdx; 
94187788436187: mov esi, dword ptr [rax + rcx*8]; call rdx; 
94187788436186: mov rsi, qword ptr [rax + rcx*8]; call rdx; 
94187788436185: add byte ptr [rax - 0x75], cl; xor al, 0xc8; call rdx; 
94187788436184: add byte ptr [r8 - 0x75], r9b; xor al, 0xc8; call rdx; 
94187788436183: mov eax, dword ptr [rbp]; mov rsi, qword ptr [rax + rcx*8]; call rdx; 
94187788436182: mov rax, qword ptr [r13]; mov rsi, qword ptr [rax + rcx*8]; call rdx; 
94187788436181: or byte ptr [rcx - 0x75], cl; add byte ptr [r8 - 0x75], r9b; xor al, 0xc8; call rdx; 
94187788436180: mov ecx, dword ptr [rax]; mov rax, qword ptr [r13]; mov rsi, qword ptr [rax + rcx*8]; call rdx; 
94187788436179: mov rcx, qword ptr [rax]; mov rax, qword ptr [r13]; mov rsi, qword ptr [rax + rcx*8]; call rdx; 
94187788436178: int 0x48; mov ecx, dword ptr [rax]; mov rax, qword ptr [r13]; mov rsi, qword ptr [rax + rcx*8]; call rdx; 
94187788436176: sal byte ptr [rbp + rcx*8 + 0x48], cl; mov ecx, dword ptr [rax]; mov rax, qword ptr [r13]; mov rsi, qword ptr [rax + rcx*8]; call rdx; 
94187788437491: call rax; 
94187788437490: out dx, eax; call rax; 
94187788437489: mov edi, ebp; call rax; 
94187788437488: mov rdi, rbp; call rax; 
94187788437487: add byte ptr [rax - 0x77], cl; out dx, eax; call rax; 
94187788437486: add byte ptr [rax], al; mov rdi, rbp; call rax; 
94187788437485: and byte ptr [rax], al; add byte ptr [rax - 0x77], cl; out dx, eax; call rax; 
94187788437484: add dword ptr [rax], esp; add byte ptr [rax], al; mov rdi, rbp; call rax; 
94187788437483: mov esi, 0x2001; mov rdi, rbp; call rax; 
94187788437482: push rbp; mov esi, 0x2001; mov rdi, rbp; call rax; 
94187788437480: add dword ptr [rsi + 0x55], edi; mov esi, 0x2001; mov rdi, rbp; call rax; 
94187788437478: jns 0x55a9cdac0808; add dword ptr [rsi + 0x55], edi; mov esi, 0x2001; mov rdi, rbp; call rax; 
94187788437597: jmp qword ptr [rsi - 0x70]; 
94187788438273: jmp qword ptr [rsi + 0xf]; 
94187788439281: jmp qword ptr [rsi + 0xf]; 
94187788439398: jmp qword ptr [rsi + 0xf]; 
94187788436750: call qword ptr [rax + 0x58]; 
94187788436748: mov edi, edi; call qword ptr [rax + 0x58]; 
94187788436747: mov rdi, r15; call qword ptr [rax + 0x58]; 
94187788436746: add byte ptr [rcx + rcx*4 - 1], cl; call qword ptr [rax + 0x58]; 
94187788436745: or eax, 0xff894c00; call qword ptr [rax + 0x58]; 
94187788436743: add eax, 0x4c000dc5; mov edi, edi; call qword ptr [rax + 0x58]; 
94187788436742: xor eax, 0xdc505; mov rdi, r15; call qword ptr [rax + 0x58]; 
94187788436741: mov esi, dword ptr [rip + 0xdc505]; mov rdi, r15; call qword ptr [rax + 0x58]; 
94187788436740: mov rsi, qword ptr [rip + 0xdc505]; mov rdi, r15; call qword ptr [rax + 0x58]; 
94187788436739: cmp byte ptr [rax - 0x75], cl; xor eax, 0xdc505; mov rdi, r15; call qword ptr [rax + 0x58]; 
94187788436738: cmp byte ptr [rax - 0x75], cl; xor eax, 0xdc505; mov rdi, r15; call qword ptr [rax + 0x58]; 
94187788436737: mov eax, dword ptr [rax + 0x38]; mov rsi, qword ptr [rip + 0xdc505]; mov rdi, r15; call qword ptr [rax + 0x58]; 
94187788436736: mov rax, qword ptr [rax + 0x38]; mov rsi, qword ptr [rip + 0xdc505]; mov rdi, r15; call qword ptr [rax + 0x58]; 
94187788436735: add byte ptr [rax - 0x75], cl; cmp byte ptr [rax - 0x75], cl; xor eax, 0xdc505; mov rdi, r15; call qword ptr [rax + 0x58]; 
94187788436734: add byte ptr [rax], al; mov rax, qword ptr [rax + 0x38]; mov rsi, qword ptr [rip + 0xdc505]; mov rdi, r15; call qword ptr [rax + 0x58]; 
94187788437375: call qword ptr [rax + 8]; 
94187788437373: and al, 8; call qword ptr [rax + 8]; 
94187788437372: and al, 8; call qword ptr [rax + 8]; 
94187788437371: mov dword ptr [rsp + 8], ecx; call qword ptr [rax + 8]; 
94187788437370: mov qword ptr [rsp + 8], r9; call qword ptr [rax + 8]; 
94187788437369: or byte ptr [rcx + rcx*4 + 0x4c], cl; and al, 8; call qword ptr [rax + 8]; 
94187788437368: jns 0x55a9cdac0782; mov qword ptr [rsp + 8], r9; call qword ptr [rax + 8]; 
94187788437367: mov edi, dword ptr [rcx + 8]; mov qword ptr [rsp + 8], r9; call qword ptr [rax + 8]; 
94187788437366: mov rdi, qword ptr [r9 + 8]; mov qword ptr [rsp + 8], r9; call qword ptr [rax + 8]; 
94187788437365: add byte ptr [rcx - 0x75], cl; jns 0x55a9cdac0782; mov qword ptr [rsp + 8], r9; call qword ptr [rax + 8]; 
94187788437361: add eax, 0xeccaa; mov rdi, qword ptr [r9 + 8]; mov qword ptr [rsp + 8], r9; call qword ptr [rax + 8]; 
94187788437360: lea eax, dword ptr [rip + 0xeccaa]; mov rdi, qword ptr [r9 + 8]; mov qword ptr [rsp + 8], r9; call qword ptr [rax + 8]; 
94187788437359: lea rax, qword ptr [rip + 0xeccaa]; mov rdi, qword ptr [r9 + 8]; mov qword ptr [rsp + 8], r9; call qword ptr [rax + 8]; 
94187788437358: add byte ptr [rax - 0x73], cl; add eax, 0xeccaa; mov rdi, qword ptr [r9 + 8]; mov qword ptr [rsp + 8], r9; call qword ptr [rax + 8]; 
94187788437357: add byte ptr [rax], al; lea rax, qword ptr [rip + 0xeccaa]; mov rdi, qword ptr [r9 + 8]; mov qword ptr [rsp + 8], r9; call qword ptr [rax + 8]; 
94187788439191: call qword ptr [rax + 0x38]; 
94187788439188: mov ebp, dword ptr [rbp]; call qword ptr [rax + 0x38]; 
94187788439187: mov r13, qword ptr [rbp]; call qword ptr [rax + 0x38]; 
94187788439185: mov edi, ebx; mov r13, qword ptr [rbp]; call qword ptr [rax + 0x38]; 
94187788439184: mov rdi, rbx; mov r13, qword ptr [rbp]; call qword ptr [rax + 0x38]; 
94187788439179: add eax, 0xec590; mov rdi, rbx; mov r13, qword ptr [rbp]; call qword ptr [rax + 0x38]; 
94187788439178: lea eax, dword ptr [rip + 0xec590]; mov rdi, rbx; mov r13, qword ptr [rbp]; call qword ptr [rax + 0x38]; 
94187788439177: lea rax, qword ptr [rip + 0xec590]; mov rdi, rbx; mov r13, qword ptr [rbp]; call qword ptr [rax + 0x38]; 
94187788439176: add byte ptr [rax - 0x73], cl; add eax, 0xec590; mov rdi, rbx; mov r13, qword ptr [rbp]; call qword ptr [rax + 0x38]; 
94187788439172: sub eax, 0xec457; lea rax, qword ptr [rip + 0xec590]; mov rdi, rbx; mov r13, qword ptr [rbp]; call qword ptr [rax + 0x38]; 
94187788439171: lea ebp, dword ptr [rip + 0xec457]; lea rax, qword ptr [rip + 0xec590]; mov rdi, rbx; mov r13, qword ptr [rbp]; call qword ptr [rax + 0x38]; 
94187788439170: lea rbp, qword ptr [rip + 0xec457]; lea rax, qword ptr [rip + 0xec590]; mov rdi, rbx; mov r13, qword ptr [rbp]; call qword ptr [rax + 0x38]; 
94187788436702: ret 0x4808; 
94187788436699: add cl, byte ptr [rax - 0x7d]; ret 0x4808; 
94187788436696: add byte ptr [rax - 0x75], cl; add cl, byte ptr [rax - 0x7d]; ret 0x4808; 
94187788436694: add byte ptr [rax], al; add byte ptr [rax - 0x75], cl; add cl, byte ptr [rax - 0x7d]; ret 0x4808; 
94187788436941: ret 0xf075; 
94187788436937: shl byte ptr [rax + 0x48], 0x39; ret 0xf075; 
94187788436934: add byte ptr [rax - 0x7d], cl; shl byte ptr [rax + 0x48], 0x39; ret 0xf075; 
94187788436932: add byte ptr [rcx], al; add byte ptr [rax - 0x7d], cl; shl byte ptr [rax + 0x48], 0x39; ret 0xf075; 
94187788436987: ret 0xc148; 
94187788437006: ret 0x4860; 
94187788437003: add dword ptr [rax - 0x7d], ecx; ret 0x4860; 
94187788437307: ret 0xb60f; 
94187788437578: ret 0x4808; 
94187788437575: add byte ptr [rax - 0x7d], cl; ret 0x4808; 
94187788437574: add byte ptr [rax - 0x7d], cl; ret 0x4808; 
94187788437780: ret 0x3e8; 
94187788438511: ret 0x4801; 
94187788438508: or byte ptr [rax - 0x7d], cl; ret 0x4801; 
94187788438507: or byte ptr [rax - 0x7d], cl; ret 0x4801; 
94187788438505: dec dword ptr [rcx - 0x7cb7f7b8]; ret 0x4801; 
94187788438585: ret 0xfffd; 
94187788438584: push rsp; ret 0xfffd; 
94187788439113: ret 0xdbb; 
94187788439546: ret 0x7428; 
94187788439544: or dh, dh; ret 0x7428; 
94187788439543: push rdi; or dh, dh; ret 0x7428; 
94187788439542: mov dh, 0x57; or dh, dh; ret 0x7428; 
94187788439540: cmp ecx, dword ptr [rdi]; mov dh, 0x57; or dh, dh; ret 0x7428; 
94187788439538: add dword ptr [rbx + rdi + 0xf], esi; mov dh, 0x57; or dh, dh; ret 0x7428; 
94187788439537: rol dword ptr [rcx], 0x74; cmp ecx, dword ptr [rdi]; mov dh, 0x57; or dh, dh; ret 0x7428; 
94187788437502: call qword ptr [rax - 0x3f38b8]; 
94187788399480: ret; 
94187788399479: pop rsp; ret; 
94187788399478: pop r12; ret; 
94187788399477: pop rbp; pop r12; ret; 
94187788399476: pop rbx; pop rbp; pop r12; ret; 
94187788399475: or al, 0x5b; pop rbp; pop r12; ret; 
94187788399473: push qword ptr [rsp + rcx + 0x5b]; pop rbp; pop r12; ret; 
94187788399471: add byte ptr [rax], al; push qword ptr [rsp + rcx + 0x5b]; pop rbp; pop r12; ret; 
94187788399562: ret; 
94187788399561: pop rsp; ret; 
94187788399560: pop r12; ret; 
94187788399559: pop rbp; pop r12; ret; 
94187788399558: pop rbx; pop rbp; pop r12; ret; 
94187788399557: cdq; pop rbx; pop rbp; pop r12; ret; 
94187788399555: sal byte ptr [rcx + rbx*4 + 0x5b], 0x5d; pop r12; ret; 
94187788399552: dec dword ptr [rax - 0x7b]; sal byte ptr [rcx + rbx*4 + 0x5b], 0x5d; pop r12; ret; 
94187788399936: ret; 
94187788399935: pop rdi; ret; 
94187788399934: pop r15; ret; 
94187788399933: pop rsi; pop r15; ret; 
94187788399932: pop r14; pop r15; ret; 
94187788399931: pop rbp; pop r14; pop r15; ret; 
94187788399930: pop r13; pop r14; pop r15; ret; 
94187788399929: pop rsp; pop r13; pop r14; pop r15; ret; 
94187788399928: pop r12; pop r13; pop r14; pop r15; ret; 
94187788400041: ret; 
94187788400040: pop rdi; ret; 
94187788400039: pop r15; ret; 
94187788400038: pop rsi; pop r15; ret; 
94187788400037: pop r14; pop r15; ret; 
94187788400036: pop rbp; pop r14; pop r15; ret; 
94187788400035: pop r13; pop r14; pop r15; ret; 
94187788400034: pop rsp; pop r13; pop r14; pop r15; ret; 
94187788400033: pop r12; pop r13; pop r14; pop r15; ret; 
94187788400300: ret; 
94187788400299: pop rsi; ret; 
94187788400298: pop r14; ret; 
94187788400297: pop rbp; pop r14; ret; 
94187788400296: pop r13; pop r14; ret; 
94187788400295: pop rsp; pop r13; pop r14; ret; 
94187788400294: pop r12; pop r13; pop r14; ret; 
94187788400293: pop rbp; pop r12; pop r13; pop r14; ret; 
94187788400339: ret; 
94187788400338: pop rsi; ret; 
94187788400337: pop r14; ret; 
94187788400336: pop rbp; pop r14; ret; 
94187788400335: pop r13; pop r14; ret; 
94187788400334: pop rsp; pop r13; pop r14; ret; 
94187788400333: pop r12; pop r13; pop r14; ret; 
94187788400332: pop rbp; pop r12; pop r13; pop r14; ret; 
94187788401271: ret; 
94187788401270: pop rdi; ret; 
94187788401269: pop r15; ret; 
94187788401268: pop rsi; pop r15; ret; 
94187788401267: pop r14; pop r15; ret; 
94187788401266: pop rbp; pop r14; pop r15; ret; 
94187788401265: pop r13; pop r14; pop r15; ret; 
94187788401264: pop rsp; pop r13; pop r14; pop r15; ret; 
94187788401263: pop r12; pop r13; pop r14; pop r15; ret; 
94187788402023: ret; 
94187788402022: pop rbp; ret; 
94187788402021: pop rbx; pop rbp; ret; 
94187788402020: or byte ptr [rbx + 0x5d], bl; ret; 
94187788402018: add esp, 8; pop rbx; pop rbp; ret; 
94187788402017: add rsp, 8; pop rbx; pop rbp; ret; 
94187788402016: cmovs eax, dword ptr [rbx + 0x5d5b08c4]; ret; 
94187788402014: push qword ptr [rbp + 0xf]; add rsp, 8; pop rbx; pop rbp; ret; 
94187788402060: ret; 
94187788402059: pop rbp; ret; 
94187788402058: pop rbx; pop rbp; ret; 
94187788402057: or byte ptr [rbx + 0x5d], bl; ret; 
94187788402055: add esp, 8; pop rbx; pop rbp; ret; 
94187788402054: add rsp, 8; pop rbx; pop rbp; ret; 
94187788402052: push -0x3b7cb7f8; or byte ptr [rbx + 0x5d], bl; ret; 
94187788402051: mov dword ptr [rax + 8], ebp; add rsp, 8; pop rbx; pop rbp; ret; 
94187788402050: mov qword ptr [rax + 8], rbp; add rsp, 8; pop rbx; pop rbp; ret; 
94187788402049: fisttp word ptr [rax - 0x77]; push -0x3b7cb7f8; or byte ptr [rbx + 0x5d], bl; ret; 
94187788402047: sal byte ptr [rdi + rbx*8 + 0x48], 0x89; push -0x3b7cb7f8; or byte ptr [rbx + 0x5d], bl; ret; 
94187788402044: dec dword ptr [rax - 0x7b]; sal byte ptr [rdi + rbx*8 + 0x48], 0x89; push -0x3b7cb7f8; or byte ptr [rbx + 0x5d], bl; ret; 
94187788402174: ret; 
94187788402173: pop rbp; ret; 
94187788402172: pop rbx; pop rbp; ret; 
94187788402171: or byte ptr [rbx + 0x5d], bl; ret; 
94187788402169: add esp, 8; pop rbx; pop rbp; ret; 
94187788402168: add rsp, 8; pop rbx; pop rbp; ret; 
94187788402166: add byte ptr [rcx], al; add rsp, 8; pop rbx; pop rbp; ret; 
94187788402481: ret; 
94187788402480: pop rsp; ret; 
94187788402479: pop r12; ret; 
94187788402478: pop rbp; pop r12; ret; 
94187788402477: pop rbx; pop rbp; pop r12; ret; 
94187788402476: and byte ptr [rbx + 0x5d], bl; pop r12; ret; 
94187788402474: add esp, 0x20; pop rbx; pop rbp; pop r12; ret; 
94187788402473: add rsp, 0x20; pop rbx; pop rbp; pop r12; ret; 
94187788398972: call qword ptr [rax]; 
94187788398970: and al, 0x10; call qword ptr [rax]; 
94187788398968: mov edi, dword ptr [rsp + 0x10]; call qword ptr [rax]; 
94187788398967: mov rdi, qword ptr [rsp + 0x10]; call qword ptr [rax]; 
94187788398965: add byte ptr [rax], al; mov rdi, qword ptr [rsp + 0x10]; call qword ptr [rax]; 
94187788398963: add al, 0; add byte ptr [rax], al; mov rdi, qword ptr [rsp + 0x10]; call qword ptr [rax]; 
94187788398962: mov esi, 4; mov rdi, qword ptr [rsp + 0x10]; call qword ptr [rax]; 
94187788398960: mov edx, ecx; mov esi, 4; mov rdi, qword ptr [rsp + 0x10]; call qword ptr [rax]; 
94187788398959: mov rdx, rcx; mov esi, 4; mov rdi, qword ptr [rsp + 0x10]; call qword ptr [rax]; 
94187788398954: add eax, 0xf62b1; mov rdx, rcx; mov esi, 4; mov rdi, qword ptr [rsp + 0x10]; call qword ptr [rax]; 
94187788398953: lea eax, dword ptr [rip + 0xf62b1]; mov rdx, rcx; mov esi, 4; mov rdi, qword ptr [rsp + 0x10]; call qword ptr [rax]; 
94187788398952: lea rax, qword ptr [rip + 0xf62b1]; mov rdx, rcx; mov esi, 4; mov rdi, qword ptr [rsp + 0x10]; call qword ptr [rax]; 
94187788398809: jmp qword ptr [rsi + 0xf]; 
94187788398897: jmp qword ptr [rsi + 0xf]; 
94187788399397: jmp qword ptr [rsi + 0x2e]; 
94187788399683: jmp qword ptr [rsi + 0x66]; 
94187788400017: jmp qword ptr [rsi + 0xf]; 
94187788400385: jmp qword ptr [rsi + 0xf]; 
94187788400645: jmp qword ptr [rsi + 0x2e]; 
94187788401686: jmp qword ptr [rsi + 0xf]; 
94187788402533: jmp qword ptr [rsi + 0x2e]; 
94187788402581: jmp qword ptr [rsi + 0x2e]; 
94187788402642: jmp qword ptr [rsi + 0x66]; 
94187788400404: ret 0x12b; 
94187788401250: ret 2; 
94187788401395: ret 0xda80; 
94187788401394: xchg eax, edi; ret 0xda80; 
94187788401430: ret 0xda80; 
94187788401429: xchg eax, edi; ret 0xda80; 
94187788401515: ret 0xda80; 
94187788401514: xchg eax, edi; ret 0xda80; 
94187788401866: ret 0x4820; 
94187788401863: adc byte ptr [rax - 0x7d], cl; ret 0x4820; 
94187788401862: adc byte ptr [rax - 0x7d], cl; ret 0x4820; 
94187788401861: outsd dx, dword ptr [rsi]; adc byte ptr [rax - 0x7d], cl; ret 0x4820; 
94187788402302: ret 0x840f; 
94187788402299: add dword ptr [rax + 0x39], ecx; ret 0x840f; 
94187788402442: ret 0xfffd; 
94187788402549: ret 0xfffe; 
94187788402547: sub cl, ch; ret 0xfffe; 
94187788402546: sub r9b, r13b; ret 0xfffe; 
94187788402543: add byte ptr [rax - 0x77], cl; sub r9b, r13b; ret 0xfffe; 
94187788402541: add byte ptr [rax], al; add byte ptr [rax - 0x77], cl; sub r9b, r13b; ret 0xfffe; 
94187788402539: add byte ptr [rax], al; add byte ptr [rax], al; add byte ptr [rax - 0x77], cl; sub r9b, r13b; ret 0xfffe; 
94187788399646: call qword ptr [rax - 0x76b32e77]; 
94187788402491: call qword ptr [rbx + 0xb0]; 
94187788402489: mov edi, ebx; call qword ptr [rbx + 0xb0]; 
94187788402488: mov rdi, rbx; call qword ptr [rbx + 0xb0]; 
94187788402486: add byte ptr [rax], al; mov rdi, rbx; call qword ptr [rbx + 0xb0]; 
94187788402485: add byte ptr [rax], r8b; mov rdi, rbx; call qword ptr [rbx + 0xb0]; 
94187788402483: nop dword ptr [rax + rax]; mov rdi, rbx; call qword ptr [rbx + 0xb0]; 
94187788402482: nop word ptr [rax + rax]; mov rdi, rbx; call qword ptr [rbx + 0xb0]; 
94187788492993: ret; 
94187788492992: pop rdi; ret; 
94187788492991: pop r15; ret; 
94187788492990: pop rsi; pop r15; ret; 
94187788492989: pop r14; pop r15; ret; 
94187788492988: pop rbp; pop r14; pop r15; ret; 
94187788492987: pop r13; pop r14; pop r15; ret; 
94187788492986: pop rsp; pop r13; pop r14; pop r15; ret; 
94187788492985: pop r12; pop r13; pop r14; pop r15; ret; 
94187788493166: ret; 
94187788493298: ret; 
94187788493295: add byte ptr [rax - 0x7d], cl; ret; 
94187788493293: add byte ptr [rax], al; add byte ptr [rax - 0x7d], cl; ret; 
94187788493291: add byte ptr [rax], al; add byte ptr [rax], al; add byte ptr [rax - 0x7d], cl; ret; 
94187788493355: ret; 
94187788493354: pop rdi; ret; 
94187788493353: pop r15; ret; 
94187788493352: pop rsi; pop r15; ret; 
94187788493351: pop r14; pop r15; ret; 
94187788493350: pop rbp; pop r14; pop r15; ret; 
94187788493349: pop r13; pop r14; pop r15; ret; 
94187788493348: pop rsp; pop r13; pop r14; pop r15; ret; 
94187788493347: pop r12; pop r13; pop r14; pop r15; ret; 
94187788493439: ret; 
94187788493438: pop rbp; ret; 
94187788493437: pop r13; ret; 
94187788493436: pop rsp; pop r13; ret; 
94187788493435: pop r12; pop r13; ret; 
94187788493434: pop rbp; pop r12; pop r13; ret; 
94187788493433: pop rbx; pop rbp; pop r12; pop r13; ret; 
94187788493432: call 0x55aa29ee3fd8; pop r13; ret; 
94187788493553: ret; 
94187788493552: pop rbp; ret; 
94187788493551: pop r13; ret; 
94187788493550: pop rsp; pop r13; ret; 
94187788493549: pop r12; pop r13; ret; 
94187788493548: pop rbp; pop r12; pop r13; ret; 
94187788493547: call 0x55aa0f09244d; pop rbp; ret; 
94187788493546: mov eax, ebp; pop rbp; pop r12; pop r13; ret; 
94187788493545: mov rax, rbp; pop rbp; pop r12; pop r13; ret; 
94187788493645: ret; 
94187788493642: or byte ptr [rax - 0x7d], cl; ret; 
94187788493641: or byte ptr [rax - 0x7d], r9b; ret; 
94187788493638: add byte ptr [rbp - 0x75], cl; or byte ptr [rax - 0x7d], r9b; ret; 
94187788493636: add dword ptr [rax], eax; add byte ptr [rbp - 0x75], cl; or byte ptr [rax - 0x7d], r9b; ret; 
94187788493635: pop rcx; add dword ptr [rax], eax; add byte ptr [rbp - 0x75], cl; or byte ptr [rax - 0x7d], r9b; ret; 
94187788493729: ret; 
94187788493726: add dword ptr [rax - 0x7d], ecx; ret; 
94187788493811: ret; 
94187788493808: add dword ptr [rax - 0x7d], ecx; ret; 
94187788493852: ret; 
94187788493851: pop rdi; ret; 
94187788493850: pop r15; ret; 
94187788493849: pop rsi; pop r15; ret; 
94187788493848: pop r14; pop r15; ret; 
94187788493847: pop rbp; pop r14; pop r15; ret; 
94187788493846: pop r13; pop r14; pop r15; ret; 
94187788493845: pop rsp; pop r13; pop r14; pop r15; ret; 
94187788493844: pop r12; pop r13; pop r14; pop r15; ret; 
94187788494077: ret; 
94187788494074: add byte ptr [rax - 0x39], cl; ret; 
94187788494093: ret; 
94187788494092: pop rbp; ret; 
94187788494091: pop rbx; pop rbp; ret; 
94187788494090: fcomp dword ptr [rbx + 0x5d]; ret; 
94187788494089: mov eax, ebx; pop rbx; pop rbp; ret; 
94187788494088: mov rax, rbx; pop rbx; pop rbp; ret; 
94187788494087: or byte ptr [rax - 0x77], cl; fcomp dword ptr [rbx + 0x5d]; ret; 
94187788494085: add esp, 8; mov rax, rbx; pop rbx; pop rbp; ret; 
94187788494084: add rsp, 8; mov rax, rbx; pop rbx; pop rbp; ret; 
94187788494129: ret; 
94187788494128: pop rbp; ret; 
94187788494127: pop rbx; pop rbp; ret; 
94187788494126: fcomp dword ptr [rbx + 0x5d]; ret; 
94187788494125: mov eax, ebx; pop rbx; pop rbp; ret; 
94187788494124: mov rax, rbx; pop rbx; pop rbp; ret; 
94187788494123: or byte ptr [rax - 0x77], cl; fcomp dword ptr [rbx + 0x5d]; ret; 
94187788494121: add esp, 8; mov rax, rbx; pop rbx; pop rbp; ret; 
94187788494120: add rsp, 8; mov rax, rbx; pop rbx; pop rbp; ret; 
94187788494171: ret; 
94187788494168: add byte ptr [rax - 0x39], cl; ret; 
94187788494187: ret; 
94187788494186: pop rbp; ret; 
94187788494185: pop rbx; pop rbp; ret; 
94187788494184: fcomp dword ptr [rbx + 0x5d]; ret; 
94187788494183: mov eax, ebx; pop rbx; pop rbp; ret; 
94187788494182: mov rax, rbx; pop rbx; pop rbp; ret; 
94187788494181: or byte ptr [rax - 0x77], cl; fcomp dword ptr [rbx + 0x5d]; ret; 
94187788494179: add esp, 8; mov rax, rbx; pop rbx; pop rbp; ret; 
94187788494178: add rsp, 8; mov rax, rbx; pop rbx; pop rbp; ret; 
94187788494225: ret; 
94187788494224: pop rbp; ret; 
94187788494223: pop rbx; pop rbp; ret; 
94187788494222: fcomp dword ptr [rbx + 0x5d]; ret; 
94187788494221: mov eax, ebx; pop rbx; pop rbp; ret; 
94187788494220: mov rax, rbx; pop rbx; pop rbp; ret; 
94187788494219: or byte ptr [rax - 0x77], cl; fcomp dword ptr [rbx + 0x5d]; ret; 
94187788494217: add esp, 8; mov rax, rbx; pop rbx; pop rbp; ret; 
94187788494216: add rsp, 8; mov rax, rbx; pop rbx; pop rbp; ret; 
94187788494267: ret; 
94187788494264: add byte ptr [rax - 0x39], cl; ret; 
94187788494283: ret; 
94187788494282: pop rbp; ret; 
94187788494281: pop rbx; pop rbp; ret; 
94187788494280: fcomp dword ptr [rbx + 0x5d]; ret; 
94187788494279: mov eax, ebx; pop rbx; pop rbp; ret; 
94187788494278: mov rax, rbx; pop rbx; pop rbp; ret; 
94187788494277: or byte ptr [rax - 0x77], cl; fcomp dword ptr [rbx + 0x5d]; ret; 
94187788494275: add esp, 8; mov rax, rbx; pop rbx; pop rbp; ret; 
94187788494274: add rsp, 8; mov rax, rbx; pop rbx; pop rbp; ret; 
94187788494321: ret; 
94187788494320: pop rbp; ret; 
94187788494319: pop rbx; pop rbp; ret; 
94187788494318: fcomp dword ptr [rbx + 0x5d]; ret; 
94187788494317: mov eax, ebx; pop rbx; pop rbp; ret; 
94187788494316: mov rax, rbx; pop rbx; pop rbp; ret; 
94187788494315: or byte ptr [rax - 0x77], cl; fcomp dword ptr [rbx + 0x5d]; ret; 
94187788494313: add esp, 8; mov rax, rbx; pop rbx; pop rbp; ret; 
94187788494312: add rsp, 8; mov rax, rbx; pop rbx; pop rbp; ret; 
94187788494363: ret; 
94187788494360: add dword ptr [rax - 0x39], ecx; ret; 
94187788494379: ret; 
94187788494378: pop rbp; ret; 
94187788494377: pop rbx; pop rbp; ret; 
94187788494376: fcomp dword ptr [rbx + 0x5d]; ret; 
94187788494375: mov eax, ebx; pop rbx; pop rbp; ret; 
94187788494374: mov rax, rbx; pop rbx; pop rbp; ret; 
94187788494373: or byte ptr [rax - 0x77], cl; fcomp dword ptr [rbx + 0x5d]; ret; 
94187788494371: add esp, 8; mov rax, rbx; pop rbx; pop rbp; ret; 
94187788494370: add rsp, 8; mov rax, rbx; pop rbx; pop rbp; ret; 
94187788494417: ret; 
94187788494416: pop rbp; ret; 
94187788494415: pop rbx; pop rbp; ret; 
94187788494414: fcomp dword ptr [rbx + 0x5d]; ret; 
94187788494413: mov eax, ebx; pop rbx; pop rbp; ret; 
94187788494412: mov rax, rbx; pop rbx; pop rbp; ret; 
94187788494411: or byte ptr [rax - 0x77], cl; fcomp dword ptr [rbx + 0x5d]; ret; 
94187788494409: add esp, 8; mov rax, rbx; pop rbx; pop rbp; ret; 
94187788494408: add rsp, 8; mov rax, rbx; pop rbx; pop rbp; ret; 
94187788494404: cmp byte ptr [rdi*8 - 0x3b7cb701], dl; or byte ptr [rax - 0x77], cl; fcomp dword ptr [rbx + 0x5d]; ret; 
94187788494568: ret; 
94187788494567: pop rsp; ret; 
94187788494566: pop r12; ret; 
94187788494565: pop rbp; pop r12; ret; 
94187788494564: pop rbx; pop rbp; pop r12; ret; 
94187788494563: adc byte ptr [rbx + 0x5d], bl; pop r12; ret; 
94187788494561: add esp, 0x10; pop rbx; pop rbp; pop r12; ret; 
94187788494560: add rsp, 0x10; pop rbx; pop rbp; pop r12; ret; 
94187788494625: ret; 
94187788494749: ret; 
94187788494748: pop rbp; ret; 
94187788494747: pop rbx; pop rbp; ret; 
94187788494746: fcomp dword ptr [rbx + 0x5d]; ret; 
94187788494745: mov eax, ebx; pop rbx; pop rbp; ret; 
94187788494744: mov rax, rbx; pop rbx; pop rbp; ret; 
94187788494743: or byte ptr [rax - 0x77], cl; fcomp dword ptr [rbx + 0x5d]; ret; 
94187788494741: add esp, 8; mov rax, rbx; pop rbx; pop rbp; ret; 
94187788494740: add rsp, 8; mov rax, rbx; pop rbx; pop rbp; ret; 
94187788494759: ret; 
94187788494756: add dword ptr [rax - 0x39], ecx; ret; 
94187788494749: ret; 
94187788494827: ret; 
94187788494824: add dword ptr [rax - 0x39], ecx; ret; 
94187788494843: ret; 
94187788494842: pop rbp; ret; 
94187788494841: pop rbx; pop rbp; ret; 
94187788494840: fcomp dword ptr [rbx + 0x5d]; ret; 
94187788494839: mov eax, ebx; pop rbx; pop rbp; ret; 
94187788494838: mov rax, rbx; pop rbx; pop rbp; ret; 
94187788494837: or byte ptr [rax - 0x77], cl; fcomp dword ptr [rbx + 0x5d]; ret; 
94187788494835: add esp, 8; mov rax, rbx; pop rbx; pop rbp; ret; 
94187788494834: add rsp, 8; mov rax, rbx; pop rbx; pop rbp; ret; 
94187788494881: ret; 
94187788494880: pop rbp; ret; 
94187788494879: pop rbx; pop rbp; ret; 
94187788494878: fcomp dword ptr [rbx + 0x5d]; ret; 
94187788494877: mov eax, ebx; pop rbx; pop rbp; ret; 
94187788494876: mov rax, rbx; pop rbx; pop rbp; ret; 
94187788494875: or byte ptr [rax - 0x77], cl; fcomp dword ptr [rbx + 0x5d]; ret; 
94187788494873: add esp, 8; mov rax, rbx; pop rbx; pop rbp; ret; 
94187788494872: add rsp, 8; mov rax, rbx; pop rbx; pop rbp; ret; 
94187788494923: ret; 
94187788494920: add dword ptr [rax - 0x39], ecx; ret; 
94187788494939: ret; 
94187788494938: pop rbp; ret; 
94187788494937: pop rbx; pop rbp; ret; 
94187788494936: fcomp dword ptr [rbx + 0x5d]; ret; 
94187788494935: mov eax, ebx; pop rbx; pop rbp; ret; 
94187788494934: mov rax, rbx; pop rbx; pop rbp; ret; 
94187788494933: or byte ptr [rax - 0x77], cl; fcomp dword ptr [rbx + 0x5d]; ret; 
94187788494931: add esp, 8; mov rax, rbx; pop rbx; pop rbp; ret; 
94187788494930: add rsp, 8; mov rax, rbx; pop rbx; pop rbp; ret; 
94187788494977: ret; 
94187788494976: pop rbp; ret; 
94187788494975: pop rbx; pop rbp; ret; 
94187788494974: fcomp dword ptr [rbx + 0x5d]; ret; 
94187788494973: mov eax, ebx; pop rbx; pop rbp; ret; 
94187788494972: mov rax, rbx; pop rbx; pop rbp; ret; 
94187788494971: or byte ptr [rax - 0x77], cl; fcomp dword ptr [rbx + 0x5d]; ret; 
94187788494969: add esp, 8; mov rax, rbx; pop rbx; pop rbp; ret; 
94187788494968: add rsp, 8; mov rax, rbx; pop rbx; pop rbp; ret; 
94187788495012: ret; 
94187788495009: add esp, 8; ret; 
94187788495008: add rsp, 8; ret; 
94187788495003: call 0x55a9cda9c970; add rsp, 8; ret; 
94187788495001: xor eax, eax; call 0x55a9cda9c970; add rsp, 8; ret; 
94187788494999: add byte ptr [rax], al; xor eax, eax; call 0x55a9cda9c970; add rsp, 8; ret; 
94187788494996: mov edi, 0xba; xor eax, eax; call 0x55a9cda9c970; add rsp, 8; ret; 
94187788494995: or byte ptr [rdi + 0xba], bh; xor eax, eax; call 0x55a9cda9c970; add rsp, 8; ret; 
94187788495024: ret; 
94187788495023: nop; ret; 
94187788495021: add byte ptr [rax], al; nop; ret; 
94187788495019: add byte ptr [rax], al; add byte ptr [rax], al; nop; ret; 
94187788495017: test byte ptr [rax], al; add byte ptr [rax], al; add byte ptr [rax], al; nop; ret; 
94187788495015: nop dword ptr [rax + rax]; nop; ret; 
94187788495014: nop dword ptr cs:[rax + rax]; nop; ret; 
94187788495013: nop word ptr cs:[rax + rax]; nop; ret; 
94187788495012: ret; 
94187788495088: ret; 
94187788495085: add byte ptr [rax - 0x77], cl; ret; 
94187788495083: add byte ptr [rax], al; add byte ptr [rax - 0x77], cl; ret; 
94187788495130: ret; 
94187788495129: pop rbp; ret; 
94187788495128: pop rbx; pop rbp; ret; 
94187788495126: xor eax, eax; pop rbx; pop rbp; ret; 
94187788495123: add esp, 8; xor eax, eax; pop rbx; pop rbp; ret; 
94187788495122: add rsp, 8; xor eax, eax; pop rbx; pop rbp; ret; 
94187788495204: ret; 
94187788495201: dec dword ptr [rax - 0x77]; ret; 
94187788495200: cld; dec dword ptr [rax - 0x77]; ret; 
94187788495199: fdivp st(4); dec dword ptr [rax - 0x77]; ret; 
94187788495198: fdivp st(4); dec dword ptr [rax - 0x77]; ret; 
94187788495196: add al, ch; fdivp st(4); dec dword ptr [rax - 0x77]; ret; 
94187788495358: ret; 
94187788495357: pop rbp; ret; 
94187788495356: pop r13; ret; 
94187788495355: pop rsp; pop r13; ret; 
94187788495354: pop r12; pop r13; ret; 
94187788495353: pop rbp; pop r12; pop r13; ret; 
94187788495352: pop rbx; pop rbp; pop r12; pop r13; ret; 
94187788495351: call 0x55aa29ee4757; pop r13; ret; 
94187788495384: ret; 
94187788495383: pop rbp; ret; 
94187788495382: pop r13; ret; 
94187788495381: pop rsp; pop r13; ret; 
94187788495380: pop r12; pop r13; ret; 
94187788495379: pop rbp; pop r12; pop r13; ret; 
94187788495378: pop rbx; pop rbp; pop r12; pop r13; ret; 
94187788495377: call 0x55aa29ee4771; pop r13; ret; 
94187788495451: ret; 
94187788495450: pop rbp; ret; 
94187788495449: pop r13; ret; 
94187788495448: pop rsp; pop r13; ret; 
94187788495447: pop r12; pop r13; ret; 
94187788495446: pop rbp; pop r12; pop r13; ret; 
94187788495445: pop rbx; pop rbp; pop r12; pop r13; ret; 
94187788495444: call 0x55aa29ee47b4; pop r13; ret; 
94187788495499: ret; 
94187788495498: pop rbp; ret; 
94187788495497: pop r13; ret; 
94187788495496: pop rsp; pop r13; ret; 
94187788495495: pop r12; pop r13; ret; 
94187788495494: pop rbp; pop r12; pop r13; ret; 
94187788495493: pop rbx; pop rbp; pop r12; pop r13; ret; 
94187788495492: call 0x55aa29ee47e4; pop r13; ret; 
94187788495644: ret; 
94187788495641: dec dword ptr [rax - 0x77]; ret; 
94187788495640: cld; dec dword ptr [rax - 0x77]; ret; 
94187788495639: loope 0x55a9cdaceb15; dec dword ptr [rax - 0x77]; ret; 
94187788495638: xchg cl, ah; cld; dec dword ptr [rax - 0x77]; ret; 
94187788495698: ret; 
94187788495695: dec dword ptr [rax - 0x77]; ret; 
94187788495694: cld; dec dword ptr [rax - 0x77]; ret; 
94187788495692: rcr bl, 1; cld; dec dword ptr [rax - 0x77]; ret; 
94187788495733: ret; 
94187788495732: pop rdi; ret; 
94187788495731: pop r15; ret; 
94187788495730: pop rsi; pop r15; ret; 
94187788495729: pop r14; pop r15; ret; 
94187788495728: pop rbp; pop r14; pop r15; ret; 
94187788495727: pop r13; pop r14; pop r15; ret; 
94187788495726: pop rsp; pop r13; pop r14; pop r15; ret; 
94187788495725: pop r12; pop r13; pop r14; pop r15; ret; 
94187788495847: ret; 
94187788495844: dec dword ptr [rax - 0x77]; ret; 
94187788495843: cld; dec dword ptr [rax - 0x77]; ret; 
94187788496315: ret; 
94187788496312: dec dword ptr [rax - 0x77]; ret; 
94187788496311: cld; dec dword ptr [rax - 0x77]; ret; 
94187788496452: ret; 
94187788496451: pop rdi; ret; 
94187788496450: pop r15; ret; 
94187788496449: pop rsi; pop r15; ret; 
94187788496448: pop r14; pop r15; ret; 
94187788496447: pop rbp; pop r14; pop r15; ret; 
94187788496446: pop r13; pop r14; pop r15; ret; 
94187788496445: pop rsp; pop r13; pop r14; pop r15; ret; 
94187788496444: pop r12; pop r13; pop r14; pop r15; ret; 
94187788496549: ret; 
94187788496546: add dword ptr [rax - 0x7d], ecx; ret; 
94187788496567: ret; 
94187788496566: pop rsp; ret; 
94187788496565: pop r12; ret; 
94187788496564: pop rbp; pop r12; ret; 
94187788496563: pop rbx; pop rbp; pop r12; ret; 
94187788496562: in eax, 0x5b; pop rbp; pop r12; ret; 
94187788496560: or byte ptr [rdi - 0x1b], dh; pop rbx; pop rbp; pop r12; ret; 
94187788496634: ret; 
94187788496721: ret; 
94187788496720: pop rsp; ret; 
94187788496719: pop r12; ret; 
94187788496718: pop rbp; pop r12; ret; 
94187788496717: add dword ptr [rbp + 0x41], ebx; pop rsp; ret; 
94187788496716: and byte ptr [rcx], al; pop rbp; pop r12; ret; 
94187788496715: and byte ptr [r9], r8b; pop rbp; pop r12; ret; 
94187788496714: mov byte ptr [rbp + 0x20], 1; pop rbp; pop r12; ret; 
94187788496713: adc dh, al; and byte ptr [r9], r8b; pop rbp; pop r12; ret; 
94187788496712: adc dh, al; and byte ptr [r9], r8b; pop rbp; pop r12; ret; 
94187788496711: mov dword ptr [rbp + 0x10], esp; mov byte ptr [rbp + 0x20], 1; pop rbp; pop r12; ret; 
94187788496710: mov qword ptr [rbp + 0x10], r12; mov byte ptr [rbp + 0x20], 1; pop rbp; pop r12; ret; 
94187788496102: jmp rax; 
94187788496099: mov eax, dword ptr [rdi + 0x10]; jmp rax; 
94187788496098: mov rax, qword ptr [rdi + 0x10]; jmp rax; 
94187788496097: pop rbx; mov rax, qword ptr [rdi + 0x10]; jmp rax; 
94187788496096: or byte ptr [rbx + 0x48], bl; mov eax, dword ptr [rdi + 0x10]; jmp rax; 
94187788496095: jnp 0x55a9cdacece9; pop rbx; mov rax, qword ptr [rdi + 0x10]; jmp rax; 
94187788496094: mov edi, dword ptr [rbx + 8]; pop rbx; mov rax, qword ptr [rdi + 0x10]; jmp rax; 
94187788496093: mov rdi, qword ptr [rbx + 8]; pop rbx; mov rax, qword ptr [rdi + 0x10]; jmp rax; 
94187788496092: adc ecx, dword ptr [rax - 0x75]; jnp 0x55a9cdacece9; pop rbx; mov rax, qword ptr [rdi + 0x10]; jmp rax; 
94187788496090: xor byte ptr [rbp + 0x13], 0x48; mov edi, dword ptr [rbx + 8]; pop rbx; mov rax, qword ptr [rdi + 0x10]; jmp rax; 
94187788496142: jmp rax; 
94187788496139: mov eax, dword ptr [rdi + 0x10]; jmp rax; 
94187788496138: mov rax, qword ptr [rdi + 0x10]; jmp rax; 
94187788496137: pop rbx; mov rax, qword ptr [rdi + 0x10]; jmp rax; 
94187788496136: or byte ptr [rbx + 0x48], bl; mov eax, dword ptr [rdi + 0x10]; jmp rax; 
94187788496135: jnp 0x55a9cdaced11; pop rbx; mov rax, qword ptr [rdi + 0x10]; jmp rax; 
94187788496134: mov edi, dword ptr [rbx + 8]; pop rbx; mov rax, qword ptr [rdi + 0x10]; jmp rax; 
94187788496133: mov rdi, qword ptr [rbx + 8]; pop rbx; mov rax, qword ptr [rdi + 0x10]; jmp rax; 
94187788496132: dec dword ptr [rax - 0x75]; jnp 0x55a9cdaced11; pop rbx; mov rax, qword ptr [rdi + 0x10]; jmp rax; 
94187788496166: jmp rax; 
94187788496163: mov eax, dword ptr [rdi + 0x10]; jmp rax; 
94187788496162: mov rax, qword ptr [rdi + 0x10]; jmp rax; 
94187788496161: pop rbx; mov rax, qword ptr [rdi + 0x10]; jmp rax; 
94187788496160: adc byte ptr [rbx + 0x48], bl; mov eax, dword ptr [rdi + 0x10]; jmp rax; 
94187788496159: jnp 0x55a9cdaced31; pop rbx; mov rax, qword ptr [rdi + 0x10]; jmp rax; 
94187788496158: mov edi, dword ptr [rbx + 0x10]; pop rbx; mov rax, qword ptr [rdi + 0x10]; jmp rax; 
94187788496157: mov rdi, qword ptr [rbx + 0x10]; pop rbx; mov rax, qword ptr [rdi + 0x10]; jmp rax; 
94187788496156: adc ecx, dword ptr [rax - 0x75]; jnp 0x55a9cdaced31; pop rbx; mov rax, qword ptr [rdi + 0x10]; jmp rax; 
94187788496154: xor byte ptr [rbp + 0x13], 0x48; mov edi, dword ptr [rbx + 0x10]; pop rbx; mov rax, qword ptr [rdi + 0x10]; jmp rax; 
94187788496206: jmp rax; 
94187788496203: mov eax, dword ptr [rdi + 0x10]; jmp rax; 
94187788496202: mov rax, qword ptr [rdi + 0x10]; jmp rax; 
94187788496201: pop rbx; mov rax, qword ptr [rdi + 0x10]; jmp rax; 
94187788496200: adc byte ptr [rbx + 0x48], bl; mov eax, dword ptr [rdi + 0x10]; jmp rax; 
94187788496199: jnp 0x55a9cdaced59; pop rbx; mov rax, qword ptr [rdi + 0x10]; jmp rax; 
94187788496198: mov edi, dword ptr [rbx + 0x10]; pop rbx; mov rax, qword ptr [rdi + 0x10]; jmp rax; 
94187788496197: mov rdi, qword ptr [rbx + 0x10]; pop rbx; mov rax, qword ptr [rdi + 0x10]; jmp rax; 
94187788496196: dec dword ptr [rax - 0x75]; jnp 0x55a9cdaced59; pop rbx; mov rax, qword ptr [rdi + 0x10]; jmp rax; 
94187788495105: call rax; 
94187788495103: mov edi, ebx; call rax; 
94187788495102: mov rdi, rbx; call rax; 
94187788495100: push 0x30; mov rdi, rbx; call rax; 
94187788495099: mov dword ptr [rdx + 0x30], ebp; mov rdi, rbx; call rax; 
94187788495098: mov qword ptr [rdx + 0x30], rbp; mov rdi, rbx; call rax; 
94187788495097: sbb byte ptr [rax - 0x77], cl; push 0x30; mov rdi, rbx; call rax; 
94187788495095: sal byte ptr [rax + rbx + 0x48], 0x89; push 0x30; mov rdi, rbx; call rax; 
94187788495092: cmp byte ptr [rax - 0x7b], cl; sal byte ptr [rax + rbx + 0x48], 0x89; push 0x30; mov rdi, rbx; call rax; 
94187788495091: cmp byte ptr [rax - 0x7b], cl; sal byte ptr [rax + rbx + 0x48], 0x89; push 0x30; mov rdi, rbx; call rax; 
94187788492882: jmp qword ptr [rsi + 0x66]; 
94187788493225: jmp qword ptr [rsi + 0xf]; 
94187788493224: cld; jmp qword ptr [rsi + 0xf]; 
94187788493223: in al, dx; cld; jmp qword ptr [rsi + 0xf]; 
94187788493222: out 0xec, al; cld; jmp qword ptr [rsi + 0xf]; 
94187788493974: jmp qword ptr [rsi + 0xf]; 
94187788494709: jmp qword ptr [rsi + 0x2e]; 
94187788494708: cld; jmp qword ptr [rsi + 0x2e]; 
94187788494707: out 0xfc, eax; jmp qword ptr [rsi + 0x2e]; 
94187788494706: sbb ah, bh; cld; jmp qword ptr [rsi + 0x2e]; 
94187788494704: int 0xe8; sbb ah, bh; cld; jmp qword ptr [rsi + 0x2e]; 
94187788494702: add bl, ch; int 0xe8; sbb ah, bh; cld; jmp qword ptr [rsi + 0x2e]; 
94187788495053: jmp qword ptr [rsi - 0x70]; 
94187788495052: std; jmp qword ptr [rsi - 0x70]; 
94187788495051: and al, 0xfd; jmp qword ptr [rsi - 0x70]; 
94187788495921: jmp qword ptr [rsi + 0xf]; 
94187788496065: jmp qword ptr [rsi + 0x66]; 
94187788493586: call qword ptr [rbx + 0x48]; 
94187788493711: ret 0xda80; 
94187788493710: xchg eax, edi; ret 0xda80; 
94187788493756: ret 0xda80; 
94187788493755: xchg eax, edi; ret 0xda80; 
94187788494097: ret 0x8948; 
94187788494193: ret 0x8948; 
94187788494289: ret 0x8948; 
94187788494385: ret 0x8948; 
94187788494584: ret 0x8948; 
94187788494655: ret 0x8948; 
94187788494653: loope 0x55a9cdace6c8; ret 0x8948; 
94187788494651: add byte ptr [rcx - 0x77], dh; ret 0x8948; 
94187788494767: ret 0x8948; 
94187788494765: out 0x89, al; ret 0x8948; 
94187788494849: ret 0x8948; 
94187788494945: ret 0x8948; 
94187788495305: ret 0xeac1; 
94187788495617: ret 0xda80; 
94187788495616: xchg eax, edi; ret 0xda80; 
94187788495998: call qword ptr [rax + 0x49058d48]; 
94187788488878: ret; 
94187788488877: pop rdi; ret; 
94187788488876: pop r15; ret; 
94187788488875: pop rsi; pop r15; ret; 
94187788488874: pop r14; pop r15; ret; 
94187788488873: pop rbp; pop r14; pop r15; ret; 
94187788488872: pop r13; pop r14; pop r15; ret; 
94187788488871: pop rsp; pop r13; pop r14; pop r15; ret; 
94187788488870: pop r12; pop r13; pop r14; pop r15; ret; 
94187788488905: ret; 
94187788488900: xor eax, 0xe8ffffff; ret; 
94187788488895: mov ebp, 0xe9fffd29; xor eax, 0xe8ffffff; ret; 
94187788488893: add al, ch; mov ebp, 0xe9fffd29; xor eax, 0xe8ffffff; ret; 
94187788488891: add byte ptr [rax], al; add al, ch; mov ebp, 0xe9fffd29; xor eax, 0xe8ffffff; ret; 
94187788489207: ret; 
94187788489204: dec dword ptr [rax - 0x77]; ret; 
94187788489201: mov ebx, dword ptr [rdi - 0x76b70001]; ret; 
94187788489612: ret; 
94187788489609: dec dword ptr [rax - 0x77]; ret; 
94187788489608: cld; dec dword ptr [rax - 0x77]; ret; 
94187788489602: xor byte ptr [rbx - 0xe917d0], cl; cld; dec dword ptr [rax - 0x77]; ret; 
94187788489728: ret; 
94187788489727: pop rdi; ret; 
94187788489726: pop r15; ret; 
94187788489725: pop rsi; pop r15; ret; 
94187788489724: pop r14; pop r15; ret; 
94187788489723: pop rbp; pop r14; pop r15; ret; 
94187788489722: pop r13; pop r14; pop r15; ret; 
94187788489721: pop rsp; pop r13; pop r14; pop r15; ret; 
94187788489720: pop r12; pop r13; pop r14; pop r15; ret; 
94187788491188: ret; 
94187788491187: pop rsp; ret; 
94187788491186: pop r12; ret; 
94187788491185: pop rbp; pop r12; ret; 
94187788491184: pop rbx; pop rbp; pop r12; ret; 
94187788491183: add byte ptr [rbx + 0x5d], bl; pop r12; ret; 
94187788491182: add byte ptr [rax], al; pop rbx; pop rbp; pop r12; ret; 
94187788491181: add byte ptr [rax], al; add byte ptr [rbx + 0x5d], bl; pop r12; ret; 
94187788491180: nop; add byte ptr [rax], al; add byte ptr [rbx + 0x5d], bl; pop r12; ret; 
94187788491178: add esp, 0x90; pop rbx; pop rbp; pop r12; ret; 
94187788491177: add rsp, 0x90; pop rbx; pop rbp; pop r12; ret; 
94187788491562: ret; 
94187788491561: pop rbp; ret; 
94187788491560: pop r13; ret; 
94187788491559: pop rsp; pop r13; ret; 
94187788491558: pop r12; pop r13; ret; 
94187788491557: pop rbp; pop r12; pop r13; ret; 
94187788491556: pop rbx; pop rbp; pop r12; pop r13; ret; 
94187788491555: or byte ptr [rbx + 0x5d], bl; pop r12; pop r13; ret; 
94187788491732: ret; 
94187788491731: pop rdi; ret; 
94187788491730: pop r15; ret; 
94187788491729: pop rsi; pop r15; ret; 
94187788491728: pop r14; pop r15; ret; 
94187788491727: pop rbp; pop r14; pop r15; ret; 
94187788491726: pop r13; pop r14; pop r15; ret; 
94187788491725: pop rsp; pop r13; pop r14; pop r15; ret; 
94187788491724: pop r12; pop r13; pop r14; pop r15; ret; 
94187788491871: ret; 
94187788491868: add byte ptr [rax - 0x77], cl; ret; 
94187788491866: add byte ptr [rax], al; add byte ptr [rax - 0x77], cl; ret; 
94187788491914: ret; 
94187788491913: pop rbp; ret; 
94187788491912: pop rbx; pop rbp; ret; 
94187788491911: fcomp dword ptr [rbx + 0x5d]; ret; 
94187788491910: mov eax, ebx; pop rbx; pop rbp; ret; 
94187788491909: mov rax, rbx; pop rbx; pop rbp; ret; 
94187788491908: or byte ptr [rax - 0x77], cl; fcomp dword ptr [rbx + 0x5d]; ret; 
94187788491906: add esp, 8; mov rax, rbx; pop rbx; pop rbp; ret; 
94187788491905: add rsp, 8; mov rax, rbx; pop rbx; pop rbp; ret; 
94187788491904: cmovs eax, dword ptr [rbx - 0x76b7f73c]; fcomp dword ptr [rbx + 0x5d]; ret; 
94187788491931: ret; 
94187788491930: pop rbp; ret; 
94187788491929: pop rbx; pop rbp; ret; 
94187788491928: fcomp dword ptr [rbx + 0x5d]; ret; 
94187788491927: mov eax, ebx; pop rbx; pop rbp; ret; 
94187788491926: mov rax, rbx; pop rbx; pop rbp; ret; 
94187788491925: or byte ptr [rax - 0x77], cl; fcomp dword ptr [rbx + 0x5d]; ret; 
94187788491923: add esp, 8; mov rax, rbx; pop rbx; pop rbp; ret; 
94187788491922: add rsp, 8; mov rax, rbx; pop rbx; pop rbp; ret; 
94187788492026: ret; 
94187788492025: pop rdi; ret; 
94187788492024: pop r15; ret; 
94187788492023: pop rsi; pop r15; ret; 
94187788492022: pop r14; pop r15; ret; 
94187788492021: pop rbp; pop r14; pop r15; ret; 
94187788492020: pop r13; pop r14; pop r15; ret; 
94187788492019: pop rsp; pop r13; pop r14; pop r15; ret; 
94187788492018: pop r12; pop r13; pop r14; pop r15; ret; 
94187788492545: ret; 
94187788492542: add esp, 8; ret; 
94187788492541: add rsp, 8; ret; 
94187788492538: mov dword ptr [rax + 0x10], edx; add rsp, 8; ret; 
94187788492537: mov qword ptr [rax + 0x10], rdx; add rsp, 8; ret; 
94187788492535: add byte ptr [rax], al; mov qword ptr [rax + 0x10], rdx; add rsp, 8; ret; 
94187788492531: lea edx, dword ptr [rax + 0x80]; mov qword ptr [rax + 0x10], rdx; add rsp, 8; ret; 
94187788492530: lea rdx, qword ptr [rax + 0x80]; mov qword ptr [rax + 0x10], rdx; add rsp, 8; ret; 
94187788492718: ret; 
94187788492717: pop rsp; ret; 
94187788492716: pop r12; ret; 
94187788492715: pop rbp; pop r12; ret; 
94187788492714: pop rbx; pop rbp; pop r12; ret; 
94187788492712: mov eax, esp; pop rbx; pop rbp; pop r12; ret; 
94187788492711: mov rax, r12; pop rbx; pop rbp; pop r12; ret; 
94187788492710: or dword ptr [rcx + rcx*4 - 0x20], ecx; pop rbx; pop rbp; pop r12; ret; 
94187788492756: ret; 
94187788492755: pop rsp; ret; 
94187788492754: pop r12; ret; 
94187788492753: pop rbp; pop r12; ret; 
94187788492752: pop rbx; pop rbp; pop r12; ret; 
94187788492750: mov eax, esp; pop rbx; pop rbp; pop r12; ret; 
94187788492749: mov rax, r12; pop rbx; pop rbp; pop r12; ret; 
94187788492748: dec dword ptr [rcx + rcx*4 - 0x20]; pop rbx; pop rbp; pop r12; ret; 
94187788490121: jmp qword ptr [rsi + 0xf]; 
94187788490116: push -0x2a917; jmp qword ptr [rsi + 0xf]; 
94187788490737: jmp qword ptr [rsi + 0x66]; 
94187788490736: cld; jmp qword ptr [rsi + 0x66]; 
94187788490735: cld; jmp qword ptr [rsi + 0x66]; 
94187788491105: jmp qword ptr [rsi + 0xf]; 
94187788491142: jmp qword ptr [rsi + 0xf]; 
94187788491141: std; jmp qword ptr [rsi + 0xf]; 
94187788491140: and ch, bh; jmp qword ptr [rsi + 0xf]; 
94187788491139: stc; and ch, bh; jmp qword ptr [rsi + 0xf]; 
94187788491137: shr al, 0xf9; and ch, bh; jmp qword ptr [rsi + 0xf]; 
94187788491135: add byte ptr [rcx], dh; shr al, 0xf9; and ch, bh; jmp qword ptr [rsi + 0xf]; 
94187788491133: add byte ptr [rax], al; add byte ptr [rcx], dh; shr al, 0xf9; and ch, bh; jmp qword ptr [rsi + 0xf]; 
94187788491281: jmp qword ptr [rsi + 0xf]; 
94187788491361: jmp qword ptr [rsi + 0x66]; 
94187788491360: cld; jmp qword ptr [rsi + 0x66]; 
94187788491359: hlt; cld; jmp qword ptr [rsi + 0x66]; 
94187788491358: hlt; cld; jmp qword ptr [rsi + 0x66]; 
94187788491593: jmp qword ptr [rsi + 0xf]; 
94187788491007: call qword ptr [rbp + 0x18]; 
94187788491004: mov edi, dword ptr [rbp + 0x10]; call qword ptr [rbp + 0x18]; 
94187788491003: mov rdi, qword ptr [rbp + 0x10]; call qword ptr [rbp + 0x18]; 
94187788491001: add byte ptr [rax], al; mov rdi, qword ptr [rbp + 0x10]; call qword ptr [rbp + 0x18]; 
94187788490999: sbb eax, 0x48000001; mov edi, dword ptr [rbp + 0x10]; call qword ptr [rbp + 0x18]; 
94187788490998: test dword ptr [rip + 0x48000001], ebx; mov edi, dword ptr [rbp + 0x10]; call qword ptr [rbp + 0x18]; 
94187788490996: adc byte ptr [rdi], cl; test dword ptr [rip + 0x48000001], ebx; mov edi, dword ptr [rbp + 0x10]; call qword ptr [rbp + 0x18]; 
94187788491098: call qword ptr [rax + 0x30]; 
94187788491093: add eax, 0xdfac6; call qword ptr [rax + 0x30]; 
94187788491092: lea eax, dword ptr [rip + 0xdfac6]; call qword ptr [rax + 0x30]; 
94187788491091: lea rax, qword ptr [rip + 0xdfac6]; call qword ptr [rax + 0x30]; 
94187788491090: add byte ptr [rax - 0x73], cl; add eax, 0xdfac6; call qword ptr [rax + 0x30]; 
94187788491089: add byte ptr [rax], al; lea rax, qword ptr [rip + 0xdfac6]; call qword ptr [rax + 0x30]; 
94187788491088: add byte ptr [rax], al; add byte ptr [rax - 0x73], cl; add eax, 0xdfac6; call qword ptr [rax + 0x30]; 
94187788491087: add byte ptr [rax], al; add byte ptr [rax], al; lea rax, qword ptr [rip + 0xdfac6]; call qword ptr [rax + 0x30]; 
94187788491086: add byte ptr [rax], al; add byte ptr [rax], al; add byte ptr [rax - 0x73], cl; add eax, 0xdfac6; call qword ptr [rax + 0x30]; 
94187788491085: or eax, 0; add byte ptr [rax - 0x73], cl; add eax, 0xdfac6; call qword ptr [rax + 0x30]; 
94187788491084: cmc; or eax, 0; add byte ptr [rax - 0x73], cl; add eax, 0xdfac6; call qword ptr [rax + 0x30]; 
94187788491083: int 0xf5; or eax, 0; add byte ptr [rax - 0x73], cl; add eax, 0xdfac6; call qword ptr [rax + 0x30]; 
94187788491082: add eax, 0xdf5cd; add byte ptr [rax], al; add byte ptr [rax], al; lea rax, qword ptr [rip + 0xdfac6]; call qword ptr [rax + 0x30]; 
94187788491081: mov dword ptr [rip + 0xdf5cd], 0; lea rax, qword ptr [rip + 0xdfac6]; call qword ptr [rax + 0x30]; 
94187788491080: mov qword ptr [rip + 0xdf5cd], 0; lea rax, qword ptr [rip + 0xdfac6]; call qword ptr [rax + 0x30]; 
94187788491077: mfence; mov qword ptr [rip + 0xdf5cd], 0; lea rax, qword ptr [rip + 0xdfac6]; call qword ptr [rax + 0x30]; 
94187788491075: or eax, 0xf0ae0f00; mov qword ptr [rip + 0xdf5cd], 0; lea rax, qword ptr [rip + 0xdfac6]; call qword ptr [rax + 0x30]; 
94187788491074: cmc; or eax, 0xf0ae0f00; mov qword ptr [rip + 0xdf5cd], 0; lea rax, qword ptr [rip + 0xdfac6]; call qword ptr [rax + 0x30]; 
94187788491073: sal ebp, cl; or eax, 0xf0ae0f00; mov qword ptr [rip + 0xdf5cd], 0; lea rax, qword ptr [rip + 0xdfac6]; call qword ptr [rax + 0x30]; 
94187788491072: sub eax, 0xdf5d3; mfence; mov qword ptr [rip + 0xdf5cd], 0; lea rax, qword ptr [rip + 0xdfac6]; call qword ptr [rax + 0x30]; 
94187788491071: mov dword ptr [rip + 0xdf5d3], ebp; mfence; mov qword ptr [rip + 0xdf5cd], 0; lea rax, qword ptr [rip + 0xdfac6]; call qword ptr [rax + 0x30]; 
94187788491070: mov qword ptr [rip + 0xdf5d3], rbp; mfence; mov qword ptr [rip + 0xdf5cd], 0; lea rax, qword ptr [rip + 0xdfac6]; call qword ptr [rax + 0x30]; 
94187788491323: call qword ptr [rbp + 0x18]; 
94187788491320: mov edi, dword ptr [rbp + 0x10]; call qword ptr [rbp + 0x18]; 
94187788491319: mov rdi, qword ptr [rbp + 0x10]; call qword ptr [rbp + 0x18]; 
94187788491318: jo 0x55a9cdacda80; mov edi, dword ptr [rbp + 0x10]; call qword ptr [rbp + 0x18]; 
94187788491316: mov esi, dword ptr [rbx + 0x70]; mov rdi, qword ptr [rbp + 0x10]; call qword ptr [rbp + 0x18]; 
94187788491315: mov rsi, qword ptr [rbx + 0x70]; mov rdi, qword ptr [rbp + 0x10]; call qword ptr [rbp + 0x18]; 
94187788491310: call 0x55a9cda9fa80; mov rsi, qword ptr [rbx + 0x70]; mov rdi, qword ptr [rbp + 0x10]; call qword ptr [rbp + 0x18]; 
94187788491308: or byte ptr [rax], al; call 0x55a9cda9fa80; mov rsi, qword ptr [rbx + 0x70]; mov rdi, qword ptr [rbp + 0x10]; call qword ptr [rbp + 0x18]; 
94187788491508: call qword ptr [rbx + 0x30]; 
94187788491505: mov byte ptr [rbx + 0x28], al; call qword ptr [rbx + 0x30]; 
94187788491502: or eax, 0xffffff80; mov byte ptr [rbx + 0x28], al; call qword ptr [rbx + 0x30]; 
94187788491499: and eax, 0x77; or eax, 0xffffff80; mov byte ptr [rbx + 0x28], al; call qword ptr [rbx + 0x30]; 
94187788491497: jnp 0x55a9cdacdb0b; and eax, 0x77; or eax, 0xffffff80; mov byte ptr [rbx + 0x28], al; call qword ptr [rbx + 0x30]; 
94187788491496: lea edi, dword ptr [rbx + 0x20]; and eax, 0x77; or eax, 0xffffff80; mov byte ptr [rbx + 0x28], al; call qword ptr [rbx + 0x30]; 
94187788491495: lea rdi, qword ptr [rbx + 0x20]; and eax, 0x77; or eax, 0xffffff80; mov byte ptr [rbx + 0x28], al; call qword ptr [rbx + 0x30]; 
94187788489136: ret 0xfc0; 
94187788491123: ret 0x8d48; 
94187788492416: ret 0x8948; 
94187788489864: call qword ptr [rax + 0xc0]; 
94187788489862: mov esi, eax; call qword ptr [rax + 0xc0]; 
94187788489861: mov rsi, rax; call qword ptr [rax + 0xc0]; 
94187788489858: mov eax, dword ptr [rsi + 0x38]; mov rsi, rax; call qword ptr [rax + 0xc0]; 
94187788489857: mov rax, qword ptr [rsi + 0x38]; mov rsi, rax; call qword ptr [rax + 0xc0]; 
94187788489855: or byte ptr [rdi + 0x48], bh; mov eax, dword ptr [rsi + 0x38]; mov rsi, rax; call qword ptr [rax + 0xc0]; 
94187788489853: and byte ptr [rcx + 8], 0x7f; mov rax, qword ptr [rsi + 0x38]; mov rsi, rax; call qword ptr [rax + 0xc0]; 
94187788489852: or byte ptr [rax + 0x487f0861], al; mov eax, dword ptr [rsi + 0x38]; mov rsi, rax; call qword ptr [rax + 0xc0]; 
94187788489851: or byte ptr [rax + 0x487f0861], al; mov eax, dword ptr [rsi + 0x38]; mov rsi, rax; call qword ptr [rax + 0xc0]; 
94187788489850: mov dword ptr [rdx + 8], eax; and byte ptr [rcx + 8], 0x7f; mov rax, qword ptr [rsi + 0x38]; mov rsi, rax; call qword ptr [rax + 0xc0]; 
94187788489849: adc byte ptr [rcx + 0x61800842], cl; or byte ptr [rdi + 0x48], bh; mov eax, dword ptr [rsi + 0x38]; mov rsi, rax; call qword ptr [rax + 0xc0]; 
94187788490078: call qword ptr [rax - 0x157a49f1]; 
94187788484777: ret; 
94187788484776: pop rbp; ret; 
94187788484775: pop r13; ret; 
94187788484774: pop rsp; pop r13; ret; 
94187788484773: pop r12; pop r13; ret; 
94187788484772: pop rbp; pop r12; pop r13; ret; 
94187788484771: pop rbx; pop rbp; pop r12; pop r13; ret; 
94187788484770: sub byte ptr [rbx + 0x5d], bl; pop r12; pop r13; ret; 
94187788484994: ret; 
94187788484993: pop rsp; ret; 
94187788484992: pop r12; ret; 
94187788484991: pop rbp; pop r12; ret; 
94187788484990: pop rbx; pop rbp; pop r12; ret; 
94187788484989: adc byte ptr [rbx + 0x5d], bl; pop r12; ret; 
94187788484987: add esp, 0x10; pop rbx; pop rbp; pop r12; ret; 
94187788484986: add rsp, 0x10; pop rbx; pop rbp; pop r12; ret; 
94187788485286: ret; 
94187788485285: pop rdi; ret; 
94187788485284: pop r15; ret; 
94187788485283: pop rsi; pop r15; ret; 
94187788485282: pop r14; pop r15; ret; 
94187788485281: pop rbp; pop r14; pop r15; ret; 
94187788485280: pop r13; pop r14; pop r15; ret; 
94187788485279: pop rsp; pop r13; pop r14; pop r15; ret; 
94187788485278: pop r12; pop r13; pop r14; pop r15; ret; 
94187788485373: ret; 
94187788485372: pop rdi; ret; 
94187788485371: pop r15; ret; 
94187788485370: pop rsi; pop r15; ret; 
94187788485369: pop r14; pop r15; ret; 
94187788485368: pop rbp; pop r14; pop r15; ret; 
94187788485367: pop r13; pop r14; pop r15; ret; 
94187788485366: pop rsp; pop r13; pop r14; pop r15; ret; 
94187788485365: pop r12; pop r13; pop r14; pop r15; ret; 
94187788485879: ret; 
94187788485876: sub ecx, dword ptr [rax - 0x7d]; ret; 
94187788486329: ret; 
94187788486326: add esp, 8; ret; 
94187788486325: add rsp, 8; ret; 
94187788486322: mov dword ptr [rax + 8], edx; add rsp, 8; ret; 
94187788486321: mov qword ptr [rax + 8], rdx; add rsp, 8; ret; 
94187788486319: mov dword ptr [rax], edx; mov qword ptr [rax + 8], rdx; add rsp, 8; ret; 
94187788486318: mov qword ptr [rax], rdx; mov qword ptr [rax + 8], rdx; add rsp, 8; ret; 
94187788486312: mov edx, 0xffffffff; mov qword ptr [rax], rdx; mov qword ptr [rax + 8], rdx; add rsp, 8; ret; 
94187788486311: mov rdx, -1; mov qword ptr [rax], rdx; mov qword ptr [rax + 8], rdx; add rsp, 8; ret; 
94187788486468: ret; 
94187788486467: pop rsp; ret; 
94187788486466: pop r12; ret; 
94187788486465: pop rbp; pop r12; ret; 
94187788486464: pop rbx; pop rbp; pop r12; ret; 
94187788486463: and byte ptr [rbx + 0x5d], bl; pop r12; ret; 
94187788486461: add esp, 0x20; pop rbx; pop rbp; pop r12; ret; 
94187788486460: add rsp, 0x20; pop rbx; pop rbp; pop r12; ret; 
94187788486459: add rsp, 0x20; pop rbx; pop rbp; pop r12; ret; 
94187788486716: ret; 
94187788486715: pop rsp; ret; 
94187788486714: pop r12; ret; 
94187788486713: pop rbp; pop r12; ret; 
94187788486712: pop rbx; pop rbp; pop r12; ret; 
94187788486711: and byte ptr [rbx + 0x5d], bl; pop r12; ret; 
94187788486709: add esp, 0x20; pop rbx; pop rbp; pop r12; ret; 
94187788486708: add rsp, 0x20; pop rbx; pop rbp; pop r12; ret; 
94187788486707: add rsp, 0x20; pop rbx; pop rbp; pop r12; ret; 
94187788486925: ret; 
94187788486990: ret; 
94187788486989: pop rbp; ret; 
94187788486988: pop r13; ret; 
94187788486987: pop rsp; pop r13; ret; 
94187788486986: pop r12; pop r13; ret; 
94187788486985: pop rbp; pop r12; pop r13; ret; 
94187788486984: pop rbx; pop rbp; pop r12; pop r13; ret; 
94187788486983: sub byte ptr [rbx + 0x5d], bl; pop r12; pop r13; ret; 
94187788487086: ret; 
94187788487083: and byte ptr [rax - 0x39], cl; ret; 
94187788487079: dec dword ptr [rbx + rcx*4 + 0x6b]; and byte ptr [rax - 0x39], cl; ret; 
94187788487467: ret; 
94187788487466: pop rbp; ret; 
94187788487465: pop r13; ret; 
94187788487464: pop rsp; pop r13; ret; 
94187788487463: pop r12; pop r13; ret; 
94187788487462: pop rbp; pop r12; pop r13; ret; 
94187788487461: pop rbx; pop rbp; pop r12; pop r13; ret; 
94187788487460: sub byte ptr [rbx + 0x5d], bl; pop r12; pop r13; ret; 
94187788488581: ret; 
94187788488580: pop rbp; ret; 
94187788488579: pop rbx; pop rbp; ret; 
94187788488578: fcomp dword ptr [rbx + 0x5d]; ret; 
94187788488577: mov eax, ebx; pop rbx; pop rbp; ret; 
94187788488576: mov rax, rbx; pop rbx; pop rbp; ret; 
94187788488575: or byte ptr [rax - 0x77], cl; fcomp dword ptr [rbx + 0x5d]; ret; 
94187788488573: add esp, 8; mov rax, rbx; pop rbx; pop rbp; ret; 
94187788488572: add rsp, 8; mov rax, rbx; pop rbx; pop rbp; ret; 
94187788488601: ret; 
94187788488598: add byte ptr [rax - 0x39], cl; ret; 
94187788484964: call qword ptr [rbx]; 
94187788484962: mov edi, ebx; call qword ptr [rbx]; 
94187788484961: mov rdi, rbx; call qword ptr [rbx]; 
94187788484958: mov dword ptr [rdi + 0x18], eax; mov rdi, rbx; call qword ptr [rbx]; 
94187788484957: mov qword ptr [rdi + 0x18], rax; mov rdi, rbx; call qword ptr [rbx]; 
94187788484954: sal byte ptr [rbx + rbp + 0x48], 1; mov dword ptr [rdi + 0x18], eax; mov rdi, rbx; call qword ptr [rbx]; 
94187788484951: add dword ptr [rax + 0x39], ecx; sal byte ptr [rbx + rbp + 0x48], 1; mov dword ptr [rdi + 0x18], eax; mov rdi, rbx; call qword ptr [rbx]; 
94187788484905: jmp qword ptr [rsi + 0xf]; 
94187788484904: std; jmp qword ptr [rsi + 0xf]; 
94187788486564: jmp qword ptr [rsi + 0x66]; 
94187788486563: std; jmp qword ptr [rsi + 0x66]; 
94187788488261: jmp qword ptr [rsi + 0x2e]; 
94187788488516: jmp qword ptr [rsi + 0x66]; 
94187788484918: call qword ptr [rbp + 0x53]; 
94187788486084: call qword ptr [rax + 0x10]; 
94187788484671: ret 0; 
94187788484669: fcompi st(7); ret 0; 
94187788484818: ret 0x867; 
94187788485382: ret 0xf66; 
94187788485750: ret 0xeac0; 
94187788485744: test byte ptr [rbx - 0x77000000], bl; ret 0xeac0; 
94187788485742: dec dword ptr [rdi]; test byte ptr [rbx - 0x77000000], bl; ret 0xeac0; 
94187788485738: add byte ptr [rbx + 0xfff187d], al; test byte ptr [rbx - 0x77000000], bl; ret 0xeac0; 
94187788485736: add byte ptr [rax], al; add byte ptr [rbx + 0xfff187d], al; test byte ptr [rbx - 0x77000000], bl; ret 0xeac0; 
94187788485730: or byte ptr [rax - 0x757bf0f8], ch; add byte ptr [rax], al; add byte ptr [rbx + 0xfff187d], al; test byte ptr [rbx - 0x77000000], bl; ret 0xeac0; 
94187788485729: or byte ptr [rax - 0x757bf0f8], bpl; add byte ptr [rax], al; add byte ptr [rbx + 0xfff187d], al; test byte ptr [rbx - 0x77000000], bl; ret 0xeac0; 
94187788486313: ret 0xffff; 
94187788486308: sal byte ptr [rsi + rcx + 0x48], 0xc7; ret 0xffff; 
94187788486305: dec dword ptr [rax - 0x7b]; sal byte ptr [rsi + rcx + 0x48], 0xc7; ret 0xffff; 
94187788486304: std; dec dword ptr [rax - 0x7b]; sal byte ptr [rsi + rcx + 0x48], 0xc7; ret 0xffff; 
94187788486303: std; dec dword ptr [rax - 0x7b]; sal byte ptr [rsi + rcx + 0x48], 0xc7; ret 0xffff; 
94187788486302: outsb dx, byte ptr [rsi]; std; dec dword ptr [rax - 0x7b]; sal byte ptr [rsi + rcx + 0x48], 0xc7; ret 0xffff; 
94187788486846: ret 0x7501; 
94187788487559: ret 0x8944; 
94187788486142: call qword ptr [rax + 0xfc08548]; 
94187788496958: ret; 
94187788496957: pop rdi; ret; 
94187788496956: pop r15; ret; 
94187788496955: pop rsi; pop r15; ret; 
94187788496954: pop r14; pop r15; ret; 
94187788496953: pop rbp; pop r14; pop r15; ret; 
94187788496952: pop r13; pop r14; pop r15; ret; 
94187788496951: pop rsp; pop r13; pop r14; pop r15; ret; 
94187788496950: pop r12; pop r13; pop r14; pop r15; ret; 
94187788497065: ret; 
94187788497064: pop rdi; ret; 
94187788497063: pop r15; ret; 
94187788497062: pop rsi; pop r15; ret; 
94187788497061: pop r14; pop r15; ret; 
94187788497060: pop rbp; pop r14; pop r15; ret; 
94187788497059: pop r13; pop r14; pop r15; ret; 
94187788497058: pop rsp; pop r13; pop r14; pop r15; ret; 
94187788497057: pop r12; pop r13; pop r14; pop r15; ret; 
94187788497264: ret; 
94187788497261: dec dword ptr [rcx - 0x77]; ret; 
94187788497260: cld; dec dword ptr [rcx - 0x77]; ret; 
94187788497259: loope 0x55a9cdacf169; dec dword ptr [rcx - 0x77]; ret; 
94187788497258: loope 0x55a9cdacf169; dec dword ptr [rcx - 0x77]; ret; 
94187788497272: ret; 
94187788497270: xor esi, esi; ret; 
94187788497264: ret; 
94187788497296: ret; 
94187788497294: add esi, esi; ret; 
94187788497292: and al, 0x88; add esi, esi; ret; 
94187788497442: ret; 
94187788497439: add byte ptr [rcx - 0x7d], cl; ret; 
94187788497570: ret; 
94187788497902: ret; 
94187788497945: ret; 
94187788497944: pop rsp; ret; 
94187788497943: pop r12; ret; 
94187788497942: pop rbp; pop r12; ret; 
94187788497941: pop rbx; pop rbp; pop r12; ret; 
94187788497940: or ebx, dword ptr [rbx + 0x5d]; pop r12; ret; 
94187788497938: and byte ptr [rbx + rcx + 0x5b], dh; pop rbp; pop r12; ret; 
94187788497937: push rcx; and byte ptr [rbx + rcx + 0x5b], dh; pop rbp; pop r12; ret; 
94187788497936: push rcx; and byte ptr [rbx + rcx + 0x5b], dh; pop rbp; pop r12; ret; 
94187788498057: ret; 
94187788498088: ret; 
94187788498087: pop rbp; ret; 
94187788498086: pop r13; ret; 
94187788498085: pop rsp; pop r13; ret; 
94187788498084: pop r12; pop r13; ret; 
94187788498083: pop rbp; pop r12; pop r13; ret; 
94187788498082: pop rbx; pop rbp; pop r12; pop r13; ret; 
94187788498081: fcomp dword ptr [rbx + 0x5d]; pop r12; pop r13; ret; 
94187788498211: ret; 
94187788498210: pop rbp; ret; 
94187788498209: pop r13; ret; 
94187788498208: pop rsp; pop r13; ret; 
94187788498207: pop r12; pop r13; ret; 
94187788498206: pop rbp; pop r12; pop r13; ret; 
94187788498205: pop rbx; pop rbp; pop r12; pop r13; ret; 
94187788498204: fcomp dword ptr [rbx + 0x5d]; pop r12; pop r13; ret; 
94187788498230: ret; 
94187788498229: pop rbp; ret; 
94187788498228: pop r13; ret; 
94187788498227: pop rsp; pop r13; ret; 
94187788498226: pop r12; pop r13; ret; 
94187788498225: pop rbp; pop r12; pop r13; ret; 
94187788498224: pop rbx; pop rbp; pop r12; pop r13; ret; 
94187788498223: fcomp dword ptr [rbx + 0x5d]; pop r12; pop r13; ret; 
94187788498492: ret; 
94187788498491: pop rbp; ret; 
94187788498490: pop r13; ret; 
94187788498489: pop rsp; pop r13; ret; 
94187788498488: pop r12; pop r13; ret; 
94187788498487: pop rbp; pop r12; pop r13; ret; 
94187788498486: pop rbx; pop rbp; pop r12; pop r13; ret; 
94187788498485: add byte ptr [rbx + 0x5d], bl; pop r12; pop r13; ret; 
94187788498979: ret; 
94187788498978: pop rdi; ret; 
94187788498977: pop r15; ret; 
94187788498976: pop rsi; pop r15; ret; 
94187788498975: pop r14; pop r15; ret; 
94187788498974: pop rbp; pop r14; pop r15; ret; 
94187788498973: pop r13; pop r14; pop r15; ret; 
94187788498972: pop rsp; pop r13; pop r14; pop r15; ret; 
94187788498971: pop r12; pop r13; pop r14; pop r15; ret; 
94187788499281: ret; 
94187788499516: ret; 
94187788499515: pop rdi; ret; 
94187788499514: pop r15; ret; 
94187788499513: pop rsi; pop r15; ret; 
94187788499512: pop r14; pop r15; ret; 
94187788499511: pop rbp; pop r14; pop r15; ret; 
94187788499510: pop r13; pop r14; pop r15; ret; 
94187788499509: pop rsp; pop r13; pop r14; pop r15; ret; 
94187788499508: pop r12; pop r13; pop r14; pop r15; ret; 
94187788499615: ret; 
94187788499666: ret; 
94187788499664: xor eax, eax; ret; 
94187788499659: call 0x55a9cda9ce90; xor eax, eax; ret; 
94187788500247: ret; 
94187788500268: ret; 
94187788500267: pop rdi; ret; 
94187788500266: pop r15; ret; 
94187788500265: pop rsi; pop r15; ret; 
94187788500264: pop r14; pop r15; ret; 
94187788500263: pop rbp; pop r14; pop r15; ret; 
94187788500262: pop r13; pop r14; pop r15; ret; 
94187788500261: pop rsp; pop r13; pop r14; pop r15; ret; 
94187788500260: pop r12; pop r13; pop r14; pop r15; ret; 
94187788500616: ret; 
94187788500613: add dword ptr [rax - 0x7d], ecx; ret; 
94187788500666: ret; 
94187788500665: pop rdi; ret; 
94187788500664: pop r15; ret; 
94187788500663: pop rsi; pop r15; ret; 
94187788500662: pop r14; pop r15; ret; 
94187788500661: pop rbp; pop r14; pop r15; ret; 
94187788500660: pop r13; pop r14; pop r15; ret; 
94187788500659: pop rsp; pop r13; pop r14; pop r15; ret; 
94187788500658: pop r12; pop r13; pop r14; pop r15; ret; 
94187788500695: ret; 
94187788500693: xor eax, eax; ret; 
94187788500690: sal byte ptr [rbp + 0xb], cl; xor eax, eax; ret; 
94187788500687: add byte ptr [rax - 0x7b], cl; sal byte ptr [rbp + 0xb], cl; xor eax, eax; ret; 
94187788500685: add byte ptr [rax], al; add byte ptr [rax - 0x7b], cl; sal byte ptr [rbp + 0xb], cl; xor eax, eax; ret; 
94187788500730: ret; 
94187788500727: add esp, 8; ret; 
94187788500726: add rsp, 8; ret; 
94187788500724: xor eax, eax; add rsp, 8; ret; 
94187788500719: call 0x55a9cda9c660; xor eax, eax; add rsp, 8; ret; 
94187788500717: mov edi, dword ptr [rax]; call 0x55a9cda9c660; xor eax, eax; add rsp, 8; ret; 
94187788500716: mov rdi, qword ptr [rax]; call 0x55a9cda9c660; xor eax, eax; add rsp, 8; ret; 
94187788500743: ret; 
94187788500741: xor eax, eax; ret; 
94187788500738: sal byte ptr [rbp + 0xb], cl; xor eax, eax; ret; 
94187788500735: add byte ptr [rax - 0x7b], cl; sal byte ptr [rbp + 0xb], cl; xor eax, eax; ret; 
94187788500730: ret; 
94187788500788: ret; 
94187788500794: ret; 
94187788500793: pop rbx; ret; 
94187788500791: xor eax, eax; pop rbx; ret; 
94187788500788: ret; 
94187788500840: ret; 
94187788500837: mov eax, dword ptr [rax + 0x30]; ret; 
94187788500836: mov rax, qword ptr [rax + 0x30]; ret; 
94187788500835: pop rbx; mov rax, qword ptr [rax + 0x30]; ret; 
94187788500834: add byte ptr [rbx + 0x48], bl; mov eax, dword ptr [rax + 0x30]; ret; 
94187788500833: add byte ptr [rax], al; pop rbx; mov rax, qword ptr [rax + 0x30]; ret; 
94187788500832: add byte ptr [rax], al; add byte ptr [rbx + 0x48], bl; mov eax, dword ptr [rax + 0x30]; ret; 
94187788500831: movabs al, byte ptr [0x30408b485b000000]; ret; 
94187788500830: and dword ptr [rax + 0x5b000000], 0x48; mov eax, dword ptr [rax + 0x30]; ret; 
94187788500829: mov eax, dword ptr [rbx + 0xa0]; pop rbx; mov rax, qword ptr [rax + 0x30]; ret; 
94187788500828: mov rax, qword ptr [rbx + 0xa0]; pop rbx; mov rax, qword ptr [rax + 0x30]; ret; 
94187788500827: dec dword ptr [rax - 0x75]; and dword ptr [rax + 0x5b000000], 0x48; mov eax, dword ptr [rax + 0x30]; ret; 
94187788500826: cld; dec dword ptr [rax - 0x75]; and dword ptr [rax + 0x5b000000], 0x48; mov eax, dword ptr [rax + 0x30]; ret; 
94187788500823: call 0x55a9cda9c6a0; mov rax, qword ptr [rbx + 0xa0]; pop rbx; mov rax, qword ptr [rax + 0x30]; ret; 
94187788500880: ret; 
94187788500959: ret; 
94187788500958: pop rbx; ret; 
94187788500956: add byte ptr [rax], al; pop rbx; ret; 
94187788500954: add byte ptr [rax], al; add byte ptr [rax], al; pop rbx; ret; 
94187788500951: mov dword ptr [rax + 0x20], 0; pop rbx; ret; 
94187788500950: mov qword ptr [rax + 0x20], 0; pop rbx; ret; 
94187788500947: mov eax, dword ptr [rax + 0x18]; mov qword ptr [rax + 0x20], 0; pop rbx; ret; 
94187788500946: mov rax, qword ptr [rax + 0x18]; mov qword ptr [rax + 0x20], 0; pop rbx; ret; 
94187788500944: add byte ptr [rax], al; mov rax, qword ptr [rax + 0x18]; mov qword ptr [rax + 0x20], 0; pop rbx; ret; 
94187788500942: movabs al, byte ptr [0x4818408b48000000]; mov dword ptr [rax + 0x20], 0; pop rbx; ret; 
94187788500940: mov eax, dword ptr [rbx + 0xa0]; mov rax, qword ptr [rax + 0x18]; mov qword ptr [rax + 0x20], 0; pop rbx; ret; 
94187788500939: mov rax, qword ptr [rbx + 0xa0]; mov rax, qword ptr [rax + 0x18]; mov qword ptr [rax + 0x20], 0; pop rbx; ret; 
94187788500960: ret; 
94187788500959: ret; 
94187788497830: jmp qword ptr [rsi + 0xf]; 
94187788497862: jmp qword ptr [rsi + 0xf]; 
94187788498629: jmp qword ptr [rsi + 0x2e]; 
94187788498628: cld; jmp qword ptr [rsi + 0x2e]; 
94187788498627: xlatb; cld; jmp qword ptr [rsi + 0x2e]; 
94187788499193: jmp qword ptr [rsi + 0xf]; 
94187788499192: cld; jmp qword ptr [rsi + 0xf]; 
94187788500450: jmp qword ptr [rsi + 0x66]; 
94187788500449: cld; jmp qword ptr [rsi + 0x66]; 
94187788500448: sar ah, 1; jmp qword ptr [rsi + 0x66]; 
94187788500447: lodsd eax, dword ptr [rsi]; sar ah, 1; jmp qword ptr [rsi + 0x66]; 
94187788498365: ret 0x4801; 
94187788498362: add dword ptr [rax - 0x7d], ecx; ret 0x4801; 
94187788498361: add dword ptr [rax - 0x7d], ecx; ret 0x4801; 
94187788498357: or eax, 0x42880774; add dword ptr [rax - 0x7d], ecx; ret 0x4801; 
94187788498355: or edi, dword ptr [rcx + 0x42880774]; add dword ptr [rax - 0x7d], ecx; ret 0x4801; 
94187788498353: or dh, byte ptr [rbx + rcx + 0x3c]; or eax, 0x42880774; add dword ptr [rax - 0x7d], ecx; ret 0x4801; 
94187788498722: ret 0xf01; 
94187788498730: ret 0xc141; 
94187788498727: inc dword ptr [rbp - 0x77]; ret 0xc141; 
94187788498726: inc dword ptr [rbp - 0x77]; ret 0xc141; 
94187788498725: mov dh, 0x42; inc dword ptr [rbp - 0x77]; ret 0xc141; 
94187788498723: add dword ptr [rdi], ecx; mov dh, 0x42; inc dword ptr [rbp - 0x77]; ret 0xc141; 
94187788498722: ret 0xf01; 
94187788498737: ret 0xe8c0; 
94187788498730: ret 0xc141; 
94187788499322: ret 0xf01; 
94187788499319: add byte ptr [rax - 0x7d], cl; ret 0xf01; 
94187788499318: add byte ptr [rax - 0x7d], cl; ret 0xf01; 
94187788452638: ret; 
94187788452637: pop rdi; ret; 
94187788452636: pop r15; ret; 
94187788452635: pop rsi; pop r15; ret; 
94187788452634: pop r14; pop r15; ret; 
94187788452633: pop rbp; pop r14; pop r15; ret; 
94187788452632: pop r13; pop r14; pop r15; ret; 
94187788452631: pop rsp; pop r13; pop r14; pop r15; ret; 
94187788452630: pop r12; pop r13; pop r14; pop r15; ret; 
94187788453030: jmp qword ptr [rsi + 0xf]; 
94187788453718: jmp qword ptr [rsi + 0xf]; 
94187788453773: jmp qword ptr [rsi - 0x70]; 
94187788455521: jmp qword ptr [rsi + 0xf]; 
94187788455519: idiv edi; jmp qword ptr [rsi + 0xf]; 
94187788455518: cmpsd dword ptr [rsi], dword ptr [rdi]; idiv edi; jmp qword ptr [rsi + 0xf]; 
94187788455516: add cl, ch; cmpsd dword ptr [rsi], dword ptr [rdi]; idiv edi; jmp qword ptr [rsi + 0xf]; 
94187788455514: add byte ptr [rax], al; add cl, ch; cmpsd dword ptr [rsi], dword ptr [rdi]; idiv edi; jmp qword ptr [rsi + 0xf]; 
94187788455641: jmp qword ptr [rsi + 0xf]; 
94187788455639: idiv bh; jmp qword ptr [rsi + 0xf]; 
94187788455638: idiv dil; jmp qword ptr [rsi + 0xf]; 
94187788452099: call qword ptr [rbx + 0x48]; 
94187788452096: mov dword ptr [rsi + 0x4c], eax; call qword ptr [rbx + 0x48]; 
94187788452094: add byte ptr [rax], al; mov dword ptr [rsi + 0x4c], eax; call qword ptr [rbx + 0x48]; 
94187788452092: sub byte ptr [rcx], al; add byte ptr [rax], al; mov dword ptr [rsi + 0x4c], eax; call qword ptr [rbx + 0x48]; 
94187788452091: xchg eax, ebx; sub byte ptr [rcx], al; add byte ptr [rax], al; mov dword ptr [rsi + 0x4c], eax; call qword ptr [rbx + 0x48]; 
94187788452090: mov dword ptr [rbx + 0x128], edx; mov dword ptr [rsi + 0x4c], eax; call qword ptr [rbx + 0x48]; 
94187788452087: lea edx, dword ptr [rax + 1]; mov dword ptr [rbx + 0x128], edx; mov dword ptr [rsi + 0x4c], eax; call qword ptr [rbx + 0x48]; 
94187788452086: fisttp word ptr [rbp - 0x6c76feb0]; sub byte ptr [rcx], al; add byte ptr [rax], al; mov dword ptr [rsi + 0x4c], eax; call qword ptr [rbx + 0x48]; 
94187788452085: mov edi, ebx; lea edx, dword ptr [rax + 1]; mov dword ptr [rbx + 0x128], edx; mov dword ptr [rsi + 0x4c], eax; call qword ptr [rbx + 0x48]; 
94187788452084: mov rdi, rbx; lea edx, dword ptr [rax + 1]; mov dword ptr [rbx + 0x128], edx; mov dword ptr [rsi + 0x4c], eax; call qword ptr [rbx + 0x48]; 
94187788453394: call qword ptr [rcx + 0x30]; 
94187788453393: iretd; call qword ptr [rcx + 0x30]; 
94187788453392: mov edi, ecx; call qword ptr [rcx + 0x30]; 
94187788453391: mov rdi, rcx; call qword ptr [rcx + 0x30]; 
94187788453390: out dx, al; mov rdi, rcx; call qword ptr [rcx + 0x30]; 
94187788453389: mov esi, ebp; mov rdi, rcx; call qword ptr [rcx + 0x30]; 
94187788453388: mov rsi, rbp; mov rdi, rcx; call qword ptr [rcx + 0x30]; 
94187788453386: mov edx, esp; mov rsi, rbp; mov rdi, rcx; call qword ptr [rcx + 0x30]; 
94187788453385: mov rdx, r12; mov rsi, rbp; mov rdi, rcx; call qword ptr [rcx + 0x30]; 
94187788453384: add byte ptr [rcx + rcx*4 - 0x1e], cl; mov rsi, rbp; mov rdi, rcx; call qword ptr [rcx + 0x30]; 
94187788453383: add byte ptr [rax], al; mov rdx, r12; mov rsi, rbp; mov rdi, rcx; call qword ptr [rcx + 0x30]; 
94187788453382: add byte ptr [rax], al; add byte ptr [rcx + rcx*4 - 0x1e], cl; mov rsi, rbp; mov rdi, rcx; call qword ptr [rcx + 0x30]; 
94187788454828: call qword ptr [rbx + 0x48]; 
94187788454825: mov dword ptr [rsi + 0x4c], eax; call qword ptr [rbx + 0x48]; 
94187788454823: add byte ptr [rax], al; mov dword ptr [rsi + 0x4c], eax; call qword ptr [rbx + 0x48]; 
94187788454821: sub byte ptr [rcx], al; add byte ptr [rax], al; mov dword ptr [rsi + 0x4c], eax; call qword ptr [rbx + 0x48]; 
94187788454820: xchg eax, ebx; sub byte ptr [rcx], al; add byte ptr [rax], al; mov dword ptr [rsi + 0x4c], eax; call qword ptr [rbx + 0x48]; 
94187788454819: mov dword ptr [rbx + 0x128], edx; mov dword ptr [rsi + 0x4c], eax; call qword ptr [rbx + 0x48]; 
94187788454816: lea edx, dword ptr [rax + 1]; mov dword ptr [rbx + 0x128], edx; mov dword ptr [rsi + 0x4c], eax; call qword ptr [rbx + 0x48]; 
94187788454815: add byte ptr [rbp - 0x6c76feb0], cl; sub byte ptr [rcx], al; add byte ptr [rax], al; mov dword ptr [rsi + 0x4c], eax; call qword ptr [rbx + 0x48]; 
94187788454814: add byte ptr [rax], al; lea edx, dword ptr [rax + 1]; mov dword ptr [rbx + 0x128], edx; mov dword ptr [rsi + 0x4c], eax; call qword ptr [rbx + 0x48]; 
94187788454932: call qword ptr [rbx + 0x48]; 
94187788454929: mov dword ptr [rsi + 0x4c], edx; call qword ptr [rbx + 0x48]; 
94187788454927: add byte ptr [rax], al; mov dword ptr [rsi + 0x4c], edx; call qword ptr [rbx + 0x48]; 
94187788454925: sub byte ptr [rcx], al; add byte ptr [rax], al; mov dword ptr [rsi + 0x4c], edx; call qword ptr [rbx + 0x48]; 
94187788454923: mov dword ptr [rbx + 0x128], ecx; mov dword ptr [rsi + 0x4c], edx; call qword ptr [rbx + 0x48]; 
94187788454920: lea ecx, dword ptr [rdx + 1]; mov dword ptr [rbx + 0x128], ecx; mov dword ptr [rsi + 0x4c], edx; call qword ptr [rbx + 0x48]; 
94187788454919: fisttp word ptr [rbp - 0x7476feb6]; sub byte ptr [rcx], al; add byte ptr [rax], al; mov dword ptr [rsi + 0x4c], edx; call qword ptr [rbx + 0x48]; 
94187788454918: mov edi, ebx; lea ecx, dword ptr [rdx + 1]; mov dword ptr [rbx + 0x128], ecx; mov dword ptr [rsi + 0x4c], edx; call qword ptr [rbx + 0x48]; 
94187788454917: mov rdi, rbx; lea ecx, dword ptr [rdx + 1]; mov dword ptr [rbx + 0x128], ecx; mov dword ptr [rsi + 0x4c], edx; call qword ptr [rbx + 0x48]; 
94187788455340: call qword ptr [rbx + 0x58]; 
94187788455338: jnp 0x55a9cdac4e0c; call qword ptr [rbx + 0x58]; 
94187788455337: mov edi, dword ptr [rbx + 0x60]; call qword ptr [rbx + 0x58]; 
94187788455336: mov rdi, qword ptr [rbx + 0x60]; call qword ptr [rbx + 0x58]; 
94187788455333: sal byte ptr [rbp - 0x10], 0x48; mov edi, dword ptr [rbx + 0x60]; call qword ptr [rbx + 0x58]; 
94187788455330: or byte ptr [rax - 0x7b], cl; sal byte ptr [rbp - 0x10], 0x48; mov edi, dword ptr [rbx + 0x60]; call qword ptr [rbx + 0x58]; 
94187788455329: or byte ptr [rax - 0x7b], cl; sal byte ptr [rbp - 0x10], 0x48; mov edi, dword ptr [rbx + 0x60]; call qword ptr [rbx + 0x58]; 
94187788455326: test dword ptr [rax - 0x75], 0x85480840; sal byte ptr [rbp - 0x10], 0x48; mov edi, dword ptr [rbx + 0x60]; call qword ptr [rbx + 0x58]; 
94187788455325: test qword ptr [rax - 0x75], -0x7ab7f7c0; sal byte ptr [rbp - 0x10], 0x48; mov edi, dword ptr [rbx + 0x60]; call qword ptr [rbx + 0x58]; 
94187788452320: ret 0xe281; 
94187788452317: add byte ptr [rax - 0x77], cl; ret 0xe281; 
94187788452426: ret 0xe281; 
94187788452674: ret 0x8b48; 
94187788453113: ret 0xf02; 
94187788453111: add dh, dh; ret 0xf02; 
94187788453461: ret 0xca83; 
94187788453541: ret 0xf10; 
94187788453539: or esi, esi; ret 0xf10; 
94187788453538: push rbp; or esi, esi; ret 0xf10; 
94187788453537: mov dh, 0x55; or esi, esi; ret 0xf10; 
94187788453535: add byte ptr [rdi], cl; mov dh, 0x55; or esi, esi; ret 0xf10; 
94187788453529: movabs eax, dword ptr [0xb60f001f0ffffff9]; push rbp; or esi, esi; ret 0xf10; 
94187788453524: call 0x55a9b7ac444c; movabs eax, dword ptr [0xb60f001f0ffffff9]; push rbp; or esi, esi; ret 0xf10; 
94187788454265: ret 0xe281; 
94187788454262: dec dword ptr [rax - 0x77]; ret 0xe281; 
94187788454316: ret 0xe281; 
94187788454422: ret 0xe281; 
94187788454476: ret 0xe281; 
94187788454582: ret 0xe281; 
94187788454635: ret 0xe281; 
94187788454741: ret 0xe281; 
94187788454887: ret 0xf60; 
94187788454885: add dh, dh; ret 0xf60; 
94187788454883: add byte ptr [rax], al; add dh, dh; ret 0xf60; 
94187788454882: add byte ptr [rax], 0; add dh, dh; ret 0xf60; 
94187788454881: xchg eax, ebx; add byte ptr [rax], 0; add dh, dh; ret 0xf60; 
94187788454880: mov dh, 0x93; add byte ptr [rax], 0; add dh, dh; ret 0xf60; 
94187788454878: adc dword ptr [rdi], ecx; mov dh, 0x93; add byte ptr [rax], 0; add dh, dh; ret 0xf60; 
94187788454965: ret 0xf08; 
94187788454963: adc dh, dh; ret 0xf08; 
94187788454962: imul edx, dword ptr [rax], -0xa; ret 0xf08; 
94187788454959: or byte ptr [rax - 0x77], cl; imul edx, dword ptr [rax], -0xa; ret 0xf08; 
94187788454958: push 0x6b894808; adc dh, dh; ret 0xf08; 
94187788454955: add byte ptr [rax - 0x75], cl; push 0x6b894808; adc dh, dh; ret 0xf08; 
94187788454953: add byte ptr [rax], al; add byte ptr [rax - 0x75], cl; push 0x6b894808; adc dh, dh; ret 0xf08; 
94187788454952: add byte ptr [rax], 0; add byte ptr [rax - 0x75], cl; push 0x6b894808; adc dh, dh; ret 0xf08; 
94187788452670: call qword ptr [rax + 0x48c28948]; 
94187788453918: call qword ptr [rax + 0x48138b48]; 
94187788449202: ret; 
94187788449200: xor eax, eax; ret; 
94187788449195: call 0x55a9cda9ce90; xor eax, eax; ret; 
94187788449756: ret; 
94187788449755: pop rdi; ret; 
94187788449754: pop r15; ret; 
94187788449753: pop rsi; pop r15; ret; 
94187788449752: pop r14; pop r15; ret; 
94187788449751: pop rbp; pop r14; pop r15; ret; 
94187788449750: pop r13; pop r14; pop r15; ret; 
94187788449749: pop rsp; pop r13; pop r14; pop r15; ret; 
94187788449748: pop r12; pop r13; pop r14; pop r15; ret; 
94187788450645: ret; 
94187788450644: pop rbp; ret; 
94187788450643: pop r13; ret; 
94187788450642: pop rsp; pop r13; ret; 
94187788450641: pop r12; pop r13; ret; 
94187788450640: pop rbp; pop r12; pop r13; ret; 
94187788450639: pop rbx; pop rbp; pop r12; pop r13; ret; 
94187788450638: or byte ptr [rbx + 0x5d], bl; pop r12; pop r13; ret; 
94187788450706: ret; 
94187788450704: xor eax, eax; ret; 
94187788450702: add byte ptr [rax], al; xor eax, eax; ret; 
94187788450700: add byte ptr [rax], al; add byte ptr [rax], al; xor eax, eax; ret; 
94187788450698: test byte ptr [rax], al; add byte ptr [rax], al; add byte ptr [rax], al; xor eax, eax; ret; 
94187788450696: nop dword ptr [rax + rax]; xor eax, eax; ret; 
94187788450695: xchg eax, edi; nop dword ptr [rax + rax]; xor eax, eax; ret; 
94187788450693: sbb bl, ch; xchg eax, edi; nop dword ptr [rax + rax]; xor eax, eax; ret; 
94187788450834: ret; 
94187788450833: pop rbp; ret; 
94187788450832: pop rbx; pop rbp; ret; 
94187788450831: or byte ptr [rbx + 0x5d], bl; ret; 
94187788450829: add esp, 8; pop rbx; pop rbp; ret; 
94187788450828: add rsp, 8; pop rbx; pop rbp; ret; 
94187788450827: ror byte ptr [rax - 0x7d], 0xc4; or byte ptr [rbx + 0x5d], bl; ret; 
94187788450826: xor eax, eax; add rsp, 8; pop rbx; pop rbp; ret; 
94187788450825: or byte ptr [rcx], dh; ror byte ptr [rax - 0x7d], 0xc4; or byte ptr [rbx + 0x5d], bl; ret; 
94187788450824: or byte ptr [rcx], sil; ror byte ptr [rax - 0x7d], 0xc4; or byte ptr [rbx + 0x5d], bl; ret; 
94187788450876: ret; 
94187788450875: pop rbp; ret; 
94187788450874: pop rbx; pop rbp; ret; 
94187788450872: xor eax, eax; pop rbx; pop rbp; ret; 
94187788450869: add esp, 8; xor eax, eax; pop rbx; pop rbp; ret; 
94187788450868: add rsp, 8; xor eax, eax; pop rbx; pop rbp; ret; 
94187788450896: ret; 
94187788450895: pop rbp; ret; 
94187788450894: pop rbx; pop rbp; ret; 
94187788450892: xor eax, eax; pop rbx; pop rbp; ret; 
94187788450889: add esp, 8; xor eax, eax; pop rbx; pop rbp; ret; 
94187788450888: add rsp, 8; xor eax, eax; pop rbx; pop rbp; ret; 
94187788450970: ret; 
94187788450967: cmp byte ptr [rax - 0x77], cl; ret; 
94187788450966: pop rbp; cmp byte ptr [rax - 0x77], cl; ret; 
94187788450963: or byte ptr [rax - 0x77], cl; pop rbp; cmp byte ptr [rax - 0x77], cl; ret; 
94187788450962: push rbx; or byte ptr [rax - 0x77], cl; pop rbp; cmp byte ptr [rax - 0x77], cl; ret; 
94187788451053: ret; 
94187788451052: pop rbp; ret; 
94187788451051: pop rbx; pop rbp; ret; 
94187788451050: or byte ptr [rbx + 0x5d], bl; ret; 
94187788451048: add esp, 8; pop rbx; pop rbp; ret; 
94187788451047: add rsp, 8; pop rbx; pop rbp; ret; 
94187788451041: mov eax, 0xfffffffa; add rsp, 8; pop rbx; pop rbp; ret; 
94187788451040: mov rax, -6; add rsp, 8; pop rbx; pop rbp; ret; 
94187788448452: call qword ptr [rsi]; 
94187788448450: and al, 0x41; call qword ptr [rsi]; 
94187788448716: call qword ptr [rsi]; 
94187788448301: jmp rax; 
94187788447782: jmp qword ptr [rsi + 0xf]; 
94187788447865: jmp qword ptr [rsi + 0xf]; 
94187788447965: jmp qword ptr [rsi - 0x70]; 
94187788448157: jmp qword ptr [rsi - 0x70]; 
94187788448321: jmp qword ptr [rsi + 0xf]; 
94187788448401: jmp qword ptr [rsi - 0x7b]; 
94187788448601: jmp qword ptr [rsi + 0xf]; 
94187788450420: jmp qword ptr [rsi + 0x66]; 
94187788451428: call qword ptr [rbx + 0x58]; 
94187788451426: jnp 0x55a9cdac3ec4; call qword ptr [rbx + 0x58]; 
94187788451425: mov edi, dword ptr [rbx + 0x60]; call qword ptr [rbx + 0x58]; 
94187788451424: mov rdi, qword ptr [rbx + 0x60]; call qword ptr [rbx + 0x58]; 
94187788451422: mov esi, eax; mov rdi, qword ptr [rbx + 0x60]; call qword ptr [rbx + 0x58]; 
94187788451421: mov rsi, r8; mov rdi, qword ptr [rbx + 0x60]; call qword ptr [rbx + 0x58]; 
94187788451420: add byte ptr [rcx + rcx*4 - 0x3a], cl; mov rdi, qword ptr [rbx + 0x60]; call qword ptr [rbx + 0x58]; 
94187788451419: add byte ptr [rax], al; mov rsi, r8; mov rdi, qword ptr [rbx + 0x60]; call qword ptr [rbx + 0x58]; 
94187788451661: call qword ptr [rbx + 0x58]; 
94187788451659: jnp 0x55a9cdac3fad; call qword ptr [rbx + 0x58]; 
94187788451658: mov edi, dword ptr [rbx + 0x60]; call qword ptr [rbx + 0x58]; 
94187788451657: mov rdi, qword ptr [rbx + 0x60]; call qword ptr [rbx + 0x58]; 
94187788451656: add byte ptr [rax - 0x75], cl; jnp 0x55a9cdac3fad; call qword ptr [rbx + 0x58]; 
94187788451655: add byte ptr [rax], al; mov rdi, qword ptr [rbx + 0x60]; call qword ptr [rbx + 0x58]; 
94187788451653: test eax, 0x4800000e; mov edi, dword ptr [rbx + 0x60]; call qword ptr [rbx + 0x58]; 
94187788451652: test dword ptr [rcx + 0x4800000e], ebp; mov edi, dword ptr [rbx + 0x60]; call qword ptr [rbx + 0x58]; 
94187788451650: test byte ptr [rdi], 0x85; test eax, 0x4800000e; mov edi, dword ptr [rbx + 0x60]; call qword ptr [rbx + 0x58]; 
94187788451647: sbb byte ptr [rax - 0x7b], cl; test byte ptr [rdi], 0x85; test eax, 0x4800000e; mov edi, dword ptr [rbx + 0x60]; call qword ptr [rbx + 0x58]; 
94187788449186: ret 0x8dd; 
94187788449378: ret 0x8b48; 
94187788449375: add byte ptr [rax - 0x77], cl; ret 0x8b48; 
94187788449373: add byte ptr [rax], al; add byte ptr [rax - 0x77], cl; ret 0x8b48; 
94187788449762: ret 0xc4eb; 
94187788449759: add byte ptr [rax - 0x77], cl; ret 0xc4eb; 
94187788449848: ret 0xf80; 
94187788451746: ret 0xf70; 
94187788448574: call qword ptr [rax + 0x40d8d48]; 
94187788448734: call qword ptr [rax + 0x24048944]; 
94187788443779: ret; 
94187788443778: pop rbp; ret; 
94187788443777: pop rbx; pop rbp; ret; 
94187788443776: fcomp dword ptr [rbx + 0x5d]; ret; 
94187788443775: mov eax, ebx; pop rbx; pop rbp; ret; 
94187788443774: mov rax, rbx; pop rbx; pop rbp; ret; 
94187788443773: or byte ptr [rax - 0x77], cl; fcomp dword ptr [rbx + 0x5d]; ret; 
94187788443771: add esp, 8; mov rax, rbx; pop rbx; pop rbp; ret; 
94187788443770: add rsp, 8; mov rax, rbx; pop rbx; pop rbp; ret; 
94187788443786: ret; 
94187788443783: add byte ptr [rax - 0x39], cl; ret; 
94187788443782: add byte ptr [rax - 0x39], cl; ret; 
94187788443779: ret; 
94187788443854: ret; 
94187788443853: pop rbx; ret; 
94187788443851: sub byte ptr [rcx], al; pop rbx; ret; 
94187788443850: sub dword ptr [rax], 1; pop rbx; ret; 
94187788443849: sub qword ptr [rax], 1; pop rbx; ret; 
94187788443848: lock sub qword ptr [rax], 1; pop rbx; ret; 
94187788443847: add al, dh; sub qword ptr [rax], 1; pop rbx; ret; 
94187788443846: mov eax, dword ptr [rax]; lock sub qword ptr [rax], 1; pop rbx; ret; 
94187788443845: mov rax, qword ptr [rax]; lock sub qword ptr [rax], 1; pop rbx; ret; 
94187788443844: add byte ptr [rax - 0x75], cl; add al, dh; sub qword ptr [rax], 1; pop rbx; ret; 
94187788443843: or eax, dword ptr [rax]; mov rax, qword ptr [rax]; lock sub qword ptr [rax], 1; pop rbx; ret; 
94187788443842: or eax, dword ptr [rax]; mov rax, qword ptr [rax]; lock sub qword ptr [rax], 1; pop rbx; ret; 
94187788443840: add eax, 0xbf2e3; mov rax, qword ptr [rax]; lock sub qword ptr [rax], 1; pop rbx; ret; 
94187788443839: lea eax, dword ptr [rip + 0xbf2e3]; mov rax, qword ptr [rax]; lock sub qword ptr [rax], 1; pop rbx; ret; 
94187788443838: lea rax, qword ptr [rip + 0xbf2e3]; mov rax, qword ptr [rax]; lock sub qword ptr [rax], 1; pop rbx; ret; 
94187788443900: ret; 
94187788443899: pop rbx; ret; 
94187788443897: add byte ptr [rax], al; pop rbx; ret; 
94187788443895: add byte ptr [rax], al; add byte ptr [rax], al; pop rbx; ret; 
94187788443893: add byte ptr [rax], al; add byte ptr [rax], al; add byte ptr [rax], al; pop rbx; ret; 
94187788443904: ret; 
94187788443901: nop dword ptr [rax]; ret; 
94187788443900: ret; 
94187788444879: ret; 
94187788444876: dec dword ptr [rax - 0x77]; ret; 
94187788444875: std; dec dword ptr [rax - 0x77]; ret; 
94187788444874: out 0xfd, al; dec dword ptr [rax - 0x77]; ret; 
94187788444873: out 0xfd, al; dec dword ptr [rax - 0x77]; ret; 
94187788444871: add al, ch; out 0xfd, al; dec dword ptr [rax - 0x77]; ret; 
94187788444869: add byte ptr [rax], al; add al, ch; out 0xfd, al; dec dword ptr [rax - 0x77]; ret; 
94187788445400: ret; 
94187788445399: pop rdi; ret; 
94187788445398: pop r15; ret; 
94187788445397: pop rsi; pop r15; ret; 
94187788445396: pop r14; pop r15; ret; 
94187788445395: pop rbp; pop r14; pop r15; ret; 
94187788445394: pop r13; pop r14; pop r15; ret; 
94187788445393: pop rsp; pop r13; pop r14; pop r15; ret; 
94187788445392: pop r12; pop r13; pop r14; pop r15; ret; 
94187788446713: ret; 
94187788446711: add al, ch; ret; 
94187788446920: ret; 
94187788446917: sbb byte ptr [rax - 0x77], cl; ret; 
94187788446969: ret; 
94187788446968: pop rsi; ret; 
94187788446967: pop r14; ret; 
94187788446966: pop rbp; pop r14; ret; 
94187788446965: pop r13; pop r14; ret; 
94187788446964: pop rsp; pop r13; pop r14; ret; 
94187788446963: pop r12; pop r13; pop r14; ret; 
94187788446962: pop rbp; pop r12; pop r13; pop r14; ret; 
94187788446961: add dword ptr [rbp + 0x41], ebx; pop rsp; pop r13; pop r14; ret; 
94187788447696: ret; 
94187788447695: pop rdi; ret; 
94187788447694: pop r15; ret; 
94187788447693: pop rsi; pop r15; ret; 
94187788447692: pop r14; pop r15; ret; 
94187788447691: pop rbp; pop r14; pop r15; ret; 
94187788447690: pop r13; pop r14; pop r15; ret; 
94187788447689: pop rsp; pop r13; pop r14; pop r15; ret; 
94187788447688: pop r12; pop r13; pop r14; pop r15; ret; 
94187788447575: call rax; 
94187788447574: out dx, eax; call rax; 
94187788447573: mov edi, ebp; call rax; 
94187788447572: mov rdi, rbp; call rax; 
94187788447569: sal byte ptr [rdi + rcx + 0x48], 0x89; out dx, eax; call rax; 
94187788447566: add byte ptr [rax - 0x7b], cl; sal byte ptr [rdi + rcx + 0x48], 0x89; out dx, eax; call rax; 
94187788447564: add byte ptr [rax], al; add byte ptr [rax - 0x7b], cl; sal byte ptr [rdi + rcx + 0x48], 0x89; out dx, eax; call rax; 
94187788443677: jmp qword ptr [rsi - 0x70]; 
94187788443676: std; jmp qword ptr [rsi - 0x70]; 
94187788443675: scasb al, byte ptr [rdi]; std; jmp qword ptr [rsi - 0x70]; 
94187788445725: jmp qword ptr [rsi - 0x70]; 
94187788446557: jmp qword ptr [rsi - 0x70]; 
94187788446598: jmp qword ptr [rsi + 0xf]; 
94187788446641: jmp qword ptr [rsi + 0xf]; 
94187788446864: jmp qword ptr [rsi + 0x66]; 
94187788446863: std; jmp qword ptr [rsi + 0x66]; 
94187788447085: jmp qword ptr [rsi - 0x70]; 
94187788445298: call qword ptr [rbp + 0x50]; 
94187788445540: call qword ptr [rbx + 0x10]; 
94187788445537: mov byte ptr [rbx + 8], al; call qword ptr [rbx + 0x10]; 
94187788445534: or eax, 0x20; mov byte ptr [rbx + 8], al; call qword ptr [rbx + 0x10]; 
94187788445533: xlatb; or eax, 0x20; mov byte ptr [rbx + 8], al; call qword ptr [rbx + 0x10]; 
94187788445531: and eax, 0xffffffd7; or eax, 0x20; mov byte ptr [rbx + 8], al; call qword ptr [rbx + 0x10]; 
94187788445527: movzx eax, byte ptr [rbx + 8]; and eax, 0xffffffd7; or eax, 0x20; mov byte ptr [rbx + 8], al; call qword ptr [rbx + 0x10]; 
94187788447125: call qword ptr [rdi + 0x30]; 
94187788447123: xor eax, eax; call qword ptr [rdi + 0x30]; 
94187788447121: and al, 0x18; xor eax, eax; call qword ptr [rdi + 0x30]; 
94187788447120: and al, 0x18; xor eax, eax; call qword ptr [rdi + 0x30]; 
94187788447119: mov dword ptr [rsp + 0x18], eax; xor eax, eax; call qword ptr [rdi + 0x30]; 
94187788447118: mov qword ptr [rsp + 0x18], rax; xor eax, eax; call qword ptr [rdi + 0x30]; 
94187788447117: add byte ptr [rax - 0x77], cl; and al, 0x18; xor eax, eax; call qword ptr [rdi + 0x30]; 
94187788447116: add byte ptr [rax], al; mov qword ptr [rsp + 0x18], rax; xor eax, eax; call qword ptr [rdi + 0x30]; 
94187788447115: add byte ptr [rax], al; add byte ptr [rax - 0x77], cl; and al, 0x18; xor eax, eax; call qword ptr [rdi + 0x30]; 
94187788447114: sub byte ptr [rax], al; add byte ptr [rax], al; mov qword ptr [rsp + 0x18], rax; xor eax, eax; call qword ptr [rdi + 0x30]; 
94187788447113: and eax, 0x28; mov qword ptr [rsp + 0x18], rax; xor eax, eax; call qword ptr [rdi + 0x30]; 
94187788445219: ret 0x8b49; 
94187788445890: ret 0x894c; 
94187788446011: ret 0x4807; 
94187788446042: ret 0x3948; 
94187788446338: ret 0xf01; 
94187788446335: add byte ptr [rax - 0x7d], cl; ret 0xf01; 
94187788446410: ret 0xf01; 
94187788446407: add byte ptr [rax - 0x7d], cl; ret 0xf01; 
94187788446579: ret 0xf41; 
94187788446577: add al, 0x89; ret 0xf41; 
94187788447495: ret 0xb60f; 
94187788445822: call qword ptr [rax + 0x24448b48]; 
94187788446861: jmp qword ptr [rcx + 0x6666fffd]; 
94187788296500: ret; 
94187788296497: add byte ptr [rax - 0x77], cl; ret; 
94187788296495: xor al, byte ptr [rcx]; add byte ptr [rax - 0x77], cl; ret; 
94187788296494: out dx, al; xor al, byte ptr [rcx]; add byte ptr [rax - 0x77], cl; ret; 
94187788296492: sbb al, ch; out dx, al; xor al, byte ptr [rcx]; add byte ptr [rax - 0x77], cl; ret; 
94187788297224: ret; 
94187788297222: add byte ptr [rax], al; ret; 
94187788297220: add byte ptr [rax], al; add byte ptr [rax], al; ret; 
94187788297219: add byte ptr [rax], 0; add byte ptr [rax], al; ret; 
94187788297217: nop dword ptr [rax]; ret; 
94187788297212: sal byte ptr [rcx + rcx - 1], 0xe0; nop dword ptr [rax]; ret; 
94187788297209: add byte ptr [rax - 0x7b], cl; sal byte ptr [rcx + rcx - 1], 0xe0; nop dword ptr [rax]; ret; 
94187788297207: sbb ecx, dword ptr [rsi]; add byte ptr [rax - 0x7b], cl; sal byte ptr [rcx + rcx - 1], 0xe0; nop dword ptr [rax]; ret; 
94187788297288: ret; 
94187788297286: add byte ptr [rax], al; ret; 
94187788297285: add byte ptr [rax], r8b; ret; 
94187788297283: nop dword ptr [rax + rax]; ret; 
94187788297282: nop word ptr [rax + rax]; ret; 
94187788297277: sal byte ptr [rax + rcx - 1], 0xe0; nop word ptr [rax + rax]; ret; 
94187788297274: add byte ptr [rax - 0x7b], cl; sal byte ptr [rax + rcx - 1], 0xe0; nop word ptr [rax + rax]; ret; 
94187788297272: sbb ecx, dword ptr [rsi]; add byte ptr [rax - 0x7b], cl; sal byte ptr [rax + rcx - 1], 0xe0; nop word ptr [rax + rax]; ret; 
94187788297344: ret; 
94187788297343: pop rbp; ret; 
94187788297341: add byte ptr [rcx], al; pop rbp; ret; 
94187788297340: sldt word ptr [rcx]; pop rbp; ret; 
94187788297339: mov ebp, 0x5d01000f; ret; 
94187788297338: mov r13d, 0x5d01000f; ret; 
94187788297336: mov byte ptr [rip + 0xfbd41], 1; pop rbp; ret; 
94187788297331: call 0x55a9cda9e3e0; mov byte ptr [rip + 0xfbd41], 1; pop rbp; ret; 
94187788297326: call 0x55a9cda9d670; call 0x55a9cda9e3e0; mov byte ptr [rip + 0xfbd41], 1; pop rbp; ret; 
94187788297352: ret; 
94187788297350: add byte ptr [rax], al; ret; 
94187788297348: add byte ptr [rax], al; add byte ptr [rax], al; ret; 
94187788297347: add byte ptr [rax], 0; add byte ptr [rax], al; ret; 
94187788297345: nop dword ptr [rax]; ret; 
94187788297344: ret; 
94187788297464: ret; 
94187788297463: pop rdi; ret; 
94187788297462: pop r15; ret; 
94187788297461: pop rsi; pop r15; ret; 
94187788297460: pop r14; pop r15; ret; 
94187788297459: pop rbp; pop r14; pop r15; ret; 
94187788297458: pop r13; pop r14; pop r15; ret; 
94187788297457: pop rsp; pop r13; pop r14; pop r15; ret; 
94187788297456: pop r12; pop r13; pop r14; pop r15; ret; 
94187788297913: ret; 
94187788297911: add al, ch; ret; 
94187788297909: add byte ptr [rax], al; add al, ch; ret; 
94187788298042: ret; 
94187788298041: pop rbx; ret; 
94187788298039: xor eax, eax; pop rbx; ret; 
94187788298038: int1; xor eax, eax; pop rbx; ret; 
94187788298054: ret; 
94187788298053: pop rbx; ret; 
94187788298051: xor eax, eax; pop rbx; ret; 
94187788298049: mov dword ptr [rdi], edx; xor eax, eax; pop rbx; ret; 
94187788298048: mov qword ptr [rdi], rdx; xor eax, eax; pop rbx; ret; 
94187788298046: add byte ptr [rax], al; mov qword ptr [rdi], rdx; xor eax, eax; pop rbx; ret; 
94187788298045: add byte ptr [rax], r8b; mov qword ptr [rdi], rdx; xor eax, eax; pop rbx; ret; 
94187788298043: nop dword ptr [rax + rax]; mov qword ptr [rdi], rdx; xor eax, eax; pop rbx; ret; 
94187788298042: ret; 
94187788298299: ret; 
94187788298298: pop rbp; ret; 
94187788298297: pop r13; ret; 
94187788298296: pop rsp; pop r13; ret; 
94187788298295: pop r12; pop r13; ret; 
94187788298294: pop rbp; pop r12; pop r13; ret; 
94187788298293: pop rbx; pop rbp; pop r12; pop r13; ret; 
94187788298292: sub byte ptr [rbx + 0x5d], bl; pop r12; pop r13; ret; 
94187788299074: ret; 
94187788299071: or byte ptr [rax - 0x77], cl; ret; 
94187788299188: ret; 
94187788299187: pop rbp; ret; 
94187788299186: pop rbx; pop rbp; ret; 
94187788299185: fcomp dword ptr [rbx + 0x5d]; ret; 
94187788299184: mov eax, ebx; pop rbx; pop rbp; ret; 
94187788299183: mov rax, rbx; pop rbx; pop rbp; ret; 
94187788299182: or byte ptr [rax - 0x77], cl; fcomp dword ptr [rbx + 0x5d]; ret; 
94187788299180: add esp, 8; mov rax, rbx; pop rbx; pop rbp; ret; 
94187788299179: add rsp, 8; mov rax, rbx; pop rbx; pop rbp; ret; 
94187788299178: or eax, 0x8c48348; mov rax, rbx; pop rbx; pop rbp; ret; 
94187788299203: ret; 
94187788299202: pop rbp; ret; 
94187788299201: pop rbx; pop rbp; ret; 
94187788299200: fcomp dword ptr [rbx + 0x5d]; ret; 
94187788299199: mov eax, ebx; pop rbx; pop rbp; ret; 
94187788299198: mov rax, rbx; pop rbx; pop rbp; ret; 
94187788299197: or byte ptr [rax - 0x77], cl; fcomp dword ptr [rbx + 0x5d]; ret; 
94187788299195: add esp, 8; mov rax, rbx; pop rbx; pop rbp; ret; 
94187788299194: add rsp, 8; mov rax, rbx; pop rbx; pop rbp; ret; 
94187788299304: ret; 
94187788299302: add byte ptr [rax], al; ret; 
94187788299300: add byte ptr [rax], al; add byte ptr [rax], al; ret; 
94187788299299: add byte ptr [rax], 0; add byte ptr [rax], al; ret; 
94187788299297: nop dword ptr [rax]; ret; 
94187788299343: ret; 
94187788299342: pop rbx; ret; 
94187788299339: add dword ptr [rdi + 2], esi; pop rbx; ret; 
94187788299427: ret; 
94187788299426: pop rsi; ret; 
94187788299425: pop r14; ret; 
94187788299424: pop rbp; pop r14; ret; 
94187788299423: pop r13; pop r14; ret; 
94187788299422: pop rsp; pop r13; pop r14; ret; 
94187788299421: pop r12; pop r13; pop r14; ret; 
94187788299420: pop rbp; pop r12; pop r13; pop r14; ret; 
94187788299699: ret; 
94187788299727: ret; 
94187788299726: pop rsi; ret; 
94187788299725: pop r14; ret; 
94187788299724: pop rbp; pop r14; ret; 
94187788299723: pop r13; pop r14; ret; 
94187788299722: pop rsp; pop r13; pop r14; ret; 
94187788299721: pop r12; pop r13; pop r14; ret; 
94187788299720: pop rbp; pop r12; pop r13; pop r14; ret; 
94187788299986: ret; 
94187788299983: add byte ptr [rax - 0x39], cl; ret; 
94187788300053: ret; 
94187788300050: add byte ptr [rax - 0x39], cl; ret; 
94187788300048: add byte ptr [rax], al; add byte ptr [rax - 0x39], cl; ret; 
94187788300154: ret; 
94187788300153: pop rbx; ret; 
94187788300150: push qword ptr [rdx + rsi + 0x5b]; ret; 
94187788300149: cli; push qword ptr [rdx + rsi + 0x5b]; ret; 
94187788300147: rol byte ptr [rbx + 0x3274fffa], 0x5b; ret; 
94187788300186: ret; 
94187788300185: pop rbx; ret; 
94187788300183: xor eax, eax; pop rbx; ret; 
94187788300182: xor eax, eax; pop rbx; ret; 
94187788300181: xor eax, eax; pop rbx; ret; 
94187788300180: mov dword ptr [rbx + 0x40], eax; xor eax, eax; pop rbx; ret; 
94187788300179: fmul dword ptr [rcx - 0x3fcebfbd]; pop rbx; ret; 
94187788300178: neg eax; mov dword ptr [rbx + 0x40], eax; xor eax, eax; pop rbx; ret; 
94187788300175: push qword ptr [rsi + rdx - 9]; fmul dword ptr [rcx - 0x3fcebfbd]; pop rbx; ret; 
94187788300174: clc; push qword ptr [rsi + rdx - 9]; fmul dword ptr [rcx - 0x3fcebfbd]; pop rbx; ret; 
94187788300192: ret; 
94187788300190: add byte ptr [rax], al; ret; 
94187788300189: add byte ptr [rax], r8b; ret; 
94187788300187: nop dword ptr [rax + rax]; ret; 
94187788300186: ret; 
94187788300211: ret; 
94187788300210: pop rbx; ret; 
94187788300208: or al, byte ptr [rax]; pop rbx; ret; 
94187788300205: add eax, 0xae151; pop rbx; ret; 
94187788300204: lea eax, dword ptr [rip + 0xae151]; pop rbx; ret; 
94187788300203: lea rax, qword ptr [rip + 0xae151]; pop rbx; ret; 
94187788300202: lea rax, qword ptr [rip + 0xae151]; pop rbx; ret; 
94187788300201: lea rax, qword ptr [rip + 0xae151]; pop rbx; ret; 
94187788300200: mov dword ptr [rbx + 0x40], eax; lea rax, qword ptr [rip + 0xae151]; pop rbx; ret; 
94187788300199: add byte ptr [rcx - 0x72b7bfbd], cl; add eax, 0xae151; pop rbx; ret; 
94187788300198: add byte ptr [rax], al; mov dword ptr [rbx + 0x40], eax; lea rax, qword ptr [rip + 0xae151]; pop rbx; ret; 
94187788300197: add byte ptr [rax], al; add byte ptr [rcx - 0x72b7bfbd], cl; add eax, 0xae151; pop rbx; ret; 
94187788300238: ret; 
94187788297215: jmp rax; 
94187788297280: jmp rax; 
94187788297120: jmp qword ptr [rsi + 0x2e]; 
94187788297364: jmp qword ptr [rsi + 0x2e]; 
94187788297846: jmp qword ptr [rsi + 0xf]; 
94187788297938: jmp qword ptr [rsi + 0x66]; 
94187788297936: out 0xff, eax; jmp qword ptr [rsi + 0x66]; 
94187788298609: jmp qword ptr [rsi + 0xf]; 
94187788298606: imul edi, esi, -1; jmp qword ptr [rsi + 0xf]; 
94187788298604: add cl, ch; imul edi, esi, -1; jmp qword ptr [rsi + 0xf]; 
94187788298602: adc dword ptr [rax], eax; add cl, ch; imul edi, esi, -1; jmp qword ptr [rsi + 0xf]; 
94187788298599: shr al, 0x13; adc dword ptr [rax], eax; add cl, ch; imul edi, esi, -1; jmp qword ptr [rsi + 0xf]; 
94187788298645: jmp qword ptr [rsi + 0x2e]; 
94187788299033: jmp qword ptr [rsi + 0xf]; 
94187788299241: jmp qword ptr [rsi + 0xf]; 
94187788299273: jmp qword ptr [rsi + 0xf]; 
94187788300067: jmp qword ptr [rsi + 0x66]; 
94187788296193: ret 0xf; 
94187788296205: ret 0xf; 
94187788296217: ret 0xf; 
94187788298032: ret 0x4801; 
94187788298029: adc cl, byte ptr [rax - 0x7d]; ret 0x4801; 
94187788298027: cmp eax, 0x83481274; ret 0x4801; 
94187788298025: cmp al, 0x16; cmp eax, 0x83481274; ret 0x4801; 
94187788298023: add byte ptr [rax + 0x743d163c], al; adc cl, byte ptr [rax - 0x7d]; ret 0x4801; 
94187788298022: add byte ptr [rax + 0x743d163c], al; adc cl, byte ptr [rax - 0x7d]; ret 0x4801; 
94187788299236: ret 0xc6e9; 
94187788299268: ret 0xa6e9; 
94187788299465: ret 0x8548; 
94187788299462: add byte ptr [rax - 0x77], cl; ret 0x8548; 
94187788299920: ret 0x4c01; 
94187788299917: or byte ptr [rcx - 0x7d], cl; ret 0x4c01; 
94187788300019: ret 0x86eb; 
94187788300142: ret 0x4389; 
94187788300139: add byte ptr [rax - 0x77], cl; ret 0x4389; 
94187788533803: ret; 
94187788533800: fmul dword ptr [rax - 0x7d]; ret; 
94187788533868: ret; 
94187788533867: pop rsp; ret; 
94187788533866: pop r12; ret; 
94187788533865: pop rbp; pop r12; ret; 
94187788533864: pop rbx; pop rbp; pop r12; ret; 
94187788533863: add byte ptr [rbx + 0x5d], bl; pop r12; ret; 
94187788533862: add byte ptr [rax], al; pop rbx; pop rbp; pop r12; ret; 
94187788533861: add byte ptr [rax], r8b; pop rbx; pop rbp; pop r12; ret; 
94187788533859: nop dword ptr [rax + rax]; pop rbx; pop rbp; pop r12; ret; 
94187788533858: nop word ptr [rax + rax]; pop rbx; pop rbp; pop r12; ret; 
94187788533918: ret; 
94187788533915: add byte ptr [rax - 0x77], cl; ret; 
94187788533913: add byte ptr [rax], al; add byte ptr [rax - 0x77], cl; ret; 
94187788533950: ret; 
94187788533949: pop rbp; ret; 
94187788533948: pop rbx; pop rbp; ret; 
94187788533947: fcomp dword ptr [rbx + 0x5d]; ret; 
94187788533946: mov eax, ebx; pop rbx; pop rbp; ret; 
94187788533945: mov rax, rbx; pop rbx; pop rbp; ret; 
94187788533944: or byte ptr [rax - 0x77], cl; fcomp dword ptr [rbx + 0x5d]; ret; 
94187788533942: add esp, 8; mov rax, rbx; pop rbx; pop rbp; ret; 
94187788533941: add rsp, 8; mov rax, rbx; pop rbx; pop rbp; ret; 
94187788533963: ret; 
94187788533962: pop rbp; ret; 
94187788533961: pop rbx; pop rbp; ret; 
94187788533960: fcomp dword ptr [rbx + 0x5d]; ret; 
94187788533959: mov eax, ebx; pop rbx; pop rbp; ret; 
94187788533958: mov rax, rbx; pop rbx; pop rbp; ret; 
94187788533957: or byte ptr [rax - 0x77], cl; fcomp dword ptr [rbx + 0x5d]; ret; 
94187788533955: add esp, 8; mov rax, rbx; pop rbx; pop rbp; ret; 
94187788533954: add rsp, 8; mov rax, rbx; pop rbx; pop rbp; ret; 
94187788534002: ret; 
94187788534000: xor eax, eax; ret; 
94187788533998: add byte ptr [rax], al; xor eax, eax; ret; 
94187788533996: add byte ptr [rax], al; add byte ptr [rax], al; xor eax, eax; ret; 
94187788533994: test byte ptr [rax], al; add byte ptr [rax], al; add byte ptr [rax], al; xor eax, eax; ret; 
94187788533992: nop dword ptr [rax + rax]; xor eax, eax; ret; 
94187788533991: nop word ptr [rax + rax]; xor eax, eax; ret; 
94187788534068: ret; 
94187788534067: pop rbp; ret; 
94187788534066: pop rbx; pop rbp; ret; 
94187788534065: sbb byte ptr [rbx + 0x5d], bl; ret; 
94187788534063: add esp, 0x18; pop rbx; pop rbp; ret; 
94187788534062: add rsp, 0x18; pop rbx; pop rbp; ret; 
94187788534061: push rbx; add rsp, 0x18; pop rbx; pop rbp; ret; 
94187788534059: add byte ptr [rbp + 0x53], dh; add rsp, 0x18; pop rbx; pop rbp; ret; 
94187788534194: ret; 
94187788534192: mov dword ptr [rax], ecx; ret; 
94187788534191: mov qword ptr [rax], rcx; ret; 
94187788534189: or al, byte ptr [rax]; mov qword ptr [rax], rcx; ret; 
94187788534186: add eax, 0xa7dd1; mov qword ptr [rax], rcx; ret; 
94187788534185: mov eax, dword ptr [rip + 0xa7dd1]; mov qword ptr [rax], rcx; ret; 
94187788534184: mov rax, qword ptr [rip + 0xa7dd1]; mov qword ptr [rax], rcx; ret; 
94187788534183: adc byte ptr [rax - 0x75], cl; add eax, 0xa7dd1; mov qword ptr [rax], rcx; ret; 
94187788534182: mov dword ptr [rax], edx; mov rax, qword ptr [rip + 0xa7dd1]; mov qword ptr [rax], rcx; ret; 
94187788534181: mov qword ptr [rax], rdx; mov rax, qword ptr [rip + 0xa7dd1]; mov qword ptr [rax], rcx; ret; 
94187788534180: dec dword ptr [rax - 0x77]; adc byte ptr [rax - 0x75], cl; add eax, 0xa7dd1; mov qword ptr [rax], rcx; ret; 
94187788534176: or eax, 0xfffffc5b; mov qword ptr [rax], rdx; mov rax, qword ptr [rip + 0xa7dd1]; mov qword ptr [rax], rcx; ret; 
94187788534175: lea ecx, dword ptr [rip - 0x3a5]; mov qword ptr [rax], rdx; mov rax, qword ptr [rip + 0xa7dd1]; mov qword ptr [rax], rcx; ret; 
94187788534174: lea rcx, qword ptr [rip - 0x3a5]; mov qword ptr [rax], rdx; mov rax, qword ptr [rip + 0xa7dd1]; mov qword ptr [rax], rcx; ret; 
94187788534425: ret; 
94187788534424: pop rbp; ret; 
94187788534423: pop rbx; pop rbp; ret; 
94187788534422: sub byte ptr [rbx + 0x5d], bl; ret; 
94187788534420: add esp, 0x28; pop rbx; pop rbp; ret; 
94187788534419: add rsp, 0x28; pop rbx; pop rbp; ret; 
94187788534417: add byte ptr [rax], al; add rsp, 0x28; pop rbx; pop rbp; ret; 
94187788534546: ret; 
94187788534543: shr al, 0x6b; ret; 
94187788534541: fnstenv dword ptr [rcx]; shr al, 0x6b; ret; 
94187788534610: ret; 
94187788534607: shr al, 0x2b; ret; 
94187788534605: add byte ptr [rcx], dh; shr al, 0x2b; ret; 
94187788534856: ret; 
94187788534855: pop rsi; ret; 
94187788534854: pop r14; ret; 
94187788534853: pop rbp; pop r14; ret; 
94187788534852: pop r13; pop r14; ret; 
94187788534851: pop rsp; pop r13; pop r14; ret; 
94187788534850: pop r12; pop r13; pop r14; ret; 
94187788534849: pop rbp; pop r12; pop r13; pop r14; ret; 
94187788534848: call 0x55aa0f09c5a2; pop rbp; pop r14; ret; 
94187788535185: ret; 
94187788535184: pop rdi; ret; 
94187788535183: pop r15; ret; 
94187788535182: pop rsi; pop r15; ret; 
94187788535181: pop r14; pop r15; ret; 
94187788535180: pop rbp; pop r14; pop r15; ret; 
94187788535179: pop r13; pop r14; pop r15; ret; 
94187788535178: pop rsp; pop r13; pop r14; pop r15; ret; 
94187788535177: pop r12; pop r13; pop r14; pop r15; ret; 
94187788535210: ret; 
94187788535208: xor eax, eax; ret; 
94187788535206: add byte ptr [rax], al; xor eax, eax; ret; 
94187788535204: add byte ptr [rax], al; add byte ptr [rax], al; xor eax, eax; ret; 
94187788535203: add byte ptr [rax], 0; add byte ptr [rax], al; xor eax, eax; ret; 
94187788535201: nop dword ptr [rax]; xor eax, eax; ret; 
94187788535261: ret; 
94187788535258: setne al; ret; 
94187788535256: test dl, dl; setne al; ret; 
94187788535254: xor eax, eax; test dl, dl; setne al; ret; 
94187788535274: ret; 
94187788535272: neg eax; ret; 
94187788535271: neg rax; ret; 
94187788535270: ror byte ptr [rax - 9], 0xd8; ret; 
94187788535269: xchg eax, esp; ror byte ptr [rax - 9], 0xd8; ret; 
94187788535268: sete al; neg rax; ret; 
94187788535267: ror byte ptr [rdi], cl; xchg eax, esp; ror byte ptr [rax - 9], 0xd8; ret; 
94187788535266: test dl, dl; sete al; neg rax; ret; 
94187788535264: xor eax, eax; test dl, dl; sete al; neg rax; ret; 
94187788535374: ret; 
94187788535373: pop rbp; ret; 
94187788535372: pop rbx; pop rbp; ret; 
94187788535370: mov dh, 0xc0; pop rbx; pop rbp; ret; 
94187788535369: movzx eax, al; pop rbx; pop rbp; ret; 
94187788535368: or byte ptr [rdi], cl; mov dh, 0xc0; pop rbx; pop rbp; ret; 
94187788535366: add esp, 8; movzx eax, al; pop rbx; pop rbp; ret; 
94187788535365: add rsp, 8; movzx eax, al; pop rbx; pop rbp; ret; 
94187788535387: ret; 
94187788535386: pop rbp; ret; 
94187788535385: pop rbx; pop rbp; ret; 
94187788535384: or byte ptr [rbx + 0x5d], bl; ret; 
94187788535382: add esp, 8; pop rbx; pop rbp; ret; 
94187788535381: add rsp, 8; pop rbx; pop rbp; ret; 
94187788535378: and eax, 1; add rsp, 8; pop rbx; pop rbp; ret; 
94187788535454: ret; 
94187788535453: pop rbp; ret; 
94187788535452: pop rbx; pop rbp; ret; 
94187788535451: cwde; pop rbx; pop rbp; ret; 
94187788535450: cdqe; pop rbx; pop rbp; ret; 
94187788535449: or byte ptr [rax - 0x68], cl; pop rbx; pop rbp; ret; 
94187788535447: add esp, 8; cdqe; pop rbx; pop rbp; ret; 
94187788535446: add rsp, 8; cdqe; pop rbx; pop rbp; ret; 
94187788535863: ret; 
94187788535862: pop rsi; ret; 
94187788535861: pop r14; ret; 
94187788535860: pop rbp; pop r14; ret; 
94187788535859: pop r13; pop r14; ret; 
94187788535858: pop rsp; pop r13; pop r14; ret; 
94187788535857: pop r12; pop r13; pop r14; ret; 
94187788535856: pop rbp; pop r12; pop r13; pop r14; ret; 
94187788535993: ret; 
94187788535990: sbb byte ptr [rax - 0x77], cl; ret; 
94187788536284: ret; 
94187788536283: pop rdi; ret; 
94187788536282: pop r15; ret; 
94187788536281: pop rsi; pop r15; ret; 
94187788536280: pop r14; pop r15; ret; 
94187788536279: pop rbp; pop r14; pop r15; ret; 
94187788536278: pop r13; pop r14; pop r15; ret; 
94187788536277: pop rsp; pop r13; pop r14; pop r15; ret; 
94187788536276: pop r12; pop r13; pop r14; pop r15; ret; 
94187788536357: ret; 
94187788536354: add esp, 8; ret; 
94187788536353: add rsp, 8; ret; 
94187788536350: sar esp, -1; add rsp, 8; ret; 
94187788536349: iretd; sar esp, -1; add rsp, 8; ret; 
94187788536348: call 0x55a9cdaa4bf0; add rsp, 8; ret; 
94187788536347: or al, ch; iretd; sar esp, -1; add rsp, 8; ret; 
94187788536345: mov edi, dword ptr [rdi + 8]; call 0x55a9cdaa4bf0; add rsp, 8; ret; 
94187788536344: mov rdi, qword ptr [rdi + 8]; call 0x55a9cdaa4bf0; add rsp, 8; ret; 
94187788536341: mov esi, dword ptr [rsi + 8]; mov rdi, qword ptr [rdi + 8]; call 0x55a9cdaa4bf0; add rsp, 8; ret; 
94187788536340: mov rsi, qword ptr [rsi + 8]; mov rdi, qword ptr [rdi + 8]; call 0x55a9cdaa4bf0; add rsp, 8; ret; 
94187788536915: ret; 
94187788536914: pop rdi; ret; 
94187788536913: pop r15; ret; 
94187788536912: pop rsi; pop r15; ret; 
94187788536911: pop r14; pop r15; ret; 
94187788536910: pop rbp; pop r14; pop r15; ret; 
94187788536909: pop r13; pop r14; pop r15; ret; 
94187788536908: pop rsp; pop r13; pop r14; pop r15; ret; 
94187788536907: pop r12; pop r13; pop r14; pop r15; ret; 
94187788537109: ret; 
94187788537256: ret; 
94187788537312: ret; 
94187788537310: neg eax; ret; 
94187788537309: neg rax; ret; 
94187788537308: pop rsi; neg rax; ret; 
94187788537307: pop r14; neg rax; ret; 
94187788537306: pop rbp; pop r14; neg rax; ret; 
94187788537305: pop r13; pop r14; neg rax; ret; 
94187788537304: rol byte ptr [rcx + 0x5d], 0x41; pop rsi; neg rax; ret; 
94187788537303: mov dh, 0xc0; pop r13; pop r14; neg rax; ret; 
94187788537302: movzx eax, al; pop r13; pop r14; neg rax; ret; 
94187788537385: ret; 
94187788537384: pop rsi; ret; 
94187788537383: pop r14; ret; 
94187788537382: pop rbp; pop r14; ret; 
94187788537381: pop r13; pop r14; ret; 
94187788537380: pop rsp; pop r13; pop r14; ret; 
94187788537379: pop r12; pop r13; pop r14; ret; 
94187788537378: pop rbp; pop r12; pop r13; pop r14; ret; 
94187788537377: lcall ptr [rbp + 0x41]; pop rsp; pop r13; pop r14; ret; 
94187788537394: ret; 
94187788537392: xor eax, eax; ret; 
94187788537390: add byte ptr [rax], al; xor eax, eax; ret; 
94187788537389: add byte ptr [rax], r8b; xor eax, eax; ret; 
94187788537387: nop dword ptr [rax + rax]; xor eax, eax; ret; 
94187788537386: nop word ptr [rax + rax]; xor eax, eax; ret; 
94187788537385: ret; 
94187788537500: ret; 
94187788537499: pop rdi; ret; 
94187788537498: pop r15; ret; 
94187788537497: pop rsi; pop r15; ret; 
94187788537496: pop r14; pop r15; ret; 
94187788537495: pop rbp; pop r14; pop r15; ret; 
94187788537494: pop r13; pop r14; pop r15; ret; 
94187788537493: pop rsp; pop r13; pop r14; pop r15; ret; 
94187788537492: pop r12; pop r13; pop r14; pop r15; ret; 
94187788537526: ret; 
94187788537523: dec dword ptr [rax - 0x77]; ret; 
94187788537522: cld; dec dword ptr [rax - 0x77]; ret; 
94187788537520: sbb al, 0x7e; cld; dec dword ptr [rax - 0x77]; ret; 
94187788537736: call rax; 
94187788537734: xor al, 0xe2; call rax; 
94187788537733: lea esi, dword ptr [rdx]; call rax; 
94187788537732: lea r14, qword ptr [rdx + r12*8]; call rax; 
94187788537731: dec dword ptr [rsi - 0x73]; xor al, 0xe2; call rax; 
94187788537730: mov edi, edi; lea r14, qword ptr [rdx + r12*8]; call rax; 
94187788537729: mov rdi, r15; lea r14, qword ptr [rdx + r12*8]; call rax; 
94187788537728: adc ecx, dword ptr [rcx + rcx*4 - 1]; lea r14, qword ptr [rdx + r12*8]; call rax; 
94187788537727: mov edx, dword ptr [rbx]; mov rdi, r15; lea r14, qword ptr [rdx + r12*8]; call rax; 
94187788537726: mov rdx, qword ptr [rbx]; mov rdi, r15; lea r14, qword ptr [rdx + r12*8]; call rax; 
94187788537725: sbb eax, 0x4c138b48; mov edi, edi; lea r14, qword ptr [rdx + r12*8]; call rax; 
94187788537723: sal byte ptr [rbp + rbx + 0x48], 0x8b; adc ecx, dword ptr [rcx + rcx*4 - 1]; lea r14, qword ptr [rdx + r12*8]; call rax; 
94187788537720: adc byte ptr [rax - 0x7b], cl; sal byte ptr [rbp + rbx + 0x48], 0x8b; adc ecx, dword ptr [rcx + rcx*4 - 1]; lea r14, qword ptr [rdx + r12*8]; call rax; 
94187788537719: adc byte ptr [r8 - 0x7b], r9b; sal byte ptr [rbp + rbx + 0x48], 0x8b; adc ecx, dword ptr [rcx + rcx*4 - 1]; lea r14, qword ptr [rdx + r12*8]; call rax; 
94187788537775: call rax; 
94187788537773: xor al, 0xe2; call rax; 
94187788537772: lea esi, dword ptr [rdx]; call rax; 
94187788537771: lea r14, qword ptr [rdx + r12*8]; call rax; 
94187788537770: dec dword ptr [rsi - 0x73]; xor al, 0xe2; call rax; 
94187788537769: mov edi, edi; lea r14, qword ptr [rdx + r12*8]; call rax; 
94187788537768: mov rdi, r15; lea r14, qword ptr [rdx + r12*8]; call rax; 
94187788537767: or byte ptr [rcx + rcx*4 - 1], cl; lea r14, qword ptr [rdx + r12*8]; call rax; 
94187788537766: push rbx; or byte ptr [rcx + rcx*4 - 1], cl; lea r14, qword ptr [rdx + r12*8]; call rax; 
94187788537765: mov edx, dword ptr [rbx + 8]; mov rdi, r15; lea r14, qword ptr [rdx + r12*8]; call rax; 
94187788537764: mov rdx, qword ptr [rbx + 8]; mov rdi, r15; lea r14, qword ptr [rdx + r12*8]; call rax; 
94187788537761: sal byte ptr [rdi + rbx + 0x48], 0x8b; push rbx; or byte ptr [rcx + rcx*4 - 1], cl; lea r14, qword ptr [rdx + r12*8]; call rax; 
94187788537815: call rax; 
94187788537813: sub al, 0xe2; call rax; 
94187788537812: lea ebp, dword ptr [rdx]; call rax; 
94187788537811: lea r13, qword ptr [rdx + r12*8]; call rax; 
94187788537810: dec dword ptr [rsi - 0x73]; sub al, 0xe2; call rax; 
94187788537809: mov edi, edi; lea r13, qword ptr [rdx + r12*8]; call rax; 
94187788537808: mov rdi, r15; lea r13, qword ptr [rdx + r12*8]; call rax; 
94187788537807: adc byte ptr [rcx + rcx*4 - 1], cl; lea r13, qword ptr [rdx + r12*8]; call rax; 
94187788537806: push rbx; adc byte ptr [rcx + rcx*4 - 1], cl; lea r13, qword ptr [rdx + r12*8]; call rax; 
94187788537805: mov edx, dword ptr [rbx + 0x10]; mov rdi, r15; lea r13, qword ptr [rdx + r12*8]; call rax; 
94187788537804: mov rdx, qword ptr [rbx + 0x10]; mov rdi, r15; lea r13, qword ptr [rdx + r12*8]; call rax; 
94187788537803: and byte ptr [rax - 0x75], cl; push rbx; adc byte ptr [rcx + rcx*4 - 1], cl; lea r13, qword ptr [rdx + r12*8]; call rax; 
94187788537801: sal byte ptr [rax + 0x48], 0x8b; push rbx; adc byte ptr [rcx + rcx*4 - 1], cl; lea r13, qword ptr [rdx + r12*8]; call rax; 
94187788533762: jmp qword ptr [rsi + 0x66]; 
94187788533761: cld; jmp qword ptr [rsi + 0x66]; 
94187788533760: cld; jmp qword ptr [rsi + 0x66]; 
94187788533990: jmp qword ptr [rsi + 0xf]; 
94187788533989: cld; jmp qword ptr [rsi + 0xf]; 
94187788533988: mov bh, ah; jmp qword ptr [rsi + 0xf]; 
94187788534149: jmp qword ptr [rsi + 0x2e]; 
94187788534148: cld; jmp qword ptr [rsi + 0x2e]; 
94187788534147: cld; jmp qword ptr [rsi + 0x2e]; 
94187788534146: or cl, byte ptr [rbp - 4]; jmp qword ptr [rsi + 0x2e]; 
94187788534755: jmp qword ptr [rsi + 0x66]; 
94187788534754: cld; jmp qword ptr [rsi + 0x66]; 
94187788534753: cld; jmp qword ptr [rsi + 0x66]; 
94187788534752: lodsb al, byte ptr [rsi]; cld; jmp qword ptr [rsi + 0x66]; 
94187788535526: jmp qword ptr [rsi + 0xf]; 
94187788536313: jmp qword ptr [rsi + 0xf]; 
94187788536989: jmp qword ptr [rsi - 0x70]; 
94187788536988: cld; jmp qword ptr [rsi - 0x70]; 
94187788536987: cld; jmp qword ptr [rsi - 0x70]; 
94187788536986: cld; jmp qword ptr [rsi - 0x70]; 
94187788535089: call qword ptr [rbp + 0x38]; 
94187788535087: mov esi, dword ptr [rax]; call qword ptr [rbp + 0x38]; 
94187788535086: mov rsi, qword ptr [rax]; call qword ptr [rbp + 0x38]; 
94187788535085: and al, 0x48; mov esi, dword ptr [rax]; call qword ptr [rbp + 0x38]; 
94187788535084: add al, 0x24; mov rsi, qword ptr [rax]; call qword ptr [rbp + 0x38]; 
94187788535083: mov eax, dword ptr [rsp]; mov rsi, qword ptr [rax]; call qword ptr [rbp + 0x38]; 
94187788535082: mov rax, qword ptr [rsp]; mov rsi, qword ptr [rax]; call qword ptr [rbp + 0x38]; 
94187788535081: cmp byte ptr [rax - 0x75], cl; add al, 0x24; mov rsi, qword ptr [rax]; call qword ptr [rbp + 0x38]; 
94187788535080: adc al, 0x38; mov rax, qword ptr [rsp]; mov rsi, qword ptr [rax]; call qword ptr [rbp + 0x38]; 
94187788535079: mov edx, dword ptr [rax + rdi]; mov rax, qword ptr [rsp]; mov rsi, qword ptr [rax]; call qword ptr [rbp + 0x38]; 
94187788535078: mov rdx, qword ptr [rax + r15]; mov rax, qword ptr [rsp]; mov rsi, qword ptr [rax]; call qword ptr [rbp + 0x38]; 
94187788535077: adc byte ptr [rdx - 0x75], cl; adc al, 0x38; mov rax, qword ptr [rsp]; mov rsi, qword ptr [rax]; call qword ptr [rbp + 0x38]; 
94187788535076: and al, 0x10; mov rdx, qword ptr [rax + r15]; mov rax, qword ptr [rsp]; mov rsi, qword ptr [rax]; call qword ptr [rbp + 0x38]; 
94187788535075: and al, 0x10; mov rdx, qword ptr [rax + r15]; mov rax, qword ptr [rsp]; mov rsi, qword ptr [rax]; call qword ptr [rbp + 0x38]; 
94187788535074: mov dword ptr [rsp + 0x10], eax; mov rdx, qword ptr [rax + r15]; mov rax, qword ptr [rsp]; mov rsi, qword ptr [rax]; call qword ptr [rbp + 0x38]; 
94187788535073: mov qword ptr [r12 + 0x10], rax; mov rdx, qword ptr [rax + r15]; mov rax, qword ptr [rsp]; mov rsi, qword ptr [rax]; call qword ptr [rbp + 0x38]; 
94187788534116: ret 7; 
94187788534115: leave; ret 7; 
94187788534111: mov esp, 0xc90d8d48; ret 7; 
94187788534520: ret 7; 
94187788534603: ret 7; 
94187788534650: ret 7; 
94187788534655: ret 0xfffc; 
94187788534650: ret 7; 
94187788534728: ret 0xfffc; 
94187788534725: shr al, 0xb5; ret 0xfffc; 
94187788534723: add byte ptr [rcx], dh; shr al, 0xb5; ret 0xfffc; 
94187788535242: ret 0x7508; 
94187788535240: push rsi; ret 0x7508; 
94187788535313: ret 0xe283; 
94187788535337: ret 0x5475; 
94187788535335: add al, 0x89; ret 0x5475; 
94187788535329: add byte ptr [rbx - 0x1e7cfb20], al; add al, 0x89; ret 0x5475; 
94187788535327: add byte ptr [rax], al; add byte ptr [rbx - 0x1e7cfb20], al; add al, 0x89; ret 0x5475; 
94187788535482: ret 0xe801; 
94187788535479: or byte ptr [rax - 0x7d], cl; ret 0xe801; 
94187788536539: ret 0x8548; 
94187788536536: dec dword ptr [rax - 0x77]; ret 0x8548; 
94187788536650: ret 0xfc7f; 
94187788536648: add al, ch; ret 0xfc7f; 
94187788536646: add byte ptr [rax], al; add al, ch; ret 0xfc7f; 
94187788536978: ret 0xffff; 
94187788536975: add byte ptr [rax - 0x39], cl; ret 0xffff; 
94187788536974: add byte ptr [rax - 0x39], cl; ret 0xffff; 
94187788540010: ret; 
94187788540007: sbb byte ptr [rax - 0x7d], cl; ret; 
94187788540016: ret; 
94187788540010: ret; 
94187788541066: ret; 
94187788541063: add dword ptr [rax - 0x7d], ecx; ret; 
94187788541061: and al, 0x10; add dword ptr [rax - 0x7d], ecx; ret; 
94187788541060: and al, 0x10; add dword ptr [rax - 0x7d], ecx; ret; 
94187788541057: sub byte ptr [rax - 0x7d], cl; and al, 0x10; add dword ptr [rax - 0x7d], ecx; ret; 
94187788541627: ret; 
94187788541624: dec dword ptr [rax - 0x77]; ret; 
94187788541623: std; dec dword ptr [rax - 0x77]; ret; 
94187788541622: std; dec dword ptr [rax - 0x77]; ret; 
94187788540322: jmp rdx; 
94187788540320: add edx, ebx; jmp rdx; 
94187788540319: add rdx, r11; jmp rdx; 
94187788540318: xchg eax, ebx; add rdx, r11; jmp rdx; 
94187788540317: adc al, 0x93; add rdx, r11; jmp rdx; 
94187788540315: movsxd rdx, dword ptr [r11 + rdx*4]; add rdx, r11; jmp rdx; 
94187788540314: add byte ptr [rcx + 0x63], cl; adc al, 0x93; add rdx, r11; jmp rdx; 
94187788540313: add byte ptr [rax], al; movsxd rdx, dword ptr [r11 + rdx*4]; add rdx, r11; jmp rdx; 
94187788540312: add byte ptr [rax], al; add byte ptr [rcx + 0x63], cl; adc al, 0x93; add rdx, r11; jmp rdx; 
94187788540311: in al, 0; add byte ptr [rax], al; movsxd rdx, dword ptr [r11 + rdx*4]; add rdx, r11; jmp rdx; 
94187788538033: call rax; 
94187788538031: mov edi, edi; call rax; 
94187788538030: mov rdi, r15; call rax; 
94187788538029: adc cl, byte ptr [rcx + rcx*4 - 1]; call rax; 
94187788538471: call rax; 
94187788538469: xor al, 0xf2; call rax; 
94187788538468: mov esi, dword ptr [rdx + rsi*8]; call rax; 
94187788538467: mov rsi, qword ptr [rdx + rsi*8]; call rax; 
94187788538466: dec dword ptr [rax - 0x75]; xor al, 0xf2; call rax; 
94187788538465: mov edi, edi; mov rsi, qword ptr [rdx + rsi*8]; call rax; 
94187788538464: mov rdi, r15; mov rsi, qword ptr [rdx + rsi*8]; call rax; 
94187788538462: mov edx, dword ptr [rdi]; mov rdi, r15; mov rsi, qword ptr [rdx + rsi*8]; call rax; 
94187788538461: mov rdx, qword ptr [rdi]; mov rdi, r15; mov rsi, qword ptr [rdx + rsi*8]; call rax; 
94187788538459: and al, 0x10; mov rdx, qword ptr [rdi]; mov rdi, r15; mov rsi, qword ptr [rdx + rsi*8]; call rax; 
94187788538457: mov esi, dword ptr [rsp + 0x10]; mov rdx, qword ptr [rdi]; mov rdi, r15; mov rsi, qword ptr [rdx + rsi*8]; call rax; 
94187788538456: mov rsi, qword ptr [rsp + 0x10]; mov rdx, qword ptr [rdi]; mov rdi, r15; mov rsi, qword ptr [rdx + rsi*8]; call rax; 
94187788538628: call rax; 
94187788538626: adc al, 0x22; call rax; 
94187788538625: mov edx, dword ptr [rdx]; call rax; 
94187788538624: mov rdx, qword ptr [rdx + r12]; call rax; 
94187788538623: or byte ptr [rdx - 0x75], cl; adc al, 0x22; call rax; 
94187788538622: push rdx; or byte ptr [rdx - 0x75], cl; adc al, 0x22; call rax; 
94187788538621: mov edx, dword ptr [rdx + 8]; mov rdx, qword ptr [rdx + r12]; call rax; 
94187788538620: mov rdx, qword ptr [rdx + 8]; mov rdx, qword ptr [rdx + r12]; call rax; 
94187788538619: xor dword ptr [rax - 0x75], ecx; push rdx; or byte ptr [rdx - 0x75], cl; adc al, 0x22; call rax; 
94187788538618: mov esi, dword ptr [rcx]; mov rdx, qword ptr [rdx + 8]; mov rdx, qword ptr [rdx + r12]; call rax; 
94187788538617: mov rsi, qword ptr [rcx]; mov rdx, qword ptr [rdx + 8]; mov rdx, qword ptr [rdx + r12]; call rax; 
94187788538691: call rax; 
94187788538689: adc al, 0x22; call rax; 
94187788538688: mov edx, dword ptr [rdx]; call rax; 
94187788538687: mov rdx, qword ptr [rdx + r12]; call rax; 
94187788538686: adc byte ptr [rdx - 0x75], cl; adc al, 0x22; call rax; 
94187788538685: push rdx; adc byte ptr [rdx - 0x75], cl; adc al, 0x22; call rax; 
94187788538684: mov edx, dword ptr [rdx + 0x10]; mov rdx, qword ptr [rdx + r12]; call rax; 
94187788538683: mov rdx, qword ptr [rdx + 0x10]; mov rdx, qword ptr [rdx + r12]; call rax; 
94187788538682: sub byte ptr [rax - 0x75], cl; push rdx; adc byte ptr [rdx - 0x75], cl; adc al, 0x22; call rax; 
94187788539982: call rax; 
94187788539980: mov edi, edi; call rax; 
94187788539979: mov rdi, r15; call rax; 
94187788539978: adc cl, byte ptr [rcx + rcx*4 - 1]; call rax; 
94187788538738: ret 0x8b48; 
94187788540196: ret 0x8948; 
94187788540195: xchg eax, ebp; ret 0x8948; 
94187788540193: fisttp dword ptr [rdi]; xchg eax, ebp; ret 0x8948; 
94187788540190: dec dword ptr [rax - 0x7b]; fisttp dword ptr [rdi]; xchg eax, ebp; ret 0x8948; 
94187788540230: ret 0x4828; 
94187788540227: add cl, byte ptr [rax - 0x7d]; ret 0x4828; 
94187788540224: add byte ptr [rax + 3], cl; add cl, byte ptr [rax - 0x7d]; ret 0x4828; 
94187788540222: add byte ptr [rax], al; add byte ptr [rax + 3], cl; add cl, byte ptr [rax - 0x7d]; ret 0x4828; 
94187788540221: lock add byte ptr [rax], al; add byte ptr [rax + 3], cl; add cl, byte ptr [rax - 0x7d]; ret 0x4828; 
94187788540220: xchg eax, edi; lock add byte ptr [rax], al; add byte ptr [rax + 3], cl; add cl, byte ptr [rax - 0x7d]; ret 0x4828; 
94187788541465: ret 0x4820; 
94187788541462: add dword ptr [rax - 0x7d], ecx; ret 0x4820; 
94187788640289: ret; 
94187788640286: add esp, 0x28; ret; 
94187788640285: add rsp, 0x28; ret; 
94187788640282: add byte ptr [rbp + 0x38], dh; add rsp, 0x28; ret; 
94187788640280: add byte ptr [rax], al; add byte ptr [rbp + 0x38], dh; add rsp, 0x28; ret; 
94187788640562: ret; 
94187788640561: pop rdi; ret; 
94187788640560: pop r15; ret; 
94187788640559: pop rsi; pop r15; ret; 
94187788640558: pop r14; pop r15; ret; 
94187788640557: pop rbp; pop r14; pop r15; ret; 
94187788640556: pop r13; pop r14; pop r15; ret; 
94187788640555: pop rsp; pop r13; pop r14; pop r15; ret; 
94187788640554: pop r12; pop r13; pop r14; pop r15; ret; 
94187788640609: ret; 
94187788640606: sbb byte ptr [rax - 0x77], cl; ret; 
94187788640605: pop rsi; sbb byte ptr [rax - 0x77], cl; ret; 
94187788640602: adc byte ptr [rcx - 0x77], cl; pop rsi; sbb byte ptr [rax - 0x77], cl; ret; 
94187788640601: adc byte ptr [rcx - 0x77], r9b; pop rsi; sbb byte ptr [rax - 0x77], cl; ret; 
94187788640598: xor byte ptr [rcx - 0x77], cl; adc byte ptr [rcx - 0x77], r9b; pop rsi; sbb byte ptr [rax - 0x77], cl; ret; 
94187788640676: ret; 
94187788640673: add dword ptr [rax - 0x7d], ecx; ret; 
94187788641002: ret; 
94187788640999: add byte ptr [rax - 0x7d], cl; ret; 
94187788641145: ret; 
94187788641142: add byte ptr [rax - 0x7d], cl; ret; 
94187788641140: add byte ptr [rax], al; add byte ptr [rax - 0x7d], cl; ret; 
94187788641217: ret; 
94187788641216: pop rdi; ret; 
94187788641215: pop r15; ret; 
94187788641214: pop rsi; pop r15; ret; 
94187788641213: pop r14; pop r15; ret; 
94187788641212: pop rbp; pop r14; pop r15; ret; 
94187788641211: pop r13; pop r14; pop r15; ret; 
94187788641210: pop rsp; pop r13; pop r14; pop r15; ret; 
94187788641209: pop r12; pop r13; pop r14; pop r15; ret; 
94187788641493: ret; 
94187788641490: add dword ptr [rax - 0x7d], ecx; ret; 
94187788641514: ret; 
94187788641513: pop rsi; ret; 
94187788641512: pop r14; ret; 
94187788641511: pop rbp; pop r14; ret; 
94187788641510: pop r13; pop r14; ret; 
94187788641509: pop rsp; pop r13; pop r14; ret; 
94187788641508: pop r12; pop r13; pop r14; ret; 
94187788641507: pop rbp; pop r12; pop r13; pop r14; ret; 
94187788641758: ret; 
94187788641755: add ecx, dword ptr [rax - 0x7d]; ret; 
94187788641754: outsd dx, dword ptr [rsi]; add ecx, dword ptr [rax - 0x7d]; ret; 
94187788641829: ret; 
94187788641828: pop rsp; ret; 
94187788641827: pop r12; ret; 
94187788641826: pop rbp; pop r12; ret; 
94187788641825: pop rbx; pop rbp; pop r12; ret; 
94187788641823: mov eax, esp; pop rbx; pop rbp; pop r12; ret; 
94187788641822: mov rax, r12; pop rbx; pop rbp; pop r12; ret; 
94187788641821: dec dword ptr [rcx + rcx*4 - 0x20]; pop rbx; pop rbp; pop r12; ret; 
94187788642014: ret; 
94187788642011: add dword ptr [rax - 0x7d], ecx; ret; 
94187788642251: ret; 
94187788642545: ret; 
94187788642544: pop rdi; ret; 
94187788642543: pop r15; ret; 
94187788642542: pop rsi; pop r15; ret; 
94187788642541: pop r14; pop r15; ret; 
94187788642540: pop rbp; pop r14; pop r15; ret; 
94187788642539: pop r13; pop r14; pop r15; ret; 
94187788642538: pop rsp; pop r13; pop r14; pop r15; ret; 
94187788642537: pop r12; pop r13; pop r14; pop r15; ret; 
94187788642702: ret; 
94187788642700: mov dword ptr [rdi], edx; ret; 
94187788642699: mov qword ptr [rdi], rdx; ret; 
94187788642696: mov eax, dword ptr [rax + 8]; mov qword ptr [rdi], rdx; ret; 
94187788642695: mov rax, qword ptr [rax + 8]; mov qword ptr [rdi], rdx; ret; 
94187788642692: lea edx, dword ptr [rax + 0x10]; mov rax, qword ptr [rax + 8]; mov qword ptr [rdi], rdx; ret; 
94187788642691: lea rdx, qword ptr [rax + 0x10]; mov rax, qword ptr [rax + 8]; mov qword ptr [rdi], rdx; ret; 
94187788642689: mov eax, dword ptr [rdi]; lea rdx, qword ptr [rax + 0x10]; mov rax, qword ptr [rax + 8]; mov qword ptr [rdi], rdx; ret; 
94187788642688: mov rax, qword ptr [rdi]; lea rdx, qword ptr [rax + 0x10]; mov rax, qword ptr [rax + 8]; mov qword ptr [rdi], rdx; ret; 
94187788642717: ret; 
94187788642714: add dword ptr [rdi], 8; ret; 
94187788642713: add qword ptr [rdi], 8; ret; 
94187788642711: add byte ptr [rax], al; add qword ptr [rdi], 8; ret; 
94187788642709: add dword ptr [rax], eax; add byte ptr [rax], al; add qword ptr [rdi], 8; ret; 
94187788642708: mov eax, 1; add qword ptr [rdi], 8; ret; 
94187788642707: or byte ptr [rax + 1], bh; add qword ptr [rdi], 8; ret; 
94187788642706: or byte ptr [rax + 1], dil; add qword ptr [rdi], 8; ret; 
94187788642705: or byte ptr [rax + 1], dil; add qword ptr [rdi], 8; ret; 
94187788642704: or byte ptr [rdi + 0x40], 8; mov eax, 1; add qword ptr [rdi], 8; ret; 
94187788642703: nop; or byte ptr [rdi + 0x40], 8; mov eax, 1; add qword ptr [rdi], 8; ret; 
94187788642702: ret; 
94187788642754: ret; 
94187788642752: add byte ptr [rax], al; ret; 
94187788642750: xor byte ptr [rdx], al; add byte ptr [rax], al; ret; 
94187788642748: mov eax, dword ptr [rdx + 0x230]; ret; 
94187788642747: mov rax, qword ptr [rdx + 0x230]; ret; 
94187788642744: adc dh, byte ptr [rbp + rcx + 0x48]; mov eax, dword ptr [rdx + 0x230]; ret; 
94187788642741: add byte ptr [rax - 0x75], cl; adc dh, byte ptr [rbp + rcx + 0x48]; mov eax, dword ptr [rdx + 0x230]; ret; 
94187788642739: test eax, 0x8b48000b; adc dh, byte ptr [rbp + rcx + 0x48]; mov eax, dword ptr [rdx + 0x230]; ret; 
94187788642738: shr byte ptr [rcx - 0x74b7fff5], cl; adc dh, byte ptr [rbp + rcx + 0x48]; mov eax, dword ptr [rdx + 0x230]; ret; 
94187788642767: ret; 
94187788642765: add byte ptr [rax], al; ret; 
94187788642761: mov eax, dword ptr [rdx + 0x240]; ret; 
94187788642760: mov rax, qword ptr [rdx + 0x240]; ret; 
94187788642758: add byte ptr [rax], al; mov rax, qword ptr [rdx + 0x240]; ret; 
94187788642757: add byte ptr [rax], r8b; mov rax, qword ptr [rdx + 0x240]; ret; 
94187788642755: nop dword ptr [rax + rax]; mov rax, qword ptr [rdx + 0x240]; ret; 
94187788642754: ret; 
94187788642927: ret; 
94187788642926: pop rbp; ret; 
94187788642925: pop rbx; pop rbp; ret; 
94187788642924: sub byte ptr [rbx + 0x5d], bl; ret; 
94187788642922: add esp, 0x28; pop rbx; pop rbp; ret; 
94187788642921: add rsp, 0x28; pop rbx; pop rbp; ret; 
94187788642918: add byte ptr [rbp + 0x3b], dh; add rsp, 0x28; pop rbx; pop rbp; ret; 
94187788643061: ret; 
94187788643060: pop rbp; ret; 
94187788643059: pop rbx; pop rbp; ret; 
94187788643058: or byte ptr [rbx + 0x5d], bl; ret; 
94187788643056: add esp, 8; pop rbx; pop rbp; ret; 
94187788643055: add rsp, 8; pop rbx; pop rbp; ret; 
94187788643052: add byte ptr [rbp + 0x31], dh; add rsp, 8; pop rbx; pop rbp; ret; 
94187788643194: ret; 
94187788643193: pop rbx; ret; 
94187788643190: mov dword ptr [rbx + 0x38], eax; pop rbx; ret; 
94187788643189: mov qword ptr [rbx + 0x38], rax; pop rbx; ret; 
94187788643187: add ecx, dword ptr [rax]; mov qword ptr [rbx + 0x38], rax; pop rbx; ret; 
94187788643186: add dword ptr [rbx], 8; mov qword ptr [rbx + 0x38], rax; pop rbx; ret; 
94187788643185: add qword ptr [rbx], 8; mov qword ptr [rbx + 0x38], rax; pop rbx; ret; 
94187788643184: or byte ptr [rax - 0x7d], cl; add ecx, dword ptr [rax]; mov qword ptr [rbx + 0x38], rax; pop rbx; ret; 
94187788643183: or byte ptr [rax - 0x7d], cl; add ecx, dword ptr [rax]; mov qword ptr [rbx + 0x38], rax; pop rbx; ret; 
94187788643182: or byte ptr [rax - 0x7d], cl; add ecx, dword ptr [rax]; mov qword ptr [rbx + 0x38], rax; pop rbx; ret; 
94187788643181: or byte ptr [rbx + 0x40], 8; add qword ptr [rbx], 8; mov qword ptr [rbx + 0x38], rax; pop rbx; ret; 
94187788643180: or byte ptr [rax + 0x4808404b], al; add dword ptr [rbx], 8; mov qword ptr [rbx + 0x38], rax; pop rbx; ret; 
94187788643179: or byte ptr [r8 + 0x4808404b], al; add dword ptr [rbx], 8; mov qword ptr [rbx + 0x38], rax; pop rbx; ret; 
94187788643288: ret; 
94187788643285: add esp, 8; ret; 
94187788643284: add rsp, 8; ret; 
94187788643283: or al, 0x48; add esp, 8; ret; 
94187788643280: add eax, dword ptr [rax + 0x74]; or al, 0x48; add esp, 8; ret; 
94187788643279: add eax, dword ptr [rax + 0x74]; or al, 0x48; add esp, 8; ret; 
94187788643275: sal byte ptr [rsi + rax - 0xa], cl; add eax, dword ptr [rax + 0x74]; or al, 0x48; add esp, 8; ret; 
94187788643307: ret; 
94187788643305: dec dword ptr [rdi]; ret; 
94187788643302: and eax, 0xfffffff; ret; 
94187788643301: or byte ptr [rip + 0xfffffff], ah; ret; 
94187788643299: add esp, 8; and eax, 0xfffffff; ret; 
94187788643298: add rsp, 8; and eax, 0xfffffff; ret; 
94187788643296: mov eax, dword ptr [rdx]; add rsp, 8; and eax, 0xfffffff; ret; 
94187788643295: add byte ptr [rbx - 0x3b7cb7fe], cl; or byte ptr [rip + 0xfffffff], ah; ret; 
94187788643294: add byte ptr [rax], al; mov eax, dword ptr [rdx]; add rsp, 8; and eax, 0xfffffff; ret; 
94187788643293: add byte ptr [rax], al; add byte ptr [rbx - 0x3b7cb7fe], cl; or byte ptr [rip + 0xfffffff], ah; ret; 
94187788643392: ret; 
94187788643391: pop rbp; ret; 
94187788643390: pop rbx; pop rbp; ret; 
94187788643389: or byte ptr [rbx + 0x5d], bl; ret; 
94187788643387: add esp, 8; pop rbx; pop rbp; ret; 
94187788643386: add rsp, 8; pop rbx; pop rbp; ret; 
94187788643385: add rsp, 8; pop rbx; pop rbp; ret; 
94187788643382: add eax, dword ptr [rax + 0x74]; add rsp, 8; pop rbx; pop rbp; ret; 
94187788643381: add r8d, dword ptr [r8 + 0x74]; add rsp, 8; pop rbx; pop rbp; ret; 
94187788643416: ret; 
94187788643414: add byte ptr [rax], al; ret; 
94187788643413: add byte ptr [rax], r8b; ret; 
94187788643411: nop dword ptr [rax + rax]; ret; 
94187788643410: nop word ptr [rax + rax]; ret; 
94187788643609: ret; 
94187788643608: pop rbx; ret; 
94187788643606: mov eax, ebx; pop rbx; ret; 
94187788643605: mov rax, rbx; pop rbx; ret; 
94187788643602: sal byte ptr [rbp + 0xb], 0x48; mov eax, ebx; pop rbx; ret; 
94187788643600: add byte ptr [rax], al; sal byte ptr [rbp + 0xb], 0x48; mov eax, ebx; pop rbx; ret; 
94187788643646: ret; 
94187788643645: pop rbx; ret; 
94187788643643: mov eax, ebx; pop rbx; ret; 
94187788643642: mov rax, rbx; pop rbx; ret; 
94187788643641: mov rax, rbx; pop rbx; ret; 
94187788643640: sbb al, 0x43; mov rax, rbx; pop rbx; ret; 
94187788643639: lea ebx, dword ptr [rbx + rax*2]; mov rax, rbx; pop rbx; ret; 
94187788643638: lea rbx, qword ptr [rbx + rax*2]; mov rax, rbx; pop rbx; ret; 
94187788643637: dec dword ptr [rax - 0x73]; sbb al, 0x43; mov rax, rbx; pop rbx; ret; 
94187788643808: ret; 
94187788643807: pop rbp; ret; 
94187788643806: pop r13; ret; 
94187788643805: pop rsp; pop r13; ret; 
94187788643804: pop r12; pop r13; ret; 
94187788643803: pop rbp; pop r12; pop r13; ret; 
94187788643802: pop rbx; pop rbp; pop r12; pop r13; ret; 
94187788643801: or byte ptr [rbx + 0x5d], bl; pop r12; pop r13; ret; 
94187788643955: ret; 
94187788643952: push qword ptr [rbp - 0x23]; ret; 
94187788643951: clc; push qword ptr [rbp - 0x23]; ret; 
94187788643948: add dword ptr [rax - 0x7d], ecx; clc; push qword ptr [rbp - 0x23]; ret; 
94187788643945: or byte ptr [rax - 0x75], cl; add dword ptr [rax - 0x7d], ecx; clc; push qword ptr [rbp - 0x23]; ret; 
94187788644095: ret; 
94187788644092: adc byte ptr [rax + 1], cl; ret; 
94187788644224: ret; 
94187788644223: pop rsi; ret; 
94187788644222: pop r14; ret; 
94187788644221: pop rbp; pop r14; ret; 
94187788644220: pop r13; pop r14; ret; 
94187788644219: pop rsp; pop r13; pop r14; ret; 
94187788644218: pop r12; pop r13; pop r14; ret; 
94187788644217: pop rbp; pop r12; pop r13; pop r14; ret; 
94187788644091: call qword ptr [rax]; 
94187788644090: out dx, eax; call qword ptr [rax]; 
94187788644089: mov edi, ebp; call qword ptr [rax]; 
94187788644088: mov rdi, rbp; call qword ptr [rax]; 
94187788644087: add byte ptr [rax - 0x77], cl; out dx, eax; call qword ptr [rax]; 
94187788644086: add byte ptr [rax], al; mov rdi, rbp; call qword ptr [rax]; 
94187788644085: add byte ptr [rax], r8b; mov rdi, rbp; call qword ptr [rax]; 
94187788644083: nop dword ptr [rax + rax]; mov rdi, rbp; call qword ptr [rax]; 
94187788644082: nop word ptr [rax + rax]; mov rdi, rbp; call qword ptr [rax]; 
94187788644080: xor ebx, ebx; nop word ptr [rax + rax]; mov rdi, rbp; call qword ptr [rax]; 
94187788644171: call qword ptr [rdx]; 
94187788644170: out dx, eax; call qword ptr [rdx]; 
94187788644169: mov edi, ebp; call qword ptr [rdx]; 
94187788644168: mov rdi, rbp; call qword ptr [rdx]; 
94187788644167: add byte ptr [rax - 0x77], cl; out dx, eax; call qword ptr [rdx]; 
94187788644166: add byte ptr [rax], al; mov rdi, rbp; call qword ptr [rdx]; 
94187788644165: add byte ptr [rax], r8b; mov rdi, rbp; call qword ptr [rdx]; 
94187788644163: nop dword ptr [rax + rax]; mov rdi, rbp; call qword ptr [rdx]; 
94187788644162: nop word ptr [rax + rax]; mov rdi, rbp; call qword ptr [rdx]; 
94187788644161: adc eax, 0x441f0f66; add byte ptr [rax], al; mov rdi, rbp; call qword ptr [rdx]; 
94187788644159: and al, 0x74; adc eax, 0x441f0f66; add byte ptr [rax], al; mov rdi, rbp; call qword ptr [rdx]; 
94187788640345: jmp qword ptr [rsi + 0xf]; 
94187788640344: cli; jmp qword ptr [rsi + 0xf]; 
94187788640343: scasb al, byte ptr [rdi]; cli; jmp qword ptr [rsi + 0xf]; 
94187788640342: scasb al, byte ptr [rdi]; cli; jmp qword ptr [rsi + 0xf]; 
94187788640340: mov eax, 0xfaae36e8; jmp qword ptr [rsi + 0xf]; 
94187788640769: jmp qword ptr [rsi + 0xf]; 
94187788640817: jmp qword ptr [rsi + 0x66]; 
94187788640816: cli; jmp qword ptr [rsi + 0x66]; 
94187788640815: lodsb al, byte ptr [rsi]; cli; jmp qword ptr [rsi + 0x66]; 
94187788640814: pop rsi; lodsb al, byte ptr [rsi]; cli; jmp qword ptr [rsi + 0x66]; 
94187788641353: jmp qword ptr [rsi + 0xf]; 
94187788642577: jmp qword ptr [rsi + 0xf]; 
94187788643140: jmp qword ptr [rsi + 0x66]; 
94187788643139: cli; jmp qword ptr [rsi + 0x66]; 
94187788643138: iretd; cli; jmp qword ptr [rsi + 0x66]; 
94187788643137: cmp ecx, edi; cli; jmp qword ptr [rsi + 0x66]; 
94187788643135: add cl, ch; cmp ecx, edi; cli; jmp qword ptr [rsi + 0x66]; 
94187788643523: jmp qword ptr [rsi + 0x66]; 
94187788643522: cli; jmp qword ptr [rsi + 0x66]; 
94187788643521: int 0xfa; jmp qword ptr [rsi + 0x66]; 
94187788643517: rcr byte ptr [rbp - 0x17], 0xbc; int 0xfa; jmp qword ptr [rsi + 0x66]; 
94187788643515: add byte ptr [rcx], dh; rcr byte ptr [rbp - 0x17], 0xbc; int 0xfa; jmp qword ptr [rsi + 0x66]; 
94187788643513: add byte ptr [rax], al; add byte ptr [rcx], dh; rcr byte ptr [rbp - 0x17], 0xbc; int 0xfa; jmp qword ptr [rsi + 0x66]; 
94187788641041: ret 0x4901; 
94187788641038: or byte ptr [rax - 0x7d], cl; ret 0x4901; 
94187788641037: or byte ptr [rax - 0x7d], cl; ret 0x4901; 
94187788641034: adc byte ptr [rax - 0x75], cl; or byte ptr [rax - 0x7d], cl; ret 0x4901; 
94187788641031: adc byte ptr [rax - 0x75], cl; adc byte ptr [rax - 0x75], cl; or byte ptr [rax - 0x7d], cl; ret 0x4901; 
94187788641030: adc byte ptr [r8 - 0x75], r9b; adc byte ptr [rax - 0x75], cl; or byte ptr [rax - 0x7d], cl; ret 0x4901; 
94187788641066: ret 0x148; 
94187788641064: add byte ptr [rcx], ch; ret 0x148; 
94187788641062: add al, 0; add byte ptr [rcx], ch; ret 0x148; 
94187788641060: lea ebp, dword ptr [rax + 0x29000004]; ret 0x148; 
94187788641160: ret 0xd231; 
94187788641156: add byte ptr [rbp + rcx*4 + 4], cl; ret 0xd231; 
94187788642179: ret 0x894d; 
94187788643020: ret 0x4807; 
94187788643270: ret 0xc031; 
94187788643267: dec dword ptr [rax - 0x77]; ret 0xc031; 
94187788643319: ret 0xcdeb; 
94187788643316: dec dword ptr [rax - 0x77]; ret 0xcdeb; 
94187788643932: ret 0x7420; 
94187788643930: add esi, esi; ret 0x7420; 
94187788643929: push rax; add esi, esi; ret 0x7420; 
94187788643928: mov dh, 0x50; add esi, esi; ret 0x7420; 
94187788644254: call qword ptr [rax + 0x55415641]; 
94187788644253: cli; call qword ptr [rax + 0x55415641]; 
94187788644252: sahf; cli; call qword ptr [rax + 0x55415641]; 
94187788644251: int1; sahf; cli; call qword ptr [rax + 0x55415641]; 
94187788636196: ret; 
94187788636195: pop rbp; ret; 
94187788636194: pop r13; ret; 
94187788636193: pop rsp; pop r13; ret; 
94187788636192: pop r12; pop r13; ret; 
94187788636191: pop rbp; pop r12; pop r13; ret; 
94187788636190: pop rbx; pop rbp; pop r12; pop r13; ret; 
94187788636189: add byte ptr [rbx + 0x5d], bl; pop r12; pop r13; ret; 
94187788636481: ret; 
94187788636480: pop rbp; ret; 
94187788636479: pop r13; ret; 
94187788636478: pop rsp; pop r13; ret; 
94187788636477: pop r12; pop r13; ret; 
94187788636476: pop rbp; pop r12; pop r13; ret; 
94187788636475: pop rbx; pop rbp; pop r12; pop r13; ret; 
94187788636474: add byte ptr [rbx + 0x5d], bl; pop r12; pop r13; ret; 
94187788636618: ret; 
94187788636617: pop rsp; ret; 
94187788636616: pop r12; ret; 
94187788636615: pop rbp; pop r12; ret; 
94187788636614: pop rbx; pop rbp; pop r12; ret; 
94187788636612: mov eax, esp; pop rbx; pop rbp; pop r12; ret; 
94187788636611: mov rax, r12; pop rbx; pop rbp; pop r12; ret; 
94187788636610: or eax, 0x5be0894c; pop rbp; pop r12; ret; 
94187788636672: ret; 
94187788636671: pop rsp; ret; 
94187788636670: pop r12; ret; 
94187788636669: pop rbp; pop r12; ret; 
94187788636668: pop rbx; pop rbp; pop r12; ret; 
94187788636666: mov eax, esp; pop rbx; pop rbp; pop r12; ret; 
94187788636665: mov rax, r12; pop rbx; pop rbp; pop r12; ret; 
94187788636664: add ecx, dword ptr [rcx + rcx*4 - 0x20]; pop rbx; pop rbp; pop r12; ret; 
94187788636792: ret; 
94187788636791: pop rbp; ret; 
94187788636790: pop rbx; pop rbp; ret; 
94187788636788: mov eax, ebp; pop rbx; pop rbp; ret; 
94187788636787: mov rax, rbp; pop rbx; pop rbp; ret; 
94187788636784: add esp, 8; mov rax, rbp; pop rbx; pop rbp; ret; 
94187788636783: add rsp, 8; mov rax, rbp; pop rbx; pop rbp; ret; 
94187788636850: ret; 
94187788636849: pop rbp; ret; 
94187788636848: pop rbx; pop rbp; ret; 
94187788636846: mov eax, ebp; pop rbx; pop rbp; ret; 
94187788636845: mov rax, rbp; pop rbx; pop rbp; ret; 
94187788636842: add esp, 8; mov rax, rbp; pop rbx; pop rbp; ret; 
94187788636841: add rsp, 8; mov rax, rbp; pop rbx; pop rbp; ret; 
94187788636905: ret; 
94187788636903: xor eax, eax; ret; 
94187788636900: mov dword ptr [rsi + 8], eax; xor eax, eax; ret; 
94187788636899: mov qword ptr [rsi + 8], rax; xor eax, eax; ret; 
94187788636894: add eax, 0x66632; mov qword ptr [rsi + 8], rax; xor eax, eax; ret; 
94187788636893: lea eax, dword ptr [rip + 0x66632]; mov qword ptr [rsi + 8], rax; xor eax, eax; ret; 
94187788636892: lea rax, qword ptr [rip + 0x66632]; mov qword ptr [rsi + 8], rax; xor eax, eax; ret; 
94187788636890: mov dword ptr [rsi], eax; lea rax, qword ptr [rip + 0x66632]; mov qword ptr [rsi + 8], rax; xor eax, eax; ret; 
94187788636937: ret; 
94187788636935: xor eax, eax; ret; 
94187788636932: mov dword ptr [rsi + 8], eax; xor eax, eax; ret; 
94187788636931: mov qword ptr [rsi + 8], rax; xor eax, eax; ret; 
94187788636927: mov edx, 0x4800064a; mov dword ptr [rsi + 8], eax; xor eax, eax; ret; 
94187788636926: add eax, 0x64aba; mov qword ptr [rsi + 8], rax; xor eax, eax; ret; 
94187788636925: lea eax, dword ptr [rip + 0x64aba]; mov qword ptr [rsi + 8], rax; xor eax, eax; ret; 
94187788636924: lea rax, qword ptr [rip + 0x64aba]; mov qword ptr [rsi + 8], rax; xor eax, eax; ret; 
94187788636922: mov dword ptr [rsi], eax; lea rax, qword ptr [rip + 0x64aba]; mov qword ptr [rsi + 8], rax; xor eax, eax; ret; 
94187788636921: adc byte ptr [rcx + 0x58d4806], cl; mov edx, 0x4800064a; mov dword ptr [rsi + 8], eax; xor eax, eax; ret; 
94187788636985: ret; 
94187788636983: xor eax, eax; ret; 
94187788636980: mov dword ptr [rsi + 8], eax; xor eax, eax; ret; 
94187788636979: mov qword ptr [rsi + 8], rax; xor eax, eax; ret; 
94187788636974: add eax, 0x5dddf; mov qword ptr [rsi + 8], rax; xor eax, eax; ret; 
94187788636973: lea eax, dword ptr [rip + 0x5dddf]; mov qword ptr [rsi + 8], rax; xor eax, eax; ret; 
94187788636972: lea rax, qword ptr [rip + 0x5dddf]; mov qword ptr [rsi + 8], rax; xor eax, eax; ret; 
94187788636970: mov dword ptr [rsi], eax; lea rax, qword ptr [rip + 0x5dddf]; mov qword ptr [rsi + 8], rax; xor eax, eax; ret; 
94187788637008: ret; 
94187788637006: adc dword ptr [rsi], eax; ret; 
94187788637005: movups xmmword ptr [rsi], xmm0; ret; 
94187788637003: xor eax, eax; movups xmmword ptr [rsi], xmm0; ret; 
94187788637000: movq mm0, qword ptr [rax]; xor eax, eax; movups xmmword ptr [rsi], xmm0; ret; 
94187788636999: movdqu xmm0, xmmword ptr [rax]; xor eax, eax; movups xmmword ptr [rsi], xmm0; ret; 
94187788636998: add bl, dh; movq mm0, qword ptr [rax]; xor eax, eax; movups xmmword ptr [rsi], xmm0; ret; 
94187788636997: or dword ptr [rax], eax; movdqu xmm0, xmmword ptr [rax]; xor eax, eax; movups xmmword ptr [rsi], xmm0; ret; 
94187788636996: or dword ptr [rax], eax; movdqu xmm0, xmmword ptr [rax]; xor eax, eax; movups xmmword ptr [rsi], xmm0; ret; 
94187788636995: or dword ptr [rax], eax; movdqu xmm0, xmmword ptr [rax]; xor eax, eax; movups xmmword ptr [rsi], xmm0; ret; 
94187788636994: add eax, 0x94249; movdqu xmm0, xmmword ptr [rax]; xor eax, eax; movups xmmword ptr [rsi], xmm0; ret; 
94187788636993: lea eax, dword ptr [rip + 0x94249]; movdqu xmm0, xmmword ptr [rax]; xor eax, eax; movups xmmword ptr [rsi], xmm0; ret; 
94187788636992: lea rax, qword ptr [rip + 0x94249]; movdqu xmm0, xmmword ptr [rax]; xor eax, eax; movups xmmword ptr [rsi], xmm0; ret; 
94187788637061: ret; 
94187788637059: xor eax, eax; ret; 
94187788637056: mov dword ptr [rsi + 8], eax; xor eax, eax; ret; 
94187788637055: mov qword ptr [rsi + 8], rax; xor eax, eax; ret; 
94187788637050: add eax, 0x6659c; mov qword ptr [rsi + 8], rax; xor eax, eax; ret; 
94187788637049: lea eax, dword ptr [rip + 0x6659c]; mov qword ptr [rsi + 8], rax; xor eax, eax; ret; 
94187788637048: lea rax, qword ptr [rip + 0x6659c]; mov qword ptr [rsi + 8], rax; xor eax, eax; ret; 
94187788637046: mov dword ptr [rsi], eax; lea rax, qword ptr [rip + 0x6659c]; mov qword ptr [rsi + 8], rax; xor eax, eax; ret; 
94187788637088: ret; 
94187788637086: adc dword ptr [rsi], eax; ret; 
94187788637085: movups xmmword ptr [rsi], xmm0; ret; 
94187788637083: xor eax, eax; movups xmmword ptr [rsi], xmm0; ret; 
94187788637080: movq mm0, qword ptr [rax]; xor eax, eax; movups xmmword ptr [rsi], xmm0; ret; 
94187788637079: movdqu xmm0, xmmword ptr [rax]; xor eax, eax; movups xmmword ptr [rsi], xmm0; ret; 
94187788637078: add bl, dh; movq mm0, qword ptr [rax]; xor eax, eax; movups xmmword ptr [rsi], xmm0; ret; 
94187788637077: or dword ptr [rax], eax; movdqu xmm0, xmmword ptr [rax]; xor eax, eax; movups xmmword ptr [rsi], xmm0; ret; 
94187788637076: or dword ptr [r8], eax; movdqu xmm0, xmmword ptr [rax]; xor eax, eax; movups xmmword ptr [rsi], xmm0; ret; 
94187788637140: ret; 
94187788637138: xor eax, eax; ret; 
94187788637135: mov dword ptr [rsi + 8], eax; xor eax, eax; ret; 
94187788637134: mov qword ptr [rsi + 8], rax; xor eax, eax; ret; 
94187788637129: add eax, 0x6dda2; mov qword ptr [rsi + 8], rax; xor eax, eax; ret; 
94187788637128: lea eax, dword ptr [rip + 0x6dda2]; mov qword ptr [rsi + 8], rax; xor eax, eax; ret; 
94187788637127: lea rax, qword ptr [rip + 0x6dda2]; mov qword ptr [rsi + 8], rax; xor eax, eax; ret; 
94187788637125: mov dword ptr [rsi], eax; lea rax, qword ptr [rip + 0x6dda2]; mov qword ptr [rsi + 8], rax; xor eax, eax; ret; 
94187788637150: ret; 
94187788637148: xor eax, eax; ret; 
94187788637147: xor eax, eax; ret; 
94187788637144: or byte ptr [rsi + 3], 0x40; xor eax, eax; ret; 
94187788637141: nop dword ptr [rax]; or byte ptr [rsi + 3], 0x40; xor eax, eax; ret; 
94187788637140: ret; 
94187788637177: ret; 
94187788637175: adc dword ptr [rsi], eax; ret; 
94187788637174: movups xmmword ptr [rsi], xmm0; ret; 
94187788637172: xor eax, eax; movups xmmword ptr [rsi], xmm0; ret; 
94187788637169: movq mm0, qword ptr [rax]; xor eax, eax; movups xmmword ptr [rsi], xmm0; ret; 
94187788637168: movdqu xmm0, xmmword ptr [rax]; xor eax, eax; movups xmmword ptr [rsi], xmm0; ret; 
94187788637167: add bl, dh; movq mm0, qword ptr [rax]; xor eax, eax; movups xmmword ptr [rsi], xmm0; ret; 
94187788637166: or dword ptr [rax], eax; movdqu xmm0, xmmword ptr [rax]; xor eax, eax; movups xmmword ptr [rsi], xmm0; ret; 
94187788637165: or dword ptr [r8], eax; movdqu xmm0, xmmword ptr [rax]; xor eax, eax; movups xmmword ptr [rsi], xmm0; ret; 
94187788637163: add eax, 0x941a0; movdqu xmm0, xmmword ptr [rax]; xor eax, eax; movups xmmword ptr [rsi], xmm0; ret; 
94187788637162: lea eax, dword ptr [rip + 0x941a0]; movdqu xmm0, xmmword ptr [rax]; xor eax, eax; movups xmmword ptr [rsi], xmm0; ret; 
94187788637161: lea rax, qword ptr [rip + 0x941a0]; movdqu xmm0, xmmword ptr [rax]; xor eax, eax; movups xmmword ptr [rsi], xmm0; ret; 
94187788637211: ret; 
94187788637209: xor eax, eax; ret; 
94187788637206: mov dword ptr [rsi + 8], eax; xor eax, eax; ret; 
94187788637205: mov qword ptr [rsi + 8], rax; xor eax, eax; ret; 
94187788637202: add dword ptr [rsi], 0; mov qword ptr [rsi + 8], rax; xor eax, eax; ret; 
94187788637200: add eax, 0x683eb; mov qword ptr [rsi + 8], rax; xor eax, eax; ret; 
94187788637199: lea eax, dword ptr [rip + 0x683eb]; mov qword ptr [rsi + 8], rax; xor eax, eax; ret; 
94187788637198: lea rax, qword ptr [rip + 0x683eb]; mov qword ptr [rsi + 8], rax; xor eax, eax; ret; 
94187788637196: mov dword ptr [rsi], eax; lea rax, qword ptr [rip + 0x683eb]; mov qword ptr [rsi + 8], rax; xor eax, eax; ret; 
94187788637270: ret; 
94187788637268: xor eax, eax; ret; 
94187788637265: mov dword ptr [rsi + 8], eax; xor eax, eax; ret; 
94187788637264: mov qword ptr [rsi + 8], rax; xor eax, eax; ret; 
94187788637261: mov eax, dword ptr [rdx + 0x20]; mov qword ptr [rsi + 8], rax; xor eax, eax; ret; 
94187788637260: mov rax, qword ptr [rdx + 0x20]; mov qword ptr [rsi + 8], rax; xor eax, eax; ret; 
94187788637257: mov byte ptr [rsi + 3], al; mov rax, qword ptr [rdx + 0x20]; mov qword ptr [rsi + 8], rax; xor eax, eax; ret; 
94187788637296: ret; 
94187788637294: xor eax, eax; ret; 
94187788637293: xor eax, eax; ret; 
94187788637290: or byte ptr [rsi + 3], 0x40; xor eax, eax; ret; 
94187788637288: jns 0x55a9cdaf1478; or byte ptr [rsi + 3], 0x40; xor eax, eax; ret; 
94187788637287: add byte ptr [rcx + 0xe], bh; or byte ptr [rsi + 3], 0x40; xor eax, eax; ret; 
94187788637286: add byte ptr [rax], al; jns 0x55a9cdaf1478; or byte ptr [rsi + 3], 0x40; xor eax, eax; ret; 
94187788637285: add byte ptr [rax], al; add byte ptr [rcx + 0xe], bh; or byte ptr [rsi + 3], 0x40; xor eax, eax; ret; 
94187788637404: ret; 
94187788637403: pop rsp; ret; 
94187788637402: pop r12; ret; 
94187788637401: pop rbp; pop r12; ret; 
94187788637400: pop rbx; pop rbp; pop r12; ret; 
94187788637399: rcr byte ptr [rbx + 0x5d], 0x41; pop rsp; ret; 
94187788637398: xor eax, eax; pop rbx; pop rbp; pop r12; ret; 
94187788637397: add esi, dword ptr [rcx]; rcr byte ptr [rbx + 0x5d], 0x41; pop rsp; ret; 
94187788637396: add esi, dword ptr [r9]; rcr byte ptr [rbx + 0x5d], 0x41; pop rsp; ret; 
94187788637479: ret; 
94187788637477: xor eax, eax; ret; 
94187788637474: mov byte ptr [rsi + 3], al; xor eax, eax; ret; 
94187788637473: adc byte ptr [rax - 0x3fcefcba], cl; ret; 
94187788637471: or eax, 0x10; mov byte ptr [rsi + 3], al; xor eax, eax; ret; 
94187788637468: and eax, 0xffffff8f; or eax, 0x10; mov byte ptr [rsi + 3], al; xor eax, eax; ret; 
94187788637467: add eax, dword ptr [rbx - 0x377c7020]; adc byte ptr [rax - 0x3fcefcba], cl; ret; 
94187788637466: add r8d, dword ptr [rbx - 0x377c7020]; adc byte ptr [rax - 0x3fcefcba], cl; ret; 
94187788637465: mov dh, 0x46; add eax, dword ptr [rbx - 0x377c7020]; adc byte ptr [rax - 0x3fcefcba], cl; ret; 
94187788637513: ret; 
94187788637511: xor eax, eax; ret; 
94187788637510: xor eax, eax; ret; 
94187788637507: or byte ptr [rsi + 3], 0x40; xor eax, eax; ret; 
94187788637506: sbb eax, 0x40034e80; xor eax, eax; ret; 
94187788637505: jns 0x55a9cdaf1560; or byte ptr [rsi + 3], 0x40; xor eax, eax; ret; 
94187788637504: add byte ptr [rcx + 0x1d], bh; or byte ptr [rsi + 3], 0x40; xor eax, eax; ret; 
94187788637503: add byte ptr [rax], al; jns 0x55a9cdaf1560; or byte ptr [rsi + 3], 0x40; xor eax, eax; ret; 
94187788637502: add byte ptr [rax], al; add byte ptr [rcx + 0x1d], bh; or byte ptr [rsi + 3], 0x40; xor eax, eax; ret; 
94187788637526: ret; 
94187788637524: xor eax, eax; ret; 
94187788637520: or byte ptr [rsi + 3], 0x60; xor eax, eax; ret; 
94187788637518: add byte ptr [rax], al; or byte ptr [rsi + 3], 0x60; xor eax, eax; ret; 
94187788637517: add byte ptr [rax], r8b; or byte ptr [rsi + 3], 0x60; xor eax, eax; ret; 
94187788637515: nop dword ptr [rax + rax]; or byte ptr [rsi + 3], 0x60; xor eax, eax; ret; 
94187788637514: nop word ptr [rax + rax]; or byte ptr [rsi + 3], 0x60; xor eax, eax; ret; 
94187788637513: ret; 
94187788637636: ret; 
94187788637635: pop rsp; ret; 
94187788637634: pop r12; ret; 
94187788637633: pop rbp; pop r12; ret; 
94187788637632: pop rbx; pop rbp; pop r12; ret; 
94187788637631: rcr byte ptr [rbx + 0x5d], 0x41; pop rsp; ret; 
94187788637630: xor eax, eax; pop rbx; pop rbp; pop r12; ret; 
94187788637629: add esi, dword ptr [rcx]; rcr byte ptr [rbx + 0x5d], 0x41; pop rsp; ret; 
94187788637628: add esi, dword ptr [r9]; rcr byte ptr [rbx + 0x5d], 0x41; pop rsp; ret; 
94187788637702: ret; 
94187788637700: xor eax, eax; ret; 
94187788637697: mov dword ptr [rsi + 8], eax; xor eax, eax; ret; 
94187788637696: mov qword ptr [rsi + 8], rax; xor eax, eax; ret; 
94187788637693: mov eax, dword ptr [rdx + 0x20]; mov qword ptr [rsi + 8], rax; xor eax, eax; ret; 
94187788637692: mov rax, qword ptr [rdx + 0x20]; mov qword ptr [rsi + 8], rax; xor eax, eax; ret; 
94187788637689: mov byte ptr [rsi + 3], al; mov rax, qword ptr [rdx + 0x20]; mov qword ptr [rsi + 8], rax; xor eax, eax; ret; 
94187788637728: ret; 
94187788637726: xor eax, eax; ret; 
94187788637725: xor eax, eax; ret; 
94187788637722: or byte ptr [rsi + 3], 0x40; xor eax, eax; ret; 
94187788637720: jns 0x55a9cdaf1628; or byte ptr [rsi + 3], 0x40; xor eax, eax; ret; 
94187788637719: add byte ptr [rcx + 0xe], bh; or byte ptr [rsi + 3], 0x40; xor eax, eax; ret; 
94187788637718: add byte ptr [rax], al; jns 0x55a9cdaf1628; or byte ptr [rsi + 3], 0x40; xor eax, eax; ret; 
94187788637717: add byte ptr [rax], al; add byte ptr [rcx + 0xe], bh; or byte ptr [rsi + 3], 0x40; xor eax, eax; ret; 
94187788637827: ret; 
94187788637826: pop rsp; ret; 
94187788637825: pop r12; ret; 
94187788637824: pop rbp; pop r12; ret; 
94187788637823: pop rbx; pop rbp; pop r12; ret; 
94187788637822: rcr byte ptr [rbx + 0x5d], 0x41; pop rsp; ret; 
94187788637821: xor eax, eax; pop rbx; pop rbp; pop r12; ret; 
94187788637820: add esi, dword ptr [rcx]; rcr byte ptr [rbx + 0x5d], 0x41; pop rsp; ret; 
94187788637819: add esi, dword ptr [r9]; rcr byte ptr [rbx + 0x5d], 0x41; pop rsp; ret; 
94187788637937: ret; 
94187788637934: add dword ptr [rax - 0x7d], ecx; ret; 
94187788638020: ret; 
94187788638019: pop rdi; ret; 
94187788638018: pop r15; ret; 
94187788638017: pop rsi; pop r15; ret; 
94187788638016: pop r14; pop r15; ret; 
94187788638015: pop rbp; pop r14; pop r15; ret; 
94187788638014: pop r13; pop r14; pop r15; ret; 
94187788638013: pop rsp; pop r13; pop r14; pop r15; ret; 
94187788638012: pop r12; pop r13; pop r14; pop r15; ret; 
94187788638037: ret; 
94187788638034: add dword ptr [rax - 0x7d], ecx; ret; 
94187788638064: ret; 
94187788638061: dec dword ptr [rax - 0x77]; ret; 
94187788638060: cli; dec dword ptr [rax - 0x77]; ret; 
94187788638059: cli; dec dword ptr [rax - 0x77]; ret; 
94187788638398: ret; 
94187788638395: dec dword ptr [rax - 0x77]; ret; 
94187788638394: cli; dec dword ptr [rax - 0x77]; ret; 
94187788638393: idiv dl; dec dword ptr [rax - 0x77]; ret; 
94187788638392: xchg eax, esp; idiv dl; dec dword ptr [rax - 0x77]; ret; 
94187788638390: add al, ch; xchg eax, esp; idiv dl; dec dword ptr [rax - 0x77]; ret; 
94187788638582: ret; 
94187788638579: add dword ptr [rax - 0x7d], ecx; ret; 
94187788638629: ret; 
94187788638628: pop rsi; ret; 
94187788638627: pop r14; ret; 
94187788638626: pop rbp; pop r14; ret; 
94187788638625: pop r13; pop r14; ret; 
94187788638624: pop rsp; pop r13; pop r14; ret; 
94187788638623: pop r12; pop r13; pop r14; ret; 
94187788638622: pop rbp; pop r12; pop r13; pop r14; ret; 
94187788638711: ret; 
94187788638708: dec dword ptr [rax - 0x77]; ret; 
94187788638707: cli; dec dword ptr [rax - 0x77]; ret; 
94187788638706: cmc; cli; dec dword ptr [rax - 0x77]; ret; 
94187788638705: pop rbx; cmc; cli; dec dword ptr [rax - 0x77]; ret; 
94187788638811: ret; 
94187788638810: pop rsi; ret; 
94187788638809: pop r14; ret; 
94187788638808: pop rbp; pop r14; ret; 
94187788638807: pop r13; pop r14; ret; 
94187788638806: pop rsp; pop r13; pop r14; ret; 
94187788638805: pop r12; pop r13; pop r14; ret; 
94187788638804: pop rbp; pop r12; pop r13; pop r14; ret; 
94187788639028: ret; 
94187788639027: pop rbp; ret; 
94187788639026: pop r13; ret; 
94187788639025: pop rsp; pop r13; ret; 
94187788639024: pop r12; pop r13; ret; 
94187788639023: pop rbp; pop r12; pop r13; ret; 
94187788639022: pop rbx; pop rbp; pop r12; pop r13; ret; 
94187788639021: fcomp dword ptr [rbx + 0x5d]; pop r12; pop r13; ret; 
94187788639135: ret; 
94187788639134: pop rbp; ret; 
94187788639133: pop r13; ret; 
94187788639132: pop rsp; pop r13; ret; 
94187788639131: pop r12; pop r13; ret; 
94187788639130: pop rbp; pop r12; pop r13; ret; 
94187788639129: pop rbx; pop rbp; pop r12; pop r13; ret; 
94187788639128: fcomp dword ptr [rbx + 0x5d]; pop r12; pop r13; ret; 
94187788639248: ret; 
94187788639246: add byte ptr [rax], al; ret; 
94187788639244: add byte ptr [rax], al; add byte ptr [rax], al; ret; 
94187788639242: test byte ptr [rax], al; add byte ptr [rax], al; add byte ptr [rax], al; ret; 
94187788639240: nop dword ptr [rax + rax]; ret; 
94187788639239: nop word ptr [rax + rax]; ret; 
94187788639334: ret; 
94187788639331: add byte ptr [rax - 0x77], cl; ret; 
94187788639329: add byte ptr [rax], al; add byte ptr [rax - 0x77], cl; ret; 
94187788639327: test byte ptr [rax + rax - 0x76b80000], cl; ret; 
94187788639441: ret; 
94187788639440: pop rdi; ret; 
94187788639439: pop r15; ret; 
94187788639438: pop rsi; pop r15; ret; 
94187788639437: pop r14; pop r15; ret; 
94187788639436: pop rbp; pop r14; pop r15; ret; 
94187788639435: pop r13; pop r14; pop r15; ret; 
94187788639434: pop rsp; pop r13; pop r14; pop r15; ret; 
94187788639433: pop r12; pop r13; pop r14; pop r15; ret; 
94187788639627: ret; 
94187788639994: ret; 
94187788639991: add byte ptr [rax + 0x39], cl; ret; 
94187788640073: ret; 
94187788640072: pop rdi; ret; 
94187788640071: pop r15; ret; 
94187788640070: pop rsi; pop r15; ret; 
94187788640069: pop r14; pop r15; ret; 
94187788640068: pop rbp; pop r14; pop r15; ret; 
94187788640067: pop r13; pop r14; pop r15; ret; 
94187788640066: pop rsp; pop r13; pop r14; pop r15; ret; 
94187788640065: pop r12; pop r13; pop r14; pop r15; ret; 
94187788640095: ret; 
94187788640094: pop rdi; ret; 
94187788640093: pop r15; ret; 
94187788640092: pop rsi; pop r15; ret; 
94187788640091: pop r14; pop r15; ret; 
94187788640090: pop rbp; pop r14; pop r15; ret; 
94187788640089: pop r13; pop r14; pop r15; ret; 
94187788640088: pop rsp; pop r13; pop r14; pop r15; ret; 
94187788640087: pop r12; pop r13; pop r14; pop r15; ret; 
94187788636261: jmp qword ptr [rsi + 0x2e]; 
94187788636260: cli; jmp qword ptr [rsi + 0x2e]; 
94187788636258: sbb ch, dl; cli; jmp qword ptr [rsi + 0x2e]; 
94187788636285: jmp qword ptr [rsi - 0x70]; 
94187788636284: cli; jmp qword ptr [rsi - 0x70]; 
94187788636501: jmp qword ptr [rsi + 0x2e]; 
94187788636500: cli; jmp qword ptr [rsi + 0x2e]; 
94187788638345: jmp qword ptr [rsi + 0xf]; 
94187788638486: jmp qword ptr [rsi + 0xf]; 
94187788638857: jmp qword ptr [rsi + 0xf]; 
94187788639187: jmp qword ptr [rsi + 0x66]; 
94187788639238: jmp qword ptr [rsi + 0xf]; 
94187788639689: jmp qword ptr [rsi + 0xf]; 
94187788639721: jmp qword ptr [rsi + 0xf]; 
94187788639785: jmp qword ptr [rsi + 0xf]; 
94187788639985: jmp qword ptr [rsi + 0xf]; 
94187788640121: jmp qword ptr [rsi + 0xf]; 
94187788640153: jmp qword ptr [rsi + 0xf]; 
94187788640182: jmp qword ptr [rsi + 0xf]; 
94187788638978: call qword ptr [rbp + 0x18]; 
94187788639404: call qword ptr [rbx + 0x18]; 
94187788639403: out dx, eax; call qword ptr [rbx + 0x18]; 
94187788639402: mov edi, ebp; call qword ptr [rbx + 0x18]; 
94187788639401: mov rdi, r13; call qword ptr [rbx + 0x18]; 
94187788639399: mov esi, eax; mov rdi, r13; call qword ptr [rbx + 0x18]; 
94187788639398: mov rsi, rax; mov rdi, r13; call qword ptr [rbx + 0x18]; 
94187788639395: mov edx, dword ptr [rbx + 0x20]; mov rsi, rax; mov rdi, r13; call qword ptr [rbx + 0x18]; 
94187788639394: mov rdx, qword ptr [rbx + 0x20]; mov rsi, rax; mov rdi, r13; call qword ptr [rbx + 0x18]; 
94187788639392: add byte ptr [rax], al; mov rdx, qword ptr [rbx + 0x20]; mov rsi, rax; mov rdi, r13; call qword ptr [rbx + 0x18]; 
94187788636647: ret 0x38b; 
94187788636823: ret 0x38b; 
94187788637368: ret 0x38b; 
94187788637600: ret 0x38b; 
94187788637791: ret 0x38b; 
94187788638972: ret 0x8b49; 
94187788638968: fimul word ptr [rbp + rcx*4 + 0x2c]; ret 0x8b49; 
94187788639219: ret 0x7450; 
94187788639217: add esi, esi; ret 0x7450; 
94187788639216: push rax; add esi, esi; ret 0x7450; 
94187788639215: mov dh, 0x50; add esi, esi; ret 0x7450; 
94187788639213: add byte ptr [rdi], cl; mov dh, 0x50; add esi, esi; ret 0x7450; 
94187788639211: add al, 0; add byte ptr [rdi], cl; mov dh, 0x50; add esi, esi; ret 0x7450; 
94187788639209: xchg dword ptr [rax + 0xf000004], ebp; mov dh, 0x50; add esi, esi; ret 0x7450; 
94187788639224: ret 0x7420; 
94187788639222: or esi, esi; ret 0x7420; 
94187788639219: ret 0x7450; 
94187788632205: ret; 
94187788632204: pop rsp; ret; 
94187788632203: pop r12; ret; 
94187788632202: pop rbp; pop r12; ret; 
94187788632201: pop rbx; pop rbp; pop r12; ret; 
94187788632200: sbb byte ptr [rbx + 0x5d], 0x41; pop rsp; ret; 
94187788632199: in al, dx; sbb byte ptr [rbx + 0x5d], 0x41; pop rsp; ret; 
94187788632198: sub esp, -0x80; pop rbx; pop rbp; pop r12; ret; 
94187788632197: sub rsp, -0x80; pop rbx; pop rbp; pop r12; ret; 
94187788632334: ret; 
94187788632329: sal byte ptr [rsi + rdx*2 + 0x48], 0x89; ret; 
94187788632326: dec dword ptr [rax - 0x7b]; sal byte ptr [rsi + rdx*2 + 0x48], 0x89; ret; 
94187788632325: sti; dec dword ptr [rax - 0x7b]; sal byte ptr [rsi + rdx*2 + 0x48], 0x89; ret; 
94187788632324: or bh, bl; dec dword ptr [rax - 0x7b]; sal byte ptr [rsi + rdx*2 + 0x48], 0x89; ret; 
94187788632323: imul ecx, dword ptr [rdx], 0x8548fffb; sal byte ptr [rsi + rdx*2 + 0x48], 0x89; ret; 
94187788632417: ret; 
94187788632416: pop rbp; ret; 
94187788632415: pop rbx; pop rbp; ret; 
94187788632414: or byte ptr [rbx + 0x5d], bl; ret; 
94187788632412: add esp, 8; pop rbx; pop rbp; ret; 
94187788632411: add rsp, 8; pop rbx; pop rbp; ret; 
94187788632410: ror byte ptr [rax - 0x7d], 0xc4; or byte ptr [rbx + 0x5d], bl; ret; 
94187788632409: xor eax, eax; add rsp, 8; pop rbx; pop rbp; ret; 
94187788632408: add esi, dword ptr [rcx]; ror byte ptr [rax - 0x7d], 0xc4; or byte ptr [rbx + 0x5d], bl; ret; 
94187788632407: add r14d, dword ptr [r9]; ror byte ptr [rax - 0x7d], 0xc4; or byte ptr [rbx + 0x5d], bl; ret; 
94187788632462: ret; 
94187788632457: sal byte ptr [rsi + rcx*2 + 0x48], 0x89; ret; 
94187788632454: dec dword ptr [rax - 0x7b]; sal byte ptr [rsi + rcx*2 + 0x48], 0x89; ret; 
94187788632453: sti; dec dword ptr [rax - 0x7b]; sal byte ptr [rsi + rcx*2 + 0x48], 0x89; ret; 
94187788632452: or ebx, edi; dec dword ptr [rax - 0x7b]; sal byte ptr [rsi + rcx*2 + 0x48], 0x89; ret; 
94187788632537: ret; 
94187788632536: pop rbp; ret; 
94187788632535: pop rbx; pop rbp; ret; 
94187788632534: or byte ptr [rbx + 0x5d], bl; ret; 
94187788632532: add esp, 8; pop rbx; pop rbp; ret; 
94187788632531: add rsp, 8; pop rbx; pop rbp; ret; 
94187788632530: ror byte ptr [rax - 0x7d], 0xc4; or byte ptr [rbx + 0x5d], bl; ret; 
94187788632529: xor eax, eax; add rsp, 8; pop rbx; pop rbp; ret; 
94187788632528: add esi, dword ptr [rcx]; ror byte ptr [rax - 0x7d], 0xc4; or byte ptr [rbx + 0x5d], bl; ret; 
94187788632527: add r14d, dword ptr [r9]; ror byte ptr [rax - 0x7d], 0xc4; or byte ptr [rbx + 0x5d], bl; ret; 
94187788632591: ret; 
94187788632586: sal byte ptr [rdi + rcx*2 + 0x48], 0x89; ret; 
94187788632583: dec dword ptr [rax - 0x7b]; sal byte ptr [rdi + rcx*2 + 0x48], 0x89; ret; 
94187788632582: sti; dec dword ptr [rax - 0x7b]; sal byte ptr [rdi + rcx*2 + 0x48], 0x89; ret; 
94187788632581: or ebx, edi; dec dword ptr [rax - 0x7b]; sal byte ptr [rdi + rcx*2 + 0x48], 0x89; ret; 
94187788632667: ret; 
94187788632666: pop rsp; ret; 
94187788632665: pop r12; ret; 
94187788632664: pop rbp; pop r12; ret; 
94187788632663: pop rbx; pop rbp; pop r12; ret; 
94187788632662: rcr byte ptr [rbx + 0x5d], 0x41; pop rsp; ret; 
94187788632661: xor eax, eax; pop rbx; pop rbp; pop r12; ret; 
94187788632660: add esi, dword ptr [rcx]; rcr byte ptr [rbx + 0x5d], 0x41; pop rsp; ret; 
94187788632659: add r14d, dword ptr [r9]; rcr byte ptr [rbx + 0x5d], 0x41; pop rsp; ret; 
94187788632719: ret; 
94187788632714: sal byte ptr [rdi + rcx*2 + 0x48], 0x89; ret; 
94187788632711: dec dword ptr [rax - 0x7b]; sal byte ptr [rdi + rcx*2 + 0x48], 0x89; ret; 
94187788632710: sti; dec dword ptr [rax - 0x7b]; sal byte ptr [rdi + rcx*2 + 0x48], 0x89; ret; 
94187788632709: or bl, bh; dec dword ptr [rax - 0x7b]; sal byte ptr [rdi + rcx*2 + 0x48], 0x89; ret; 
94187788632795: ret; 
94187788632794: pop rsp; ret; 
94187788632793: pop r12; ret; 
94187788632792: pop rbp; pop r12; ret; 
94187788632791: pop rbx; pop rbp; pop r12; ret; 
94187788632790: rcr byte ptr [rbx + 0x5d], 0x41; pop rsp; ret; 
94187788632789: xor eax, eax; pop rbx; pop rbp; pop r12; ret; 
94187788632788: add esi, dword ptr [rcx]; rcr byte ptr [rbx + 0x5d], 0x41; pop rsp; ret; 
94187788632787: add r14d, dword ptr [r9]; rcr byte ptr [rbx + 0x5d], 0x41; pop rsp; ret; 
94187788632916: ret; 
94187788632915: pop rbp; ret; 
94187788632914: pop rbx; pop rbp; ret; 
94187788632913: or byte ptr [rbx + 0x5d], bl; ret; 
94187788632911: add esp, 8; pop rbx; pop rbp; ret; 
94187788632910: add rsp, 8; pop rbx; pop rbp; ret; 
94187788632909: ror byte ptr [rax - 0x7d], 0xc4; or byte ptr [rbx + 0x5d], bl; ret; 
94187788632908: xor eax, eax; add rsp, 8; pop rbx; pop rbp; ret; 
94187788632907: add esi, dword ptr [rcx]; ror byte ptr [rax - 0x7d], 0xc4; or byte ptr [rbx + 0x5d], bl; ret; 
94187788632906: add esi, dword ptr [r9]; ror byte ptr [rax - 0x7d], 0xc4; or byte ptr [rbx + 0x5d], bl; ret; 
94187788632943: ret; 
94187788632941: xor eax, eax; ret; 
94187788632940: xor eax, eax; ret; 
94187788632937: or byte ptr [rsi + 3], 0x40; xor eax, eax; ret; 
94187788632934: or byte ptr [rbp + 7], dh; or byte ptr [rsi + 3], 0x40; xor eax, eax; ret; 
94187788632932: add byte ptr [rax], al; or byte ptr [rbp + 7], dh; or byte ptr [rsi + 3], 0x40; xor eax, eax; ret; 
94187788632986: ret; 
94187788632985: pop rsp; ret; 
94187788632984: pop r12; ret; 
94187788632983: pop rbp; pop r12; ret; 
94187788632982: pop rbx; pop rbp; pop r12; ret; 
94187788632981: rcr byte ptr [rbx + 0x5d], 0x41; pop rsp; ret; 
94187788632980: xor eax, eax; pop rbx; pop rbp; pop r12; ret; 
94187788632979: xor eax, eax; pop rbx; pop rbp; pop r12; ret; 
94187788632978: add eax, dword ptr [rax + 0x31]; rcr byte ptr [rbx + 0x5d], 0x41; pop rsp; ret; 
94187788632977: add r8, qword ptr [rax + 0x31]; rcr byte ptr [rbx + 0x5d], 0x41; pop rsp; ret; 
94187788633085: ret; 
94187788633084: pop rsp; ret; 
94187788633083: pop r12; ret; 
94187788633082: pop rbp; pop r12; ret; 
94187788633081: pop rbx; pop rbp; pop r12; ret; 
94187788633080: rcr byte ptr [rbx + 0x5d], 0x41; pop rsp; ret; 
94187788633079: xor eax, eax; pop rbx; pop rbp; pop r12; ret; 
94187788633078: add esi, dword ptr [rcx]; rcr byte ptr [rbx + 0x5d], 0x41; pop rsp; ret; 
94187788633077: add esi, dword ptr [r9]; rcr byte ptr [rbx + 0x5d], 0x41; pop rsp; ret; 
94187788633211: ret; 
94187788633210: pop rbp; ret; 
94187788633209: pop rbx; pop rbp; ret; 
94187788633208: or byte ptr [rbx + 0x5d], bl; ret; 
94187788633206: add esp, 8; pop rbx; pop rbp; ret; 
94187788633205: add rsp, 8; pop rbx; pop rbp; ret; 
94187788633204: ror byte ptr [rax - 0x7d], 0xc4; or byte ptr [rbx + 0x5d], bl; ret; 
94187788633203: xor eax, eax; add rsp, 8; pop rbx; pop rbp; ret; 
94187788633202: add esi, dword ptr [rcx]; ror byte ptr [rax - 0x7d], 0xc4; or byte ptr [rbx + 0x5d], bl; ret; 
94187788633201: add esi, dword ptr [r9]; ror byte ptr [rax - 0x7d], 0xc4; or byte ptr [rbx + 0x5d], bl; ret; 
94187788633309: ret; 
94187788633306: and byte ptr [rax - 0x77], cl; ret; 
94187788633449: ret; 
94187788633448: pop rsp; ret; 
94187788633447: pop r12; ret; 
94187788633446: pop rbp; pop r12; ret; 
94187788633445: pop rbx; pop rbp; pop r12; ret; 
94187788633444: rcr byte ptr [rbx + 0x5d], 0x41; pop rsp; ret; 
94187788633443: xor eax, eax; pop rbx; pop rbp; pop r12; ret; 
94187788633442: add esi, dword ptr [rcx]; rcr byte ptr [rbx + 0x5d], 0x41; pop rsp; ret; 
94187788633441: add r14d, dword ptr [r9]; rcr byte ptr [rbx + 0x5d], 0x41; pop rsp; ret; 
94187788633511: ret; 
94187788633508: add byte ptr [rax - 0x77], cl; ret; 
94187788633506: add al, 0; add byte ptr [rax - 0x77], cl; ret; 
94187788633504: and al, 0xe0; add al, 0; add byte ptr [rax - 0x77], cl; ret; 
94187788633503: xchg eax, esp; and al, 0xe0; add al, 0; add byte ptr [rax - 0x77], cl; ret; 
94187788633575: ret; 
94187788633574: pop rsp; ret; 
94187788633573: pop r12; ret; 
94187788633572: pop rbp; pop r12; ret; 
94187788633571: pop rbx; pop rbp; pop r12; ret; 
94187788633570: rcr byte ptr [rbx + 0x5d], 0x41; pop rsp; ret; 
94187788633569: xor eax, eax; pop rbx; pop rbp; pop r12; ret; 
94187788633568: add esi, dword ptr [rcx]; rcr byte ptr [rbx + 0x5d], 0x41; pop rsp; ret; 
94187788633567: add r14d, dword ptr [r9]; rcr byte ptr [rbx + 0x5d], 0x41; pop rsp; ret; 
94187788633719: ret; 
94187788633718: pop rsp; ret; 
94187788633717: pop r12; ret; 
94187788633716: pop rbp; pop r12; ret; 
94187788633715: pop rbx; pop rbp; pop r12; ret; 
94187788633714: rcr byte ptr [rbx + 0x5d], 0x41; pop rsp; ret; 
94187788633713: xor eax, eax; pop rbx; pop rbp; pop r12; ret; 
94187788633712: add esi, dword ptr [rcx]; rcr byte ptr [rbx + 0x5d], 0x41; pop rsp; ret; 
94187788633711: add r14d, dword ptr [r9]; rcr byte ptr [rbx + 0x5d], 0x41; pop rsp; ret; 
94187788633775: ret; 
94187788633770: sal byte ptr [rsp + rcx*2 + 0x48], 0x89; ret; 
94187788633767: dec dword ptr [rax - 0x7b]; sal byte ptr [rsp + rcx*2 + 0x48], 0x89; ret; 
94187788633766: sti; dec dword ptr [rax - 0x7b]; sal byte ptr [rsp + rcx*2 + 0x48], 0x89; ret; 
94187788633765: add al, 0xfb; dec dword ptr [rax - 0x7b]; sal byte ptr [rsp + rcx*2 + 0x48], 0x89; ret; 
94187788633848: ret; 
94187788633847: pop rsp; ret; 
94187788633846: pop r12; ret; 
94187788633845: pop rbp; pop r12; ret; 
94187788633844: pop rbx; pop rbp; pop r12; ret; 
94187788633843: rcr byte ptr [rbx + 0x5d], 0x41; pop rsp; ret; 
94187788633842: xor eax, eax; pop rbx; pop rbp; pop r12; ret; 
94187788633841: add esi, dword ptr [rcx]; rcr byte ptr [rbx + 0x5d], 0x41; pop rsp; ret; 
94187788633840: add r14d, dword ptr [r9]; rcr byte ptr [rbx + 0x5d], 0x41; pop rsp; ret; 
94187788633956: ret; 
94187788633955: pop rbp; ret; 
94187788633954: pop rbx; pop rbp; ret; 
94187788633952: mov eax, ebp; pop rbx; pop rbp; ret; 
94187788633951: mov rax, rbp; pop rbx; pop rbp; ret; 
94187788633948: add esp, 8; mov rax, rbp; pop rbx; pop rbp; ret; 
94187788633947: add rsp, 8; mov rax, rbp; pop rbx; pop rbp; ret; 
94187788633946: or eax, 0x8c48348; mov rax, rbp; pop rbx; pop rbp; ret; 
94187788634009: ret; 
94187788634008: pop rbp; ret; 
94187788634007: pop rbx; pop rbp; ret; 
94187788634005: mov eax, ebp; pop rbx; pop rbp; ret; 
94187788634004: mov rax, rbp; pop rbx; pop rbp; ret; 
94187788634001: add esp, 8; mov rax, rbp; pop rbx; pop rbp; ret; 
94187788634000: add rsp, 8; mov rax, rbp; pop rbx; pop rbp; ret; 
94187788634131: ret; 
94187788634130: pop rbp; ret; 
94187788634129: pop rbx; pop rbp; ret; 
94187788634128: or byte ptr [rbx + 0x5d], bl; ret; 
94187788634126: add esp, 8; pop rbx; pop rbp; ret; 
94187788634125: add rsp, 8; pop rbx; pop rbp; ret; 
94187788634124: ror byte ptr [rax - 0x7d], 0xc4; or byte ptr [rbx + 0x5d], bl; ret; 
94187788634123: xor eax, eax; add rsp, 8; pop rbx; pop rbp; ret; 
94187788634122: add esi, dword ptr [rcx]; ror byte ptr [rax - 0x7d], 0xc4; or byte ptr [rbx + 0x5d], bl; ret; 
94187788634121: add r14d, dword ptr [r9]; ror byte ptr [rax - 0x7d], 0xc4; or byte ptr [rbx + 0x5d], bl; ret; 
94187788634243: ret; 
94187788634242: pop rbp; ret; 
94187788634241: pop rbx; pop rbp; ret; 
94187788634240: or byte ptr [rbx + 0x5d], bl; ret; 
94187788634238: add esp, 8; pop rbx; pop rbp; ret; 
94187788634237: add rsp, 8; pop rbx; pop rbp; ret; 
94187788634236: ror byte ptr [rax - 0x7d], 0xc4; or byte ptr [rbx + 0x5d], bl; ret; 
94187788634235: xor eax, eax; add rsp, 8; pop rbx; pop rbp; ret; 
94187788634234: add esi, dword ptr [rcx]; ror byte ptr [rax - 0x7d], 0xc4; or byte ptr [rbx + 0x5d], bl; ret; 
94187788634233: add r14d, dword ptr [r9]; ror byte ptr [rax - 0x7d], 0xc4; or byte ptr [rbx + 0x5d], bl; ret; 
94187788634289: ret; 
94187788634287: xor eax, eax; ret; 
94187788634286: xor eax, eax; ret; 
94187788634283: or byte ptr [rsi + 3], 0x40; xor eax, eax; ret; 
94187788634282: or eax, 0x40034e80; xor eax, eax; ret; 
94187788634505: ret; 
94187788634504: pop rbp; ret; 
94187788634503: pop r13; ret; 
94187788634502: pop rsp; pop r13; ret; 
94187788634501: pop r12; pop r13; ret; 
94187788634500: pop rbp; pop r12; pop r13; ret; 
94187788634499: pop rbx; pop rbp; pop r12; pop r13; ret; 
94187788634498: or byte ptr [rbx + 0x5d], bl; pop r12; pop r13; ret; 
94187788634749: ret; 
94187788634746: and byte ptr [rax - 0x7d], cl; ret; 
94187788634797: ret; 
94187788634796: pop rbp; ret; 
94187788634795: pop r13; ret; 
94187788634794: pop rsp; pop r13; ret; 
94187788634793: pop r12; pop r13; ret; 
94187788634792: pop rbp; pop r12; pop r13; ret; 
94187788634791: pop rbx; pop rbp; pop r12; pop r13; ret; 
94187788634790: or byte ptr [rbx + 0x5d], bl; pop r12; pop r13; ret; 
94187788634843: ret; 
94187788634842: pop rbp; ret; 
94187788634841: pop r13; ret; 
94187788634840: pop rsp; pop r13; ret; 
94187788634839: pop r12; pop r13; ret; 
94187788634838: pop rbp; pop r12; pop r13; ret; 
94187788634837: pop rbx; pop rbp; pop r12; pop r13; ret; 
94187788634836: rcr byte ptr [rbx + 0x5d], 0x41; pop rsp; pop r13; ret; 
94187788634864: ret; 
94187788634863: pop rbp; ret; 
94187788634862: pop r13; ret; 
94187788634861: pop rsp; pop r13; ret; 
94187788634860: pop r12; pop r13; ret; 
94187788634859: pop rbp; pop r12; pop r13; ret; 
94187788634858: pop rbx; pop rbp; pop r12; pop r13; ret; 
94187788634857: rcr byte ptr [rbx + 0x5d], 0x41; pop rsp; pop r13; ret; 
94187788634878: ret; 
94187788634876: xor eax, eax; ret; 
94187788634875: xor eax, eax; ret; 
94187788634872: or byte ptr [rsi + 3], 0x40; xor eax, eax; ret; 
94187788634870: add byte ptr [rax], al; or byte ptr [rsi + 3], 0x40; xor eax, eax; ret; 
94187788634868: add byte ptr [rax], al; add byte ptr [rax], al; or byte ptr [rsi + 3], 0x40; xor eax, eax; ret; 
94187788634867: add byte ptr [rax], 0; add byte ptr [rax], al; or byte ptr [rsi + 3], 0x40; xor eax, eax; ret; 
94187788634865: nop dword ptr [rax]; or byte ptr [rsi + 3], 0x40; xor eax, eax; ret; 
94187788634864: ret; 
94187788635024: ret; 
94187788635023: pop rsp; ret; 
94187788635022: pop r12; ret; 
94187788635021: pop rbp; pop r12; ret; 
94187788635020: pop rbx; pop rbp; pop r12; ret; 
94187788635019: and byte ptr [rbx + 0x5d], bl; pop r12; ret; 
94187788635017: add esp, 0x20; pop rbx; pop rbp; pop r12; ret; 
94187788635016: add rsp, 0x20; pop rbx; pop rbp; pop r12; ret; 
94187788635145: ret; 
94187788635142: add byte ptr [rax - 0x77], cl; ret; 
94187788635140: add byte ptr [rax], al; add byte ptr [rax - 0x77], cl; ret; 
94187788635301: ret; 
94187788635300: pop rbp; ret; 
94187788635299: pop r13; ret; 
94187788635298: pop rsp; pop r13; ret; 
94187788635297: pop r12; pop r13; ret; 
94187788635296: pop rbp; pop r12; pop r13; ret; 
94187788635295: pop rbx; pop rbp; pop r12; pop r13; ret; 
94187788635294: sub byte ptr [rbx + 0x5d], bl; pop r12; pop r13; ret; 
94187788635443: ret; 
94187788635442: pop rbp; ret; 
94187788635441: pop rbx; pop rbp; ret; 
94187788635440: or byte ptr [rbx + 0x5d], bl; ret; 
94187788635438: add esp, 8; pop rbx; pop rbp; ret; 
94187788635437: add rsp, 8; pop rbx; pop rbp; ret; 
94187788635436: ror byte ptr [rax - 0x7d], 0xc4; or byte ptr [rbx + 0x5d], bl; ret; 
94187788635435: xor eax, eax; add rsp, 8; pop rbx; pop rbp; ret; 
94187788635434: or byte ptr [rcx], dh; ror byte ptr [rax - 0x7d], 0xc4; or byte ptr [rbx + 0x5d], bl; ret; 
94187788635433: or byte ptr [r9], sil; ror byte ptr [rax - 0x7d], 0xc4; or byte ptr [rbx + 0x5d], bl; ret; 
94187788635460: ret; 
94187788635459: pop rbp; ret; 
94187788635458: pop rbx; pop rbp; ret; 
94187788635456: xor eax, eax; pop rbx; pop rbp; ret; 
94187788635453: add esp, 8; xor eax, eax; pop rbx; pop rbp; ret; 
94187788635452: add rsp, 8; xor eax, eax; pop rbx; pop rbp; ret; 
94187788635451: add rsp, 8; xor eax, eax; pop rbx; pop rbp; ret; 
94187788635587: ret; 
94187788635586: pop rbx; ret; 
94187788635583: add esp, 0x30; pop rbx; ret; 
94187788635582: add rsp, 0x30; pop rbx; ret; 
94187788635579: add byte ptr [rbp + 0xf], dh; add rsp, 0x30; pop rbx; ret; 
94187788635577: add byte ptr [rax], al; add byte ptr [rbp + 0xf], dh; add rsp, 0x30; pop rbx; ret; 
94187788635812: ret; 
94187788635811: pop rsp; ret; 
94187788635810: pop r12; ret; 
94187788635809: pop rbp; pop r12; ret; 
94187788635808: pop rbx; pop rbp; pop r12; ret; 
94187788635807: and byte ptr [rbx + 0x5d], bl; pop r12; ret; 
94187788635805: add esp, 0x20; pop rbx; pop rbp; pop r12; ret; 
94187788635804: add rsp, 0x20; pop rbx; pop rbp; pop r12; ret; 
94187788635803: add rsp, 0x20; pop rbx; pop rbp; pop r12; ret; 
94187788636064: ret; 
94187788632294: jmp qword ptr [rsi + 0xf]; 
94187788632293: cli; jmp qword ptr [rsi + 0xf]; 
94187788632292: int 0xfa; jmp qword ptr [rsi + 0xf]; 
94187788634905: jmp qword ptr [rsi + 0xf]; 
94187788634921: jmp qword ptr [rsi + 0xf]; 
94187788635076: jmp qword ptr [rsi + 0x66]; 
94187788635075: cli; jmp qword ptr [rsi + 0x66]; 
94187788635071: mov eax, 0xfac2cbe8; jmp qword ptr [rsi + 0x66]; 
94187788635345: jmp qword ptr [rsi + 0x66]; 
94187788635344: cli; jmp qword ptr [rsi + 0x66]; 
94187788635340: mov esi, 0xfac1bee8; jmp qword ptr [rsi + 0x66]; 
94187788635601: jmp qword ptr [rsi + 0x66]; 
94187788635600: cli; jmp qword ptr [rsi + 0x66]; 
94187788635877: jmp qword ptr [rsi + 0x2e]; 
94187788635876: cli; jmp qword ptr [rsi + 0x2e]; 
94187788632149: ret 0x38b; 
94187788632377: ret 0x458b; 
94187788632497: ret 0x458b; 
94187788632629: ret 0x458b; 
94187788632757: ret 0x458b; 
94187788632878: ret 0x38b; 
94187788633049: ret 0x38b; 
94187788633173: ret 0x38b; 
94187788633388: ret 0x3e8; 
94187788633411: ret 0x458b; 
94187788633537: ret 0x458b; 
94187788633681: ret 0x458b; 
94187788633810: ret 0x458b; 
94187788633982: ret 0x38b; 
94187788634091: ret 0x458b; 
94187788634203: ret 0x458b; 
94187788634322: ret 0x8949; 
94187788634530: ret 0xc031; 
94187788635066: ret 0xfaee; 
94187788635064: add al, ch; ret 0xfaee; 
94187788635062: add byte ptr [rax], al; add al, ch; ret 0xfaee; 
94187788635059: sar byte ptr [rdi + 4], 0xe8; ret 0xfaee; 
94187788635057: sal byte ptr [rcx], cl; sar byte ptr [rdi + 4], 0xe8; ret 0xfaee; 
94187788635055: add byte ptr [rcx], dh; sal byte ptr [rcx], cl; sar byte ptr [rdi + 4], 0xe8; ret 0xfaee; 
94187788635074: ret 0xfffa; 
94187788635066: ret 0xfaee; 
94187788635255: ret 0x8d48; 
94187788635531: ret 0x38b; 
94187788566539: ret; 
94187788566538: pop rsp; ret; 
94187788566537: pop r12; ret; 
94187788566536: pop rbp; pop r12; ret; 
94187788566535: pop rbx; pop rbp; pop r12; ret; 
94187788566534: adc byte ptr [rbx + 0x5d], bl; pop r12; ret; 
94187788566533: add byte ptr [rax], dl; pop rbx; pop rbp; pop r12; ret; 
94187788566532: add byte ptr [rax], al; adc byte ptr [rbx + 0x5d], bl; pop r12; ret; 
94187788566851: ret; 
94187788566850: pop rbp; ret; 
94187788566849: pop r13; ret; 
94187788566848: pop rsp; pop r13; ret; 
94187788566847: pop r12; pop r13; ret; 
94187788566846: pop rbp; pop r12; pop r13; ret; 
94187788566845: pop rbx; pop rbp; pop r12; pop r13; ret; 
94187788566844: cmp byte ptr [rbx + 0x5d], bl; pop r12; pop r13; ret; 
94187788567491: ret; 
94187788567490: pop rdi; ret; 
94187788567489: pop r15; ret; 
94187788567488: pop rsi; pop r15; ret; 
94187788567487: pop r14; pop r15; ret; 
94187788567486: pop rbp; pop r14; pop r15; ret; 
94187788567485: pop r13; pop r14; pop r15; ret; 
94187788567484: pop rsp; pop r13; pop r14; pop r15; ret; 
94187788567483: pop r12; pop r13; pop r14; pop r15; ret; 
94187788567705: ret; 
94187788567704: pop rbp; ret; 
94187788567703: pop rbx; pop rbp; ret; 
94187788567702: cmp byte ptr [rbx + 0x5d], bl; ret; 
94187788567700: add esp, 0x38; pop rbx; pop rbp; ret; 
94187788567699: add rsp, 0x38; pop rbx; pop rbp; ret; 
94187788567697: add byte ptr [rax], al; add rsp, 0x38; pop rbx; pop rbp; ret; 
94187788568445: ret; 
94187788568444: pop rbx; ret; 
94187788568441: add esp, 0x30; pop rbx; ret; 
94187788568440: add rsp, 0x30; pop rbx; ret; 
94187788568437: add byte ptr [rbp + 0x18], dh; add rsp, 0x30; pop rbx; ret; 
94187788568435: add byte ptr [rax], al; add byte ptr [rbp + 0x18], dh; add rsp, 0x30; pop rbx; ret; 
94187788568648: ret; 
94187788568647: pop rsi; ret; 
94187788568646: pop r14; ret; 
94187788568645: pop rbp; pop r14; ret; 
94187788568644: pop r13; pop r14; ret; 
94187788568643: pop rsp; pop r13; pop r14; ret; 
94187788568642: pop r12; pop r13; pop r14; ret; 
94187788568641: pop rbp; pop r12; pop r13; pop r14; ret; 
94187788568640: lcall ptr [rbp + 0x41]; pop rsp; pop r13; pop r14; ret; 
94187788568934: ret; 
94187788568933: pop rsi; ret; 
94187788568932: pop r14; ret; 
94187788568931: pop rbp; pop r14; ret; 
94187788568930: pop r13; pop r14; ret; 
94187788568929: pop rsp; pop r13; pop r14; ret; 
94187788568928: pop r12; pop r13; pop r14; ret; 
94187788568927: pop rbp; pop r12; pop r13; pop r14; ret; 
94187788569535: ret; 
94187788569529: mov eax, 0xfffffffb; ret; 
94187788569528: mov rax, -5; ret; 
94187788569526: add byte ptr [rax], al; mov rax, -5; ret; 
94187788569524: add byte ptr [rax], al; add byte ptr [rax], al; mov rax, -5; ret; 
94187788569523: add byte ptr [rax], 0; add byte ptr [rax], al; mov rax, -5; ret; 
94187788569521: nop dword ptr [rax]; mov rax, -5; ret; 
94187788568198: jmp qword ptr [rax]; 
94187788567664: call rax; 
94187788567661: mov dword ptr [rdi + 0x38], edx; call rax; 
94187788567660: mov qword ptr [rdi + 0x38], rdx; call rax; 
94187788567658: add byte ptr [rax], al; mov qword ptr [rdi + 0x38], rdx; call rax; 
94187788567655: adc eax, 0x2044; mov qword ptr [rdi + 0x38], rdx; call rax; 
94187788567654: lea edx, dword ptr [rip + 0x2044]; mov qword ptr [rdi + 0x38], rdx; call rax; 
94187788567653: lea rdx, qword ptr [rip + 0x2044]; mov qword ptr [rdi + 0x38], rdx; call rax; 
94187788567652: cmp ecx, dword ptr [rax - 0x73]; adc eax, 0x2044; mov qword ptr [rdi + 0x38], rdx; call rax; 
94187788567650: sal byte ptr [rbx + rdi + 0x48], 0x8d; adc eax, 0x2044; mov qword ptr [rdi + 0x38], rdx; call rax; 
94187788567647: add byte ptr [rax - 0x7b], cl; sal byte ptr [rbx + rdi + 0x48], 0x8d; adc eax, 0x2044; mov qword ptr [rdi + 0x38], rdx; call rax; 
94187788567089: jmp qword ptr [rsi + 0xf]; 
94187788567113: jmp qword ptr [rsi + 0xf]; 
94187788567112: sti; jmp qword ptr [rsi + 0xf]; 
94187788567461: jmp qword ptr [rsi + 0x2e]; 
94187788567460: sti; jmp qword ptr [rsi + 0x2e]; 
94187788567459: idiv bl; jmp qword ptr [rsi + 0x2e]; 
94187788567573: jmp qword ptr [rsi + 0x2e]; 
94187788567606: jmp qword ptr [rsi + 0xf]; 
94187788567817: jmp qword ptr [rsi + 0xf]; 
94187788567873: jmp qword ptr [rsi + 0xf]; 
94187788568468: jmp qword ptr [rsi + 0x66]; 
94187788568467: sti; jmp qword ptr [rsi + 0x66]; 
94187788568993: jmp qword ptr [rsi + 0xf]; 
94187788569017: jmp qword ptr [rsi + 0xf]; 
94187788569077: jmp qword ptr [rsi + 0x2e]; 
94187788569161: jmp qword ptr [rsi + 0xf]; 
94187788567739: call qword ptr [rbp + 8]; 
94187788567737: mov edi, ebx; call qword ptr [rbp + 8]; 
94187788567736: mov rdi, rbx; call qword ptr [rbp + 8]; 
94187788567734: add byte ptr [rax], al; mov rdi, rbx; call qword ptr [rbp + 8]; 
94187788567731: test dword ptr [rax + 0x48000000], edx; mov edi, ebx; call qword ptr [rbp + 8]; 
94187788567729: add byte ptr [rdi], cl; test dword ptr [rax + 0x48000000], edx; mov edi, ebx; call qword ptr [rbp + 8]; 
94187788567727: add dword ptr [rax], eax; add byte ptr [rdi], cl; test dword ptr [rax + 0x48000000], edx; mov edi, ebx; call qword ptr [rbp + 8]; 
94187788568031: call qword ptr [rbx + 0x48]; 
94187788568030: sti; call qword ptr [rbx + 0x48]; 
94187788568028: mov al, 0xc8; sti; call qword ptr [rbx + 0x48]; 
94187788566980: ret 0xc8d; 
94187788566979: xchg eax, ebp; ret 0xc8d; 
94187788566977: or byte ptr [rdi], cl; xchg eax, ebp; ret 0xc8d; 
94187788566976: push rax; or byte ptr [rdi], cl; xchg eax, ebp; ret 0xc8d; 
94187788567179: ret 0xf08; 
94187788567177: add dh, dh; ret 0xf08; 
94187788567174: adc eax, 0xf6000005; ret 0xf08; 
94187788567173: xchg eax, edi; adc eax, 0xf6000005; ret 0xf08; 
94187788567172: mov dh, 0x97; adc eax, 0xf6000005; ret 0xf08; 
94187788568212: ret 0x8948; 
94187788568209: sbb byte ptr [rax + 0x29], cl; ret 0x8948; 
94187788568258: ret 0x4803; 
94187788568255: add byte ptr [rax - 0x7d], cl; ret 0x4803; 
94187788568253: add byte ptr [rax], al; add byte ptr [rax - 0x7d], cl; ret 0x4803; 
94187788568694: ret 0x8b48; 
94187788568958: ret 0xf01; 
94187788568955: dec dword ptr [rax - 0x7d]; ret 0xf01; 
94187788567422: call qword ptr [rax + 0x8478b48]; 
94187788567421: cld; call qword ptr [rax + 0x8478b48]; 
94187788567420: cmp bh, ah; call qword ptr [rax + 0x8478b48]; 
94187788567419: int1; cmp bh, ah; call qword ptr [rax + 0x8478b48]; 
94187788562494: ret; 
94187788562493: pop rdi; ret; 
94187788562492: pop r15; ret; 
94187788562491: pop rsi; pop r15; ret; 
94187788562490: pop r14; pop r15; ret; 
94187788562489: pop rbp; pop r14; pop r15; ret; 
94187788562488: pop r13; pop r14; pop r15; ret; 
94187788562487: pop rsp; pop r13; pop r14; pop r15; ret; 
94187788562486: pop r12; pop r13; pop r14; pop r15; ret; 
94187788562910: ret; 
94187788562909: pop rbp; ret; 
94187788562908: pop rbx; pop rbp; ret; 
94187788562906: mov eax, ebp; pop rbx; pop rbp; ret; 
94187788562905: mov rax, rbp; pop rbx; pop rbp; ret; 
94187788562902: add esp, 8; mov rax, rbp; pop rbx; pop rbp; ret; 
94187788562901: add rsp, 8; mov rax, rbp; pop rbx; pop rbp; ret; 
94187788563061: ret; 
94187788563060: pop rbp; ret; 
94187788563059: pop rbx; pop rbp; ret; 
94187788563057: mov eax, ebp; pop rbx; pop rbp; ret; 
94187788563056: mov rax, rbp; pop rbx; pop rbp; ret; 
94187788563053: add esp, 8; mov rax, rbp; pop rbx; pop rbp; ret; 
94187788563052: add rsp, 8; mov rax, rbp; pop rbx; pop rbp; ret; 
94187788563245: ret; 
94187788563244: pop rbp; ret; 
94187788563243: pop rbx; pop rbp; ret; 
94187788563242: or byte ptr [rbx + 0x5d], bl; ret; 
94187788563240: add esp, 8; pop rbx; pop rbp; ret; 
94187788563239: add rsp, 8; pop rbx; pop rbp; ret; 
94187788563238: ror byte ptr [rax - 0x7d], 0xc4; or byte ptr [rbx + 0x5d], bl; ret; 
94187788563237: xor eax, eax; add rsp, 8; pop rbx; pop rbp; ret; 
94187788563236: add byte ptr [rcx], dh; ror byte ptr [rax - 0x7d], 0xc4; or byte ptr [rbx + 0x5d], bl; ret; 
94187788563626: ret; 
94187788563625: pop rbp; ret; 
94187788563624: pop rbx; pop rbp; ret; 
94187788563623: or byte ptr [rbx + 0x5d], bl; ret; 
94187788563621: add esp, 8; pop rbx; pop rbp; ret; 
94187788563620: add rsp, 8; pop rbx; pop rbp; ret; 
94187788563619: ror byte ptr [rax - 0x7d], 0xc4; or byte ptr [rbx + 0x5d], bl; ret; 
94187788563618: xor eax, eax; add rsp, 8; pop rbx; pop rbp; ret; 
94187788563617: add byte ptr [rcx], dh; ror byte ptr [rax - 0x7d], 0xc4; or byte ptr [rbx + 0x5d], bl; ret; 
94187788563722: ret; 
94187788563716: mov eax, 0xfffffffe; ret; 
94187788563715: mov rax, -2; ret; 
94187788563713: add byte ptr [rax], al; mov rax, -2; ret; 
94187788563710: xchg dword ptr [rax + 0x48000004], edx; mov eax, 0xfffffffe; ret; 
94187788563709: mov dword ptr [rdi + 0x490], eax; mov rax, -2; ret; 
94187788563708: mov qword ptr [rdi + 0x490], rax; mov rax, -2; ret; 
94187788563707: adc byte ptr [rax - 0x77], cl; xchg dword ptr [rax + 0x48000004], edx; mov eax, 0xfffffffe; ret; 
94187788563706: adc byte ptr [rax - 0x77], r9b; xchg dword ptr [rax + 0x48000004], edx; mov eax, 0xfffffffe; ret; 
94187788563705: mov eax, dword ptr [rsi + 0x10]; mov qword ptr [rdi + 0x490], rax; mov rax, -2; ret; 
94187788563704: mov rax, qword ptr [rsi + 0x10]; mov qword ptr [rdi + 0x490], rax; mov rax, -2; ret; 
94187788563703: add byte ptr [rax - 0x75], cl; adc byte ptr [rax - 0x77], r9b; xchg dword ptr [rax + 0x48000004], edx; mov eax, 0xfffffffe; ret; 
94187788563702: add byte ptr [rax], al; mov rax, qword ptr [rsi + 0x10]; mov qword ptr [rdi + 0x490], rax; mov rax, -2; ret; 
94187788563885: ret; 
94187788563884: pop rbp; ret; 
94187788563883: pop rbx; pop rbp; ret; 
94187788563882: or byte ptr [rbx + 0x5d], bl; ret; 
94187788563880: add esp, 8; pop rbx; pop rbp; ret; 
94187788563879: add rsp, 8; pop rbx; pop rbp; ret; 
94187788563878: ror byte ptr [rax - 0x7d], 0xc4; or byte ptr [rbx + 0x5d], bl; ret; 
94187788563877: xor eax, eax; add rsp, 8; pop rbx; pop rbp; ret; 
94187788563876: add byte ptr [rcx], dh; ror byte ptr [rax - 0x7d], 0xc4; or byte ptr [rbx + 0x5d], bl; ret; 
94187788564279: ret; 
94187788564277: add byte ptr [rax], al; ret; 
94187788564273: mov dword ptr [rdi + 0x498], eax; ret; 
94187788564272: mov qword ptr [rdi + 0x498], rax; ret; 
94187788564822: ret; 
94187788564821: pop rsp; ret; 
94187788564820: pop r12; ret; 
94187788564819: pop rbp; pop r12; ret; 
94187788564818: pop rbx; pop rbp; pop r12; ret; 
94187788564817: rcr byte ptr [rbx + 0x5d], 0x41; pop rsp; ret; 
94187788564816: xor eax, eax; pop rbx; pop rbp; pop r12; ret; 
94187788564815: add byte ptr [rcx], dh; rcr byte ptr [rbx + 0x5d], 0x41; pop rsp; ret; 
94187788565121: ret; 
94187788565120: pop rsp; ret; 
94187788565119: pop r12; ret; 
94187788565118: pop rbp; pop r12; ret; 
94187788565117: rcr byte ptr [rbp + 0x41], 0x5c; ret; 
94187788565116: xor eax, eax; pop rbp; pop r12; ret; 
94187788565115: pop rbx; xor eax, eax; pop rbp; pop r12; ret; 
94187788565114: add byte ptr [rbx + 0x31], bl; rcr byte ptr [rbp + 0x41], 0x5c; ret; 
94187788565187: ret; 
94187788565186: pop rsp; ret; 
94187788565185: pop r12; ret; 
94187788565184: pop rbp; pop r12; ret; 
94187788565183: rcr byte ptr [rbp + 0x41], 0x5c; ret; 
94187788565182: xor eax, eax; pop rbp; pop r12; ret; 
94187788565181: pop rbx; xor eax, eax; pop rbp; pop r12; ret; 
94187788565180: add byte ptr [rbx + 0x31], bl; rcr byte ptr [rbp + 0x41], 0x5c; ret; 
94187788565333: ret; 
94187788565331: add byte ptr [rax], al; ret; 
94187788565329: add al, 0; add byte ptr [rax], al; ret; 
94187788565328: mov eax, 4; ret; 
94187788565327: add byte ptr [rax + 4], bh; ret; 
94187788565326: add byte ptr [rax], al; mov eax, 4; ret; 
94187788565325: add byte ptr [rax], al; add byte ptr [rax + 4], bh; ret; 
94187788565324: add byte ptr [rax], al; add byte ptr [rax], al; mov eax, 4; ret; 
94187788565323: add byte ptr [rax], al; add byte ptr [rax], al; add byte ptr [rax + 4], bh; ret; 
94187788565322: test byte ptr [rax], al; add byte ptr [rax], al; add byte ptr [rax], al; mov eax, 4; ret; 
94187788565320: nop dword ptr [rax + rax]; mov eax, 4; ret; 
94187788565479: ret; 
94187788565478: pop rsp; ret; 
94187788565477: pop r12; ret; 
94187788565476: pop rbp; pop r12; ret; 
94187788565475: rcr byte ptr [rbp + 0x41], 0x5c; ret; 
94187788565474: xor eax, eax; pop rbp; pop r12; ret; 
94187788565473: pop rbx; xor eax, eax; pop rbp; pop r12; ret; 
94187788565472: lcall ptr [rbx + 0x31]; rcr byte ptr [rbp + 0x41], 0x5c; ret; 
94187788565471: cld; lcall ptr [rbx + 0x31]; rcr byte ptr [rbp + 0x41], 0x5c; ret; 
94187788565470: adc eax, 0x315bfffc; rcr byte ptr [rbp + 0x41], 0x5c; ret; 
94187788565469: out dx, eax; adc eax, 0x315bfffc; rcr byte ptr [rbp + 0x41], 0x5c; ret; 
94187788565490: ret; 
94187788565488: xor eax, eax; ret; 
94187788565486: add byte ptr [rax], al; xor eax, eax; ret; 
94187788565484: add byte ptr [rax], al; add byte ptr [rax], al; xor eax, eax; ret; 
94187788565482: test byte ptr [rax], al; add byte ptr [rax], al; add byte ptr [rax], al; xor eax, eax; ret; 
94187788565480: nop dword ptr [rax + rax]; xor eax, eax; ret; 
94187788565479: ret; 
94187788565682: ret; 
94187788565681: pop rsp; ret; 
94187788565680: pop r12; ret; 
94187788565679: pop rbp; pop r12; ret; 
94187788565678: pop rbx; pop rbp; pop r12; ret; 
94187788565677: add byte ptr [rbx + 0x5d], bl; pop r12; ret; 
94187788565676: add byte ptr [rax], al; pop rbx; pop rbp; pop r12; ret; 
94187788565675: add eax, dword ptr [rax]; add byte ptr [rbx + 0x5d], bl; pop r12; ret; 
94187788565726: ret; 
94187788565725: pop rsp; ret; 
94187788565724: pop r12; ret; 
94187788565723: pop rbp; pop r12; ret; 
94187788565722: pop rbx; pop rbp; pop r12; ret; 
94187788565721: add byte ptr [rbx + 0x5d], bl; pop r12; ret; 
94187788565720: add byte ptr [rax], al; pop rbx; pop rbp; pop r12; ret; 
94187788565719: add eax, dword ptr [rax]; add byte ptr [rbx + 0x5d], bl; pop r12; ret; 
94187788565728: ret; 
94187788565727: nop; ret; 
94187788565726: ret; 
94187788565933: ret; 
94187788565931: add byte ptr [rax], al; ret; 
94187788565927: mov dword ptr [rdi + 0x418], eax; ret; 
94187788565926: mov qword ptr [rdi + 0x418], rax; ret; 
94187788565924: add byte ptr [rax], al; mov qword ptr [rdi + 0x418], rax; ret; 
94187788565920: mov dword ptr [rdi + 0x410], esi; mov qword ptr [rdi + 0x418], rax; ret; 
94187788565919: mov qword ptr [rdi + 0x410], rsi; mov qword ptr [rdi + 0x418], rax; ret; 
94187788565917: add dword ptr [rcx], eax; mov qword ptr [rdi + 0x410], rsi; mov qword ptr [rdi + 0x418], rax; ret; 
94187788565916: add dword ptr [rcx], r8d; mov qword ptr [rdi + 0x410], rsi; mov qword ptr [rdi + 0x418], rax; ret; 
94187788565915: lea eax, dword ptr [rcx + rax + 1]; mov qword ptr [rdi + 0x410], rsi; mov qword ptr [rdi + 0x418], rax; ret; 
94187788565914: lea rax, qword ptr [rcx + rax + 1]; mov qword ptr [rdi + 0x410], rsi; mov qword ptr [rdi + 0x418], rax; ret; 
94187788565912: sub esi, eax; lea rax, qword ptr [rcx + rax + 1]; mov qword ptr [rdi + 0x410], rsi; mov qword ptr [rdi + 0x418], rax; ret; 
94187788565911: sub rsi, rax; lea rax, qword ptr [rcx + rax + 1]; mov qword ptr [rdi + 0x410], rsi; mov qword ptr [rdi + 0x418], rax; ret; 
94187788565936: ret; 
94187788565935: nop; ret; 
94187788565934: nop; ret; 
94187788565933: ret; 
94187788565982: ret; 
94187788566116: ret; 
94187788566115: pop rbp; ret; 
94187788566114: pop rbx; pop rbp; ret; 
94187788566113: or byte ptr [rbx + 0x5d], bl; ret; 
94187788566111: add esp, 8; pop rbx; pop rbp; ret; 
94187788566110: add rsp, 8; pop rbx; pop rbp; ret; 
94187788566108: add byte ptr [rax], al; add rsp, 8; pop rbx; pop rbp; ret; 
94187788566104: mov dword ptr [rbx + 0x2f8], ebp; add rsp, 8; pop rbx; pop rbp; ret; 
94187788566103: mov qword ptr [rbx + 0x2f8], rbp; add rsp, 8; pop rbx; pop rbp; ret; 
94187788566245: ret; 
94187788566244: pop rsp; ret; 
94187788566243: pop r12; ret; 
94187788566242: pop rbp; pop r12; ret; 
94187788566241: pop rbx; pop rbp; pop r12; ret; 
94187788566240: sbb byte ptr [rbx + 0x5d], bl; pop r12; ret; 
94187788566239: sbb byte ptr [r11 + 0x5d], bl; pop r12; ret; 
94187788566238: mov dword ptr [rbx + 0x18], eax; pop rbx; pop rbp; pop r12; ret; 
94187788566237: mov qword ptr [rbx + 0x18], rax; pop rbx; pop rbp; pop r12; ret; 
94187788566283: ret; 
94187788566282: pop rsp; ret; 
94187788566281: pop r12; ret; 
94187788566280: pop rbp; pop r12; ret; 
94187788566279: pop rbx; pop rbp; pop r12; ret; 
94187788566278: add byte ptr [rbx + 0x5d], bl; pop r12; ret; 
94187788566277: add byte ptr [rax], al; pop rbx; pop rbp; pop r12; ret; 
94187788566276: add byte ptr [rax], al; add byte ptr [rbx + 0x5d], bl; pop r12; ret; 
94187788566422: ret; 
94187788566421: pop rbx; ret; 
94187788566419: mov eax, ebx; pop rbx; ret; 
94187788566418: mov rax, rbx; pop rbx; ret; 
94187788566416: xor ebx, ebx; mov rax, rbx; pop rbx; ret; 
94187788566414: add byte ptr [rax], al; xor ebx, ebx; mov rax, rbx; pop rbx; ret; 
94187788566413: add byte ptr [rax], r8b; xor ebx, ebx; mov rax, rbx; pop rbx; ret; 
94187788566411: nop dword ptr [rax + rax]; xor ebx, ebx; mov rax, rbx; pop rbx; ret; 
94187788566429: ret; 
94187788566426: or byte ptr [rax - 0x39], cl; ret; 
94187788566425: or byte ptr [r8 - 0x39], r9b; ret; 
94187788566422: ret; 
94187788566520: call qword ptr [rax]; 
94187788566518: mov edi, ebx; call qword ptr [rax]; 
94187788566517: mov rdi, rbx; call qword ptr [rax]; 
94187788566516: out 0x48, al; mov edi, ebx; call qword ptr [rax]; 
94187788566515: mov esi, esp; mov rdi, rbx; call qword ptr [rax]; 
94187788566514: mov rsi, r12; mov rdi, rbx; call qword ptr [rax]; 
94187788566513: add byte ptr [rcx + rcx*4 - 0x1a], cl; mov rdi, rbx; call qword ptr [rax]; 
94187788566512: or eax, 0xe6894c00; mov rdi, rbx; call qword ptr [rax]; 
94187788566511: xchg eax, esi; or eax, 0xe6894c00; mov rdi, rbx; call qword ptr [rax]; 
94187788566510: cmpsb byte ptr [rsi], byte ptr [rdi]; xchg eax, esi; or eax, 0xe6894c00; mov rdi, rbx; call qword ptr [rax]; 
94187788566509: add eax, 0xd96a6; mov rsi, r12; mov rdi, rbx; call qword ptr [rax]; 
94187788566508: lea eax, dword ptr [rip + 0xd96a6]; mov rsi, r12; mov rdi, rbx; call qword ptr [rax]; 
94187788566507: lea rax, qword ptr [rip + 0xd96a6]; mov rsi, r12; mov rdi, rbx; call qword ptr [rax]; 
94187788566506: and eax, 0xa6058d48; xchg eax, esi; or eax, 0xe6894c00; mov rdi, rbx; call qword ptr [rax]; 
94187788566504: add byte ptr [rbp + 0x25], dh; lea rax, qword ptr [rip + 0xd96a6]; mov rsi, r12; mov rdi, rbx; call qword ptr [rax]; 
94187788566409: jmp rax; 
94187788566407: mov eax, dword ptr [rax]; jmp rax; 
94187788566406: mov rax, qword ptr [rax]; jmp rax; 
94187788566405: pop rbx; mov rax, qword ptr [rax]; jmp rax; 
94187788566404: add byte ptr [rbx + 0x48], bl; mov eax, dword ptr [rax]; jmp rax; 
94187788566401: or edx, dword ptr [rdi + 0x485b000d]; mov eax, dword ptr [rax]; jmp rax; 
94187788566400: add eax, 0xd970b; pop rbx; mov rax, qword ptr [rax]; jmp rax; 
94187788566399: lea eax, dword ptr [rip + 0xd970b]; pop rbx; mov rax, qword ptr [rax]; jmp rax; 
94187788566398: lea rax, qword ptr [rip + 0xd970b]; pop rbx; mov rax, qword ptr [rax]; jmp rax; 
94187788566397: add byte ptr [rax - 0x73], cl; add eax, 0xd970b; pop rbx; mov rax, qword ptr [rax]; jmp rax; 
94187788566396: add byte ptr [rax], al; lea rax, qword ptr [rip + 0xd970b]; pop rbx; mov rax, qword ptr [rax]; jmp rax; 
94187788562822: jmp qword ptr [rsi + 0xf]; 
94187788563475: jmp qword ptr [rsi + 0x66]; 
94187788564369: jmp qword ptr [rsi + 0xf]; 
94187788564445: jmp qword ptr [rsi - 0x70]; 
94187788564497: jmp qword ptr [rsi + 0xf]; 
94187788565069: jmp qword ptr [rsi - 0x70]; 
94187788565241: jmp qword ptr [rsi + 0xf]; 
94187788562864: call qword ptr [rbp + 8]; 
94187788562862: mov edi, ebx; call qword ptr [rbp + 8]; 
94187788562861: mov rdi, rbx; call qword ptr [rbp + 8]; 
94187788562858: add byte ptr [rbp + 0x33], dh; mov rdi, rbx; call qword ptr [rbp + 8]; 
94187788562856: add dword ptr [rax], eax; add byte ptr [rbp + 0x33], dh; mov rdi, rbx; call qword ptr [rbp + 8]; 
94187788563024: call qword ptr [rbp + 8]; 
94187788563022: mov edi, ebx; call qword ptr [rbp + 8]; 
94187788563021: mov rdi, rbx; call qword ptr [rbp + 8]; 
94187788563018: add byte ptr [rbp + 0x33], dh; mov rdi, rbx; call qword ptr [rbp + 8]; 
94187788563016: add dword ptr [rax], eax; add byte ptr [rbp + 0x33], dh; mov rdi, rbx; call qword ptr [rbp + 8]; 
94187788563537: call qword ptr [rbp + 8]; 
94187788563535: mov edi, ebx; call qword ptr [rbp + 8]; 
94187788563534: mov rdi, rbx; call qword ptr [rbp + 8]; 
94187788563532: add byte ptr [rax], al; mov rdi, rbx; call qword ptr [rbp + 8]; 
94187788563529: test dword ptr [rdx + 0x48000000], eax; mov edi, ebx; call qword ptr [rbp + 8]; 
94187788563527: add byte ptr [rdi], cl; test dword ptr [rdx + 0x48000000], eax; mov edi, ebx; call qword ptr [rbp + 8]; 
94187788563525: add dword ptr [rax], eax; add byte ptr [rdi], cl; test dword ptr [rdx + 0x48000000], eax; mov edi, ebx; call qword ptr [rbp + 8]; 
94187788563169: ret 0xff25; 
94187788563179: ret 0x830f; 
94187788563202: ret 0; 
94187788563551: ret 0xc031; 
94187788563674: ret 0x754; 
94187788564317: ret 0xd189; 
94187788564316: xchg eax, esp; ret 0xd189; 
94187788564314: add cl, byte ptr [rdi]; xchg eax, esp; ret 0xd189; 
94187788564313: cli; add cl, byte ptr [rdi]; xchg eax, esp; ret 0xd189; 
94187788564310: dec dword ptr [rax - 0x7d]; cli; add cl, byte ptr [rdi]; xchg eax, esp; ret 0xd189; 
94187788564513: ret 0xfffe; 
94187788565358: ret 0x8548; 
94187788565355: dec dword ptr [rax - 0x77]; ret 0x8548; 
94187788565354: cld; dec dword ptr [rax - 0x77]; ret 0x8548; 
94187788565353: adc ah, bh; dec dword ptr [rax - 0x77]; ret 0x8548; 
94187788565352: add al, 0x10; cld; dec dword ptr [rax - 0x77]; ret 0x8548; 
94187788565433: ret 0x4901; 
94187788565430: adc cl, byte ptr [rcx - 0x7d]; ret 0x4901; 
94187788558579: ret; 
94187788558578: pop rdi; ret; 
94187788558577: pop r15; ret; 
94187788558576: pop rsi; pop r15; ret; 
94187788558575: pop r14; pop r15; ret; 
94187788558574: pop rbp; pop r14; pop r15; ret; 
94187788558573: pop r13; pop r14; pop r15; ret; 
94187788558572: pop rsp; pop r13; pop r14; pop r15; ret; 
94187788558571: pop r12; pop r13; pop r14; pop r15; ret; 
94187788558711: ret; 
94187788558708: sbb byte ptr [rax - 0x77], cl; ret; 
94187788558922: ret; 
94187788558919: add dword ptr [rax - 0x7d], ecx; ret; 
94187788559008: ret; 
94187788559005: dec dword ptr [rax - 0x39]; ret; 
94187788559004: std; dec dword ptr [rax - 0x39]; ret; 
94187788559003: push rbp; std; dec dword ptr [rax - 0x39]; ret; 
94187788559002: adc dl, byte ptr [rbp - 3]; dec dword ptr [rax - 0x39]; ret; 
94187788559000: shr al, 0x12; push rbp; std; dec dword ptr [rax - 0x39]; ret; 
94187788559053: ret; 
94187788559052: pop rdi; ret; 
94187788559051: pop r15; ret; 
94187788559050: pop rsi; pop r15; ret; 
94187788559049: pop r14; pop r15; ret; 
94187788559048: pop rbp; pop r14; pop r15; ret; 
94187788559047: pop r13; pop r14; pop r15; ret; 
94187788559046: pop rsp; pop r13; pop r14; pop r15; ret; 
94187788559045: pop r12; pop r13; pop r14; pop r15; ret; 
94187788559138: ret; 
94187788559288: ret; 
94187788559285: add esp, 8; ret; 
94187788559284: add rsp, 8; ret; 
94187788559283: or al, 0x48; add esp, 8; ret; 
94187788559281: pcmpeqw mm1, qword ptr [rax + rcx*2]; add esp, 8; ret; 
94187788559278: rol byte ptr [rbx + 0xc750fe2], 0x48; add esp, 8; ret; 
94187788559335: ret; 
94187788559332: add esp, 8; ret; 
94187788559331: add rsp, 8; ret; 
94187788559325: mov eax, 0xffffffff; add rsp, 8; ret; 
94187788559324: mov rax, -1; add rsp, 8; ret; 
94187788559319: call 0x55a9cdab37b0; mov rax, -1; add rsp, 8; ret; 
94187788559314: or eax, 0x770e9; call 0x55a9cdab37b0; mov rax, -1; add rsp, 8; ret; 
94187788559313: lea ecx, dword ptr [rip + 0x770e9]; call 0x55a9cdab37b0; mov rax, -1; add rsp, 8; ret; 
94187788559312: lea rcx, qword ptr [rip + 0x770e9]; call 0x55a9cdab37b0; mov rax, -1; add rsp, 8; ret; 
94187788559385: ret; 
94187788559382: add esp, 8; ret; 
94187788559381: add rsp, 8; ret; 
94187788559375: mov eax, 0xffffffff; add rsp, 8; ret; 
94187788559374: mov rax, -1; add rsp, 8; ret; 
94187788559369: call 0x55a9cdab37b0; mov rax, -1; add rsp, 8; ret; 
94187788559367: add byte ptr [rax], al; call 0x55a9cdab37b0; mov rax, -1; add rsp, 8; ret; 
94187788559409: ret; 
94187788559404: add eax, 0x6ecc0; ret; 
94187788559403: lea eax, dword ptr [rip + 0x6ecc0]; ret; 
94187788559402: lea rax, qword ptr [rip + 0x6ecc0]; ret; 
94187788559399: add byte ptr [rsi + rcx + 0x48], dh; lea eax, dword ptr [rip + 0x6ecc0]; ret; 
94187788559397: add byte ptr [rax], al; add byte ptr [rsi + rcx + 0x48], dh; lea eax, dword ptr [rip + 0x6ecc0]; ret; 
94187788559395: cmp byte ptr [rcx], al; add byte ptr [rax], al; add byte ptr [rsi + rcx + 0x48], dh; lea eax, dword ptr [rip + 0x6ecc0]; ret; 
94187788559394: mov edx, 0x138; add byte ptr [rsi + rcx + 0x48], dh; lea eax, dword ptr [rip + 0x6ecc0]; ret; 
94187788559391: add byte ptr [rax - 0x7d], cl; mov edx, 0x138; add byte ptr [rsi + rcx + 0x48], dh; lea eax, dword ptr [rip + 0x6ecc0]; ret; 
94187788559385: ret; 
94187788559459: ret; 
94187788559457: sbb eax, eax; ret; 
94187788559456: sbb rax, rax; ret; 
94187788559455: pop rbx; sbb rax, rax; ret; 
94187788559454: add byte ptr [rbx + 0x48], bl; sbb eax, eax; ret; 
94187788559453: add byte ptr [rax], al; pop rbx; sbb rax, rax; ret; 
94187788559452: add dword ptr [rax], eax; add byte ptr [rbx + 0x48], bl; sbb eax, eax; ret; 
94187788559451: cmp byte ptr [rcx], al; add byte ptr [rax], al; pop rbx; sbb rax, rax; ret; 
94187788559450: cmp dword ptr [rax], 1; add byte ptr [rax], al; pop rbx; sbb rax, rax; ret; 
94187788559449: mov dword ptr [rbx + 0x138], eax; pop rbx; sbb rax, rax; ret; 
94187788559448: mov qword ptr [rbx + 0x138], rax; pop rbx; sbb rax, rax; ret; 
94187788559489: ret; 
94187788559583: ret; 
94187788559582: pop rsp; ret; 
94187788559581: pop r12; ret; 
94187788559580: pop rbp; pop r12; ret; 
94187788559579: rcr byte ptr [rbp + 0x41], 0x5c; ret; 
94187788559578: xor eax, eax; pop rbp; pop r12; ret; 
94187788559577: pop rbx; xor eax, eax; pop rbp; pop r12; ret; 
94187788559574: push qword ptr [rdi + rax + 0x5b]; xor eax, eax; pop rbp; pop r12; ret; 
94187788559595: ret; 
94187788559594: pop rsp; ret; 
94187788559593: pop r12; ret; 
94187788559592: pop rbp; pop r12; ret; 
94187788559591: add byte ptr [rbp + 0x41], bl; pop rsp; ret; 
94187788559587: add eax, 0x6ec2a; pop rbp; pop r12; ret; 
94187788559586: lea eax, dword ptr [rip + 0x6ec2a]; pop rbp; pop r12; ret; 
94187788559585: lea rax, qword ptr [rip + 0x6ec2a]; pop rbp; pop r12; ret; 
94187788559584: pop rbx; lea rax, qword ptr [rip + 0x6ec2a]; pop rbp; pop r12; ret; 
94187788559583: ret; 
94187788559687: ret; 
94187788559686: pop rdi; ret; 
94187788559685: pop r15; ret; 
94187788559684: pop rsi; pop r15; ret; 
94187788559683: pop r14; pop r15; ret; 
94187788559682: pop rbp; pop r14; pop r15; ret; 
94187788559681: pop r13; pop r14; pop r15; ret; 
94187788559680: pop rsp; pop r13; pop r14; pop r15; ret; 
94187788559679: pop r12; pop r13; pop r14; pop r15; ret; 
94187788559740: ret; 
94187788559737: or byte ptr [rax - 0x7d], cl; ret; 
94187788559922: ret; 
94187788559919: add dword ptr [rax - 0x7d], ecx; ret; 
94187788560161: ret; 
94187788560244: ret; 
94187788560241: cmovne eax, edx; ret; 
94187788560240: cmovne rax, rdx; ret; 
94187788560235: add eax, 0x6e9a2; cmovne rax, rdx; ret; 
94187788560234: lea eax, dword ptr [rip + 0x6e9a2]; cmovne rax, rdx; ret; 
94187788560233: lea rax, qword ptr [rip + 0x6e9a2]; cmovne rax, rdx; ret; 
94187788560232: pop rbx; lea rax, qword ptr [rip + 0x6e9a2]; cmovne rax, rdx; ret; 
94187788560231: lcall ptr [rbx + 0x48]; lea eax, dword ptr [rip + 0x6e9a2]; cmovne rax, rdx; ret; 
94187788560230: clc; lcall ptr [rbx + 0x48]; lea eax, dword ptr [rip + 0x6e9a2]; cmovne rax, rdx; ret; 
94187788560229: cmp eax, -1; pop rbx; lea rax, qword ptr [rip + 0x6e9a2]; cmovne rax, rdx; ret; 
94187788560228: cmp rax, -1; pop rbx; lea rax, qword ptr [rip + 0x6e9a2]; cmovne rax, rdx; ret; 
94187788560267: ret; 
94187788560265: xor eax, eax; ret; 
94187788560263: add byte ptr [rax], al; xor eax, eax; ret; 
94187788560259: mov dword ptr [rdx + 0xb8], eax; xor eax, eax; ret; 
94187788560258: mov qword ptr [rdx + 0xb8], rax; xor eax, eax; ret; 
94187788560490: ret; 
94187788560489: pop rbp; ret; 
94187788560488: pop rbx; pop rbp; ret; 
94187788560485: add esp, 0x78; pop rbx; pop rbp; ret; 
94187788560484: add rsp, 0x78; pop rbx; pop rbp; ret; 
94187788560482: add byte ptr [rax], al; add rsp, 0x78; pop rbx; pop rbp; ret; 
94187788561002: ret; 
94187788561001: pop rdi; ret; 
94187788561000: pop r15; ret; 
94187788560999: pop rsi; pop r15; ret; 
94187788560998: pop r14; pop r15; ret; 
94187788560997: pop rbp; pop r14; pop r15; ret; 
94187788560996: pop r13; pop r14; pop r15; ret; 
94187788560995: pop rsp; pop r13; pop r14; pop r15; ret; 
94187788560994: pop r12; pop r13; pop r14; pop r15; ret; 
94187788561333: ret; 
94187788561332: pop rdi; ret; 
94187788561331: pop r15; ret; 
94187788561330: pop rsi; pop r15; ret; 
94187788561329: pop r14; pop r15; ret; 
94187788561328: pop rbp; pop r14; pop r15; ret; 
94187788561327: pop r13; pop r14; pop r15; ret; 
94187788561326: pop rsp; pop r13; pop r14; pop r15; ret; 
94187788561325: pop r12; pop r13; pop r14; pop r15; ret; 
94187788561344: ret; 
94187788561342: add byte ptr [rax], al; ret; 
94187788561340: add byte ptr [rax], al; add byte ptr [rax], al; ret; 
94187788561338: test byte ptr [rax], al; add byte ptr [rax], al; add byte ptr [rax], al; ret; 
94187788561336: nop dword ptr [rax + rax]; ret; 
94187788561335: nop dword ptr cs:[rax + rax]; ret; 
94187788561334: nop word ptr cs:[rax + rax]; ret; 
94187788561333: ret; 
94187788561698: ret; 
94187788561697: pop rsp; ret; 
94187788561696: pop r12; ret; 
94187788561695: pop rbp; pop r12; ret; 
94187788561694: pop rbx; pop rbp; pop r12; ret; 
94187788561693: add byte ptr [rbx + 0x5d], bl; pop r12; ret; 
94187788561692: add byte ptr [rax], al; pop rbx; pop rbp; pop r12; ret; 
94187788561691: add al, 0; add byte ptr [rbx + 0x5d], bl; pop r12; ret; 
94187788561688: add esp, 0x460; pop rbx; pop rbp; pop r12; ret; 
94187788561687: add rsp, 0x460; pop rbx; pop rbp; pop r12; ret; 
94187788561686: adc eax, 0x60c48148; add al, 0; add byte ptr [rbx + 0x5d], bl; pop r12; ret; 
94187788562145: ret; 
94187788562144: pop rdi; ret; 
94187788562143: pop r15; ret; 
94187788562142: pop rsi; pop r15; ret; 
94187788562141: pop r14; pop r15; ret; 
94187788562140: pop rbp; pop r14; pop r15; ret; 
94187788562139: pop r13; pop r14; pop r15; ret; 
94187788562138: pop rsp; pop r13; pop r14; pop r15; ret; 
94187788562137: pop r12; pop r13; pop r14; pop r15; ret; 
94187788561194: call rax; 
94187788561192: mov edi, ebx; call rax; 
94187788561191: mov rdi, rbx; call rax; 
94187788561879: call rsi; 
94187788561877: xor al, 0xd0; call rsi; 
94187788561876: lea esi, dword ptr [rax + rdx*8]; call rsi; 
94187788561875: lea r14, qword ptr [rax + rdx*8]; call rsi; 
94187788561873: mov edi, ebx; lea r14, qword ptr [rax + rdx*8]; call rsi; 
94187788561872: mov rdi, rbx; lea r14, qword ptr [rax + rdx*8]; call rsi; 
94187788561870: mov edx, dword ptr [rdx]; mov rdi, rbx; lea r14, qword ptr [rax + rdx*8]; call rsi; 
94187788561869: mov rdx, qword ptr [rdx]; mov rdi, rbx; lea r14, qword ptr [rax + rdx*8]; call rsi; 
94187788561868: mov rdx, qword ptr [rdx]; mov rdi, rbx; lea r14, qword ptr [rax + rdx*8]; call rsi; 
94187788561866: div byte ptr [rdi + rax*2 + 0x48]; mov edx, dword ptr [rdx]; mov rdi, rbx; lea r14, qword ptr [rax + rdx*8]; call rsi; 
94187788558474: jmp qword ptr [rsi + 5]; 
94187788559248: jmp qword ptr [rsi + 0x66]; 
94187788559247: sti; jmp qword ptr [rsi + 0x66]; 
94187788559885: jmp qword ptr [rsi - 0x70]; 
94187788560785: jmp qword ptr [rsi + 0xf]; 
94187788561712: jmp qword ptr [rsi + 0x66]; 
94187788561711: sti; jmp qword ptr [rsi + 0x66]; 
94187788561710: loope 0x55a9cdaded2b; jmp qword ptr [rsi + 0x66]; 
94187788561709: pop rdi; loope 0x55a9cdaded2b; jmp qword ptr [rsi + 0x66]; 
94187788561707: fsubr st(0); pop rdi; loope 0x55a9cdaded2b; jmp qword ptr [rsi + 0x66]; 
94187788558739: ret 0xda80; 
94187788558738: xchg eax, edi; ret 0xda80; 
94187788558770: ret 0xda80; 
94187788558769: xchg eax, edi; ret 0xda80; 
94187788558801: ret 0xda80; 
94187788558800: xchg eax, edi; ret 0xda80; 
94187788558952: ret 0xda80; 
94187788558951: xchg eax, edi; ret 0xda80; 
94187788559906: ret 0x8548; 
94187788559903: dec dword ptr [rcx - 0x77]; ret 0x8548; 
94187788559902: cld; dec dword ptr [rcx - 0x77]; ret 0x8548; 
94187788559901: cld; dec dword ptr [rcx - 0x77]; ret 0x8548; 
94187788560243: ret 0xfc3; 
94187788559134: call qword ptr [rax - 0x3c38b8]; 
94187788559133: std; call qword ptr [rax - 0x3c38b8]; 
94187788559132: push rsp; std; call qword ptr [rax - 0x3c38b8]; 
94187788559131: xchg eax, ecx; push rsp; std; call qword ptr [rax - 0x3c38b8]; 
94187788559129: add al, ch; xchg eax, ecx; push rsp; std; call qword ptr [rax - 0x3c38b8]; 
94187788542025: ret; 
94187788542023: add al, ch; ret; 
94187788542021: add byte ptr [rax], al; add al, ch; ret; 
94187788542103: ret; 
94187788542100: add dword ptr [rax - 0x7f], ecx; ret; 
94187788542521: ret; 
94187788542518: add dword ptr [rax - 0x7f], ecx; ret; 
94187788542924: ret; 
94187788542921: dec dword ptr [rax - 0x77]; ret; 
94187788542920: cld; dec dword ptr [rax - 0x77]; ret; 
94187788542918: xchg byte ptr [rbx - 4], ch; dec dword ptr [rax - 0x77]; ret; 
94187788542916: adc al, ch; xchg byte ptr [rbx - 4], ch; dec dword ptr [rax - 0x77]; ret; 
94187788543130: ret; 
94187788543129: pop rbp; ret; 
94187788543128: pop r13; ret; 
94187788543127: pop rsp; pop r13; ret; 
94187788543126: pop r12; pop r13; ret; 
94187788543125: pop rbp; pop r12; pop r13; ret; 
94187788543124: pop rbx; pop rbp; pop r12; pop r13; ret; 
94187788543123: or byte ptr [rbx + 0x5d], bl; pop r12; pop r13; ret; 
94187788543354: ret; 
94187788543353: pop rsp; ret; 
94187788543352: pop r12; ret; 
94187788543351: pop rbp; pop r12; ret; 
94187788543350: pop rbx; pop rbp; pop r12; ret; 
94187788543349: rcr byte ptr [rbx + 0x5d], 0x41; pop rsp; ret; 
94187788543348: xor eax, eax; pop rbx; pop rbp; pop r12; ret; 
94187788543347: add dh, byte ptr [rcx]; rcr byte ptr [rbx + 0x5d], 0x41; pop rsp; ret; 
94187788543551: ret; 
94187788543548: add dword ptr [rax - 0x7d], ecx; ret; 
94187788544033: ret; 
94187788544032: pop rdi; ret; 
94187788544031: pop r15; ret; 
94187788544030: pop rsi; pop r15; ret; 
94187788544029: pop r14; pop r15; ret; 
94187788544028: pop rbp; pop r14; pop r15; ret; 
94187788544027: pop r13; pop r14; pop r15; ret; 
94187788544026: pop rsp; pop r13; pop r14; pop r15; ret; 
94187788544025: pop r12; pop r13; pop r14; pop r15; ret; 
94187788544323: ret; 
94187788544320: add byte ptr [rax - 0x7d], cl; ret; 
94187788544318: add byte ptr [rax], al; add byte ptr [rax - 0x7d], cl; ret; 
94187788544316: and al, 1; add byte ptr [rax], al; add byte ptr [rax - 0x7d], cl; ret; 
94187788544480: ret; 
94187788544477: add dword ptr [rax - 0x7d], ecx; ret; 
94187788544475: add al, 0x24; add dword ptr [rax - 0x7d], ecx; ret; 
94187788544472: or byte ptr [rax - 0x7d], cl; add al, 0x24; add dword ptr [rax - 0x7d], ecx; ret; 
94187788544516: ret; 
94187788544515: pop rdi; ret; 
94187788544514: pop r15; ret; 
94187788544513: pop rsi; pop r15; ret; 
94187788544512: pop r14; pop r15; ret; 
94187788544511: pop rbp; pop r14; pop r15; ret; 
94187788544510: pop r13; pop r14; pop r15; ret; 
94187788544509: pop rsp; pop r13; pop r14; pop r15; ret; 
94187788544508: pop r12; pop r13; pop r14; pop r15; ret; 
94187788544641: ret; 
94187788544640: pop rdi; ret; 
94187788544639: pop r15; ret; 
94187788544638: pop rsi; pop r15; ret; 
94187788544637: pop r14; pop r15; ret; 
94187788544636: pop rbp; pop r14; pop r15; ret; 
94187788544635: pop r13; pop r14; pop r15; ret; 
94187788544634: pop rsp; pop r13; pop r14; pop r15; ret; 
94187788544633: pop r12; pop r13; pop r14; pop r15; ret; 
94187788544729: ret; 
94187788544727: add al, ch; ret; 
94187788544725: add byte ptr [rax], al; add al, ch; ret; 
94187788544766: ret; 
94187788544763: add ecx, dword ptr [rax - 0x7d]; ret; 
94187788544762: outsd dx, dword ptr [rsi]; add ecx, dword ptr [rax - 0x7d]; ret; 
94187788544830: ret; 
94187788544829: pop rsp; ret; 
94187788544828: pop r12; ret; 
94187788544827: pop rbp; pop r12; ret; 
94187788544826: lcall ptr [rbp + 0x41]; pop rsp; ret; 
94187788544821: mov eax, 0xffffffff; pop rbp; pop r12; ret; 
94187788544820: mov rax, -1; pop rbp; pop r12; ret; 
94187788544819: pop rbx; mov rax, -1; pop rbp; pop r12; ret; 
94187788544816: sal byte ptr [rbp - 0x3b], 0x5b; mov rax, -1; pop rbp; pop r12; ret; 
94187788544838: ret; 
94187788544837: pop rsp; ret; 
94187788544836: pop r12; ret; 
94187788544835: pop rbp; pop r12; ret; 
94187788544834: rcr byte ptr [rbp + 0x41], 0x5c; ret; 
94187788544833: xor eax, eax; pop rbp; pop r12; ret; 
94187788544832: pop rbx; xor eax, eax; pop rbp; pop r12; ret; 
94187788545020: ret; 
94187788545019: pop rsp; ret; 
94187788545018: pop r12; ret; 
94187788545017: pop rbp; pop r12; ret; 
94187788545016: pop rbx; pop rbp; pop r12; ret; 
94187788545015: push rax; pop rbx; pop rbp; pop r12; ret; 
94187788545013: add esp, 0x50; pop rbx; pop rbp; pop r12; ret; 
94187788545012: add rsp, 0x50; pop rbx; pop rbp; pop r12; ret; 
94187788545150: ret; 
94187788545145: sal byte ptr [rsp + rdx + 0x48], 0xc7; ret; 
94187788545344: ret; 
94187788545343: pop rbp; ret; 
94187788545342: pop rbx; pop rbp; ret; 
94187788545341: or byte ptr [rbx + 0x5d], bl; ret; 
94187788545339: add esp, 8; pop rbx; pop rbp; ret; 
94187788545338: add rsp, 8; pop rbx; pop rbp; ret; 
94187788545335: sal byte ptr [rbp - 0x22], 0x48; add esp, 8; pop rbx; pop rbp; ret; 
94187788545731: ret; 
94187788545729: xor eax, eax; ret; 
94187788545727: mov dword ptr [rax], edx; xor eax, eax; ret; 
94187788545726: mov qword ptr [rax], rdx; xor eax, eax; ret; 
94187788545724: add dword ptr [rax], eax; mov qword ptr [rax], rdx; xor eax, eax; ret; 
94187788545723: add qword ptr [rax], rax; mov qword ptr [rax], rdx; xor eax, eax; ret; 
94187788545721: adc eax, 0x148c2; mov qword ptr [rax], rdx; xor eax, eax; ret; 
94187788545720: lea edx, dword ptr [rip + 0x148c2]; mov qword ptr [rax], rdx; xor eax, eax; ret; 
94187788545719: lea rdx, qword ptr [rip + 0x148c2]; mov qword ptr [rax], rdx; xor eax, eax; ret; 
94187788545718: add byte ptr [rax - 0x73], cl; adc eax, 0x148c2; mov qword ptr [rax], rdx; xor eax, eax; ret; 
94187788545890: ret; 
94187788545888: xor eax, eax; ret; 
94187788545886: add byte ptr [rax], al; xor eax, eax; ret; 
94187788545884: mov al, 0; add byte ptr [rax], al; xor eax, eax; ret; 
94187788545882: mov dword ptr [rsi + 0xb0], eax; xor eax, eax; ret; 
94187788545881: mov qword ptr [rsi + 0xb0], rax; xor eax, eax; ret; 
94187788545877: lea eax, dword ptr [rax + rax*2 + 3]; mov qword ptr [rsi + 0xb0], rax; xor eax, eax; ret; 
94187788545876: lea rax, qword ptr [rax + rax*2 + 3]; mov qword ptr [rsi + 0xb0], rax; xor eax, eax; ret; 
94187788545875: or al, 0x48; lea eax, dword ptr [rax + rax*2 + 3]; mov qword ptr [rsi + 0xb0], rax; xor eax, eax; ret; 
94187788545921: ret; 
94187788545941: ret; 
94187788545939: xor eax, eax; ret; 
94187788545937: add byte ptr [rax], al; xor eax, eax; ret; 
94187788545935: add dword ptr [rax], eax; add byte ptr [rax], al; xor eax, eax; ret; 
94187788545933: add byte ptr [rax], al; add dword ptr [rax], eax; add byte ptr [rax], al; xor eax, eax; ret; 
94187788545990: ret; 
94187788545989: pop rbx; ret; 
94187788545987: xor eax, eax; pop rbx; ret; 
94187788545985: add byte ptr [rax], al; xor eax, eax; pop rbx; ret; 
94187788545983: add byte ptr [rax], al; add byte ptr [rax], al; xor eax, eax; pop rbx; ret; 
94187788545981: mov dword ptr [rbx], 0; xor eax, eax; pop rbx; ret; 
94187788545980: mov qword ptr [rbx], 0; xor eax, eax; pop rbx; ret; 
94187788545975: call 0x55a9cdab37b0; mov qword ptr [rbx], 0; xor eax, eax; pop rbx; ret; 
94187788545307: call rax; 
94187788545305: mov edi, ebx; call rax; 
94187788545304: mov rdi, rbx; call rax; 
94187788545302: add byte ptr [rax], al; mov rdi, rbx; call rax; 
94187788545300: add byte ptr [rax], al; add byte ptr [rax], al; mov rdi, rbx; call rax; 
94187788545299: add byte ptr [rax], 0; add byte ptr [rax], al; mov rdi, rbx; call rax; 
94187788545297: nop dword ptr [rax]; mov rdi, rbx; call rax; 
94187788543190: jmp qword ptr [rsi + 0xf]; 
94187788543622: jmp qword ptr [rsi + 0xf]; 
94187788544229: jmp qword ptr [rsi + 0x2e]; 
94187788545190: jmp qword ptr [rsi + 0xf]; 
94187788545241: jmp qword ptr [rsi + 0xf]; 
94187788543267: ret 0x7408; 
94187788543265: sbb dh, dh; ret 0x7408; 
94187788543264: push rbx; sbb dh, dh; ret 0x7408; 
94187788543263: mov dh, 0x53; sbb dh, dh; ret 0x7408; 
94187788543261: add byte ptr [rdi], cl; mov dh, 0x53; sbb dh, dh; ret 0x7408; 
94187788543259: add byte ptr [rax], al; add byte ptr [rdi], cl; mov dh, 0x53; sbb dh, dh; ret 0x7408; 
94187788543597: ret 0x8348; 
94187788543594: adc byte ptr [rax - 0x77], cl; ret 0x8348; 
94187788543591: add byte ptr [rax - 0x77], cl; adc byte ptr [rax - 0x77], cl; ret 0x8348; 
94187788543589: add byte ptr [rax], al; add byte ptr [rax - 0x77], cl; adc byte ptr [rax - 0x77], cl; ret 0x8348; 
94187788543587: adc byte ptr [rax], al; add byte ptr [rax], al; add byte ptr [rax - 0x77], cl; adc byte ptr [rax - 0x77], cl; ret 0x8348; 
94187788543586: adc byte ptr [rax], al; add byte ptr [rax], al; add byte ptr [rax - 0x77], cl; adc byte ptr [rax - 0x77], cl; ret 0x8348; 
94187788543771: ret 0x840f; 
94187788543767: add byte ptr [rbx + rdi + 0x3c], cl; ret 0x840f; 
94187788543765: add byte ptr [rax], al; add byte ptr [rbx + rdi + 0x3c], cl; ret 0x840f; 
94187788545620: ret 0xe2c1; 
94187788545619: xchg eax, edi; ret 0xe2c1; 
94187788545617: add byte ptr [rdi], cl; xchg eax, edi; ret 0xe2c1; 
94187788545615: add eax, 0x970f0000; ret 0xe2c1; 
94187788545614: sbb dword ptr [rip - 0x68f10000], eax; ret 0xe2c1; 
94187788545613: xchg dword ptr [rcx], ebx; add eax, 0x970f0000; ret 0xe2c1; 
94187788545612: mov dh, 0x87; sbb dword ptr [rip - 0x68f10000], eax; ret 0xe2c1; 
94187788545610: add byte ptr [rdi], cl; mov dh, 0x87; sbb dword ptr [rip - 0x68f10000], eax; ret 0xe2c1; 
94187788545608: add eax, dword ptr [rax]; add byte ptr [rdi], cl; mov dh, 0x87; sbb dword ptr [rip - 0x68f10000], eax; ret 0xe2c1; 
94187788545607: call 0x55a9dcadae4f; mov dh, 0x87; sbb dword ptr [rip - 0x68f10000], eax; ret 0xe2c1; 
94187788545722: ret 0x148; 
94187788545717: or eax, 0x158d4800; ret 0x148; 
94187788545853: ret 0x8b48; 
94187788545182: call qword ptr [rax + 0x36e9db31]; 
94187788546457: ret; 
94187788546454: add esp, 8; ret; 
94187788546453: add rsp, 8; ret; 
94187788546451: add byte ptr [rax], al; add rsp, 8; ret; 
94187788546447: mov dword ptr [rax + 0x250], edx; add rsp, 8; ret; 
94187788546446: mov qword ptr [rax + 0x250], rdx; add rsp, 8; ret; 
94187788546444: add byte ptr [rax], al; mov qword ptr [rax + 0x250], rdx; add rsp, 8; ret; 
94187788546440: mov dword ptr [rax + 0x248], edx; mov qword ptr [rax + 0x250], rdx; add rsp, 8; ret; 
94187788546439: mov qword ptr [rax + 0x248], rdx; mov qword ptr [rax + 0x250], rdx; add rsp, 8; ret; 
94187788546437: add byte ptr [rax], al; mov qword ptr [rax + 0x248], rdx; mov qword ptr [rax + 0x250], rdx; add rsp, 8; ret; 
94187788546515: ret; 
94187788546512: add byte ptr [rax - 0x77], cl; ret; 
94187788546510: add byte ptr [rax], al; add byte ptr [rax - 0x77], cl; ret; 
94187788546509: add byte ptr [rax], 0; add byte ptr [rax - 0x77], cl; ret; 
94187788546625: ret; 
94187788546624: pop rbp; ret; 
94187788546623: pop rbx; pop rbp; ret; 
94187788546622: fcomp dword ptr [rbx + 0x5d]; ret; 
94187788546621: mov eax, ebx; pop rbx; pop rbp; ret; 
94187788546620: mov rax, rbx; pop rbx; pop rbp; ret; 
94187788546619: or byte ptr [rax - 0x77], cl; fcomp dword ptr [rbx + 0x5d]; ret; 
94187788546617: add esp, 8; mov rax, rbx; pop rbx; pop rbp; ret; 
94187788546616: add rsp, 8; mov rax, rbx; pop rbx; pop rbp; ret; 
94187788546643: ret; 
94187788546642: pop rbp; ret; 
94187788546641: pop rbx; pop rbp; ret; 
94187788546640: fcomp dword ptr [rbx + 0x5d]; ret; 
94187788546639: mov eax, ebx; pop rbx; pop rbp; ret; 
94187788546638: mov rax, rbx; pop rbx; pop rbp; ret; 
94187788546637: or byte ptr [rax - 0x77], cl; fcomp dword ptr [rbx + 0x5d]; ret; 
94187788546635: add esp, 8; mov rax, rbx; pop rbx; pop rbp; ret; 
94187788546634: add rsp, 8; mov rax, rbx; pop rbx; pop rbp; ret; 
94187788546703: ret; 
94187788546700: add byte ptr [rax - 0x77], cl; ret; 
94187788546698: add byte ptr [rax], al; add byte ptr [rax - 0x77], cl; ret; 
94187788546781: ret; 
94187788546780: pop rbp; ret; 
94187788546779: pop rbx; pop rbp; ret; 
94187788546778: fcomp dword ptr [rbx + 0x5d]; ret; 
94187788546777: mov eax, ebx; pop rbx; pop rbp; ret; 
94187788546776: mov rax, rbx; pop rbx; pop rbp; ret; 
94187788546775: or byte ptr [rax - 0x77], cl; fcomp dword ptr [rbx + 0x5d]; ret; 
94187788546773: add esp, 8; mov rax, rbx; pop rbx; pop rbp; ret; 
94187788546772: add rsp, 8; mov rax, rbx; pop rbx; pop rbp; ret; 
94187788546795: ret; 
94187788546794: pop rbp; ret; 
94187788546793: pop rbx; pop rbp; ret; 
94187788546792: fcomp dword ptr [rbx + 0x5d]; ret; 
94187788546791: mov eax, ebx; pop rbx; pop rbp; ret; 
94187788546790: mov rax, rbx; pop rbx; pop rbp; ret; 
94187788546789: or byte ptr [rax - 0x77], cl; fcomp dword ptr [rbx + 0x5d]; ret; 
94187788546787: add esp, 8; mov rax, rbx; pop rbx; pop rbp; ret; 
94187788546786: add rsp, 8; mov rax, rbx; pop rbx; pop rbp; ret; 
94187788547045: ret; 
94187788547044: pop rdi; ret; 
94187788547043: pop r15; ret; 
94187788547042: pop rsi; pop r15; ret; 
94187788547041: pop r14; pop r15; ret; 
94187788547040: pop rbp; pop r14; pop r15; ret; 
94187788547039: pop r13; pop r14; pop r15; ret; 
94187788547038: pop rsp; pop r13; pop r14; pop r15; ret; 
94187788547037: pop r12; pop r13; pop r14; pop r15; ret; 
94187788547229: ret; 
94187788547228: pop rdi; ret; 
94187788547227: pop r15; ret; 
94187788547226: pop rsi; pop r15; ret; 
94187788547225: pop r14; pop r15; ret; 
94187788547224: pop rbp; pop r14; pop r15; ret; 
94187788547223: pop r13; pop r14; pop r15; ret; 
94187788547222: pop rsp; pop r13; pop r14; pop r15; ret; 
94187788547221: pop r12; pop r13; pop r14; pop r15; ret; 
94187788547298: ret; 
94187788547295: or ecx, dword ptr [rax - 0x7d]; ret; 
94187788547294: outsd dx, dword ptr [rsi]; or ecx, dword ptr [rax - 0x7d]; ret; 
94187788547491: ret; 
94187788547488: add dword ptr [rax - 0x7d], ecx; ret; 
94187788547486: and al, 8; add dword ptr [rax - 0x7d], ecx; ret; 
94187788547485: and al, 8; add dword ptr [rax - 0x7d], ecx; ret; 
94187788547482: or byte ptr [rax - 0x7d], cl; and al, 8; add dword ptr [rax - 0x7d], ecx; ret; 
94187788547481: or byte ptr [r8 - 0x7d], r9b; and al, 8; add dword ptr [rax - 0x7d], ecx; ret; 
94187788547589: ret; 
94187788547588: pop rdi; ret; 
94187788547587: pop r15; ret; 
94187788547586: pop rsi; pop r15; ret; 
94187788547585: pop r14; pop r15; ret; 
94187788547584: pop rbp; pop r14; pop r15; ret; 
94187788547583: pop r13; pop r14; pop r15; ret; 
94187788547582: pop rsp; pop r13; pop r14; pop r15; ret; 
94187788547581: pop r12; pop r13; pop r14; pop r15; ret; 
94187788549092: ret; 
94187788549091: pop rdi; ret; 
94187788549090: pop r15; ret; 
94187788549089: pop rsi; pop r15; ret; 
94187788549088: pop r14; pop r15; ret; 
94187788549087: pop rbp; pop r14; pop r15; ret; 
94187788549086: pop r13; pop r14; pop r15; ret; 
94187788549085: pop rsp; pop r13; pop r14; pop r15; ret; 
94187788549084: pop r12; pop r13; pop r14; pop r15; ret; 
94187788547104: jmp qword ptr [rsi + 0x66]; 
94187788547261: jmp qword ptr [rsi - 0x70]; 
94187788547260: std; jmp qword ptr [rsi - 0x70]; 
94187788547259: xchg eax, esp; std; jmp qword ptr [rsi - 0x70]; 
94187788547258: push rdx; xchg eax, esp; std; jmp qword ptr [rsi - 0x70]; 
94187788549126: jmp qword ptr [rsi + 0xf]; 
94187788550105: jmp qword ptr [rsi + 0xf]; 
94187788550125: jmp qword ptr [rsi - 0x70]; 
94187788550123: idiv bh; jmp qword ptr [rsi - 0x70]; 
94187788550122: pop rdi; idiv bh; jmp qword ptr [rsi - 0x70]; 
94187788550120: push -0x9a017; jmp qword ptr [rsi - 0x70]; 
94187788550119: push rbx; push -0x9a017; jmp qword ptr [rsi - 0x70]; 
94187788547076: ret 0x8948; 
94187788547073: dec dword ptr [rax - 0x77]; ret 0x8948; 
94187788547072: cld; dec dword ptr [rax - 0x77]; ret 0x8948; 
94187788547071: pop rdx; cld; dec dword ptr [rax - 0x77]; ret 0x8948; 
94187788547070: sahf; pop rdx; cld; dec dword ptr [rax - 0x77]; ret 0x8948; 
94187788547690: ret 0x8948; 
94187788547888: ret 0x8948; 
94187788547939: ret 0x8948; 
94187788547990: ret 0x8948; 
94187788548027: ret 0x8948; 
94187788548064: ret 0x8948; 
94187788548101: ret 0x8948; 
94187788548138: ret 0x8948; 
94187788548175: ret 0x8948; 
94187788548212: ret 0x8948; 
94187788548249: ret 0x8948; 
94187788548300: ret 0x8948; 
94187788548337: ret 0x8948; 
94187788548402: ret 0x8948; 
94187788548444: ret 0x8948; 
94187788548481: ret 0x8948; 
94187788548518: ret 0x8948; 
94187788548555: ret 0x8948; 
94187788548592: ret 0x8948; 
94187788548629: ret 0x8948; 
94187788548666: ret 0x8948; 
94187788548703: ret 0x8948; 
94187788548740: ret 0x8948; 
94187788548777: ret 0x8948; 
94187788548814: ret 0x8948; 
94187788548851: ret 0x8948; 
94187788548888: ret 0x8948; 
94187788548925: ret 0x8948; 
94187788548962: ret 0x8948; 
94187788548999: ret 0x8948; 
94187788549114: ret 0x8948; 
94187788549110: ror byte ptr [rax + 0xf], 0x44; ret 0x8948; 
94187788549107: add byte ptr [rax - 0x7b], cl; ror byte ptr [rax + 0xf], 0x44; ret 0x8948; 
94187788549105: add byte ptr [rax], al; add byte ptr [rax - 0x7b], cl; ror byte ptr [rax + 0xf], 0x44; ret 0x8948; 
ERROR: Failed to disassemble given code!
94187788644414: ret; 
94187788644413: pop rsi; ret; 
94187788644412: pop r14; ret; 
94187788644411: pop rbp; pop r14; ret; 
94187788644410: pop r13; pop r14; ret; 
94187788644409: pop rsp; pop r13; pop r14; ret; 
94187788644408: pop r12; pop r13; pop r14; ret; 
94187788644407: pop rbp; pop r12; pop r13; pop r14; ret; 
94187788644518: ret; 
94187788644515: add dword ptr [rax - 0x7d], ecx; ret; 
94187788644537: ret; 
94187788644606: ret; 
94187788644605: pop rsi; ret; 
94187788644604: pop r14; ret; 
94187788644603: pop rbp; pop r14; ret; 
94187788644602: pop r13; pop r14; ret; 
94187788644601: pop rsp; pop r13; pop r14; ret; 
94187788644600: pop r12; pop r13; pop r14; ret; 
94187788644599: pop rbp; pop r12; pop r13; pop r14; ret; 
94187788644684: ret; 
94187788644683: in al, dx; ret; 
94187788644681: bnd jne 0x55a9cdaf3138; ret; 
94187788644979: ret; 
94187788644978: pop rsi; ret; 
94187788644977: pop r14; ret; 
94187788644976: pop rbp; pop r14; ret; 
94187788644975: pop r13; pop r14; ret; 
94187788644974: pop rsp; pop r13; pop r14; ret; 
94187788644973: pop r12; pop r13; pop r14; ret; 
94187788644972: pop rbp; pop r12; pop r13; pop r14; ret; 
94187788645058: ret; 
94187788645146: ret; 
94187788645145: pop rbp; ret; 
94187788645144: pop rbx; pop rbp; ret; 
94187788645142: xor eax, eax; pop rbx; pop rbp; ret; 
94187788645139: add esp, 8; xor eax, eax; pop rbx; pop rbp; ret; 
94187788645138: add rsp, 8; xor eax, eax; pop rbx; pop rbp; ret; 
94187788645199: ret; 
94187788645198: pop rsp; ret; 
94187788645197: pop r12; ret; 
94187788645196: pop rbp; pop r12; ret; 
94187788645195: pop rbx; pop rbp; pop r12; ret; 
94187788645194: add byte ptr [rbx + 0x5d], bl; pop r12; ret; 
94187788645193: push rbp; add byte ptr [rbx + 0x5d], bl; pop r12; ret; 
94187788645192: add dword ptr [rbp], edx; pop rbx; pop rbp; pop r12; ret; 
94187788645191: add qword ptr [rbp], rdx; pop rbx; pop rbp; pop r12; ret; 
94187788645233: ret; 
94187788645231: shl byte ptr [rcx], cl; ret; 
94187788645366: ret; 
94187788645365: pop rsi; ret; 
94187788645364: pop r14; ret; 
94187788645363: pop rbp; pop r14; ret; 
94187788645362: pop r13; pop r14; ret; 
94187788645361: pop rsp; pop r13; pop r14; ret; 
94187788645360: pop r12; pop r13; pop r14; ret; 
94187788645359: pop rbp; pop r12; pop r13; pop r14; ret; 
94187788645358: rcr byte ptr [rbp + 0x41], 1; pop rsp; pop r13; pop r14; ret; 
94187788645602: ret; 
94187788645599: dec dword ptr [rax - 0x7d]; ret; 
94187788645597: idiv bh; dec dword ptr [rax - 0x7d]; ret; 
94187788645616: ret; 
94187788645819: ret; 
94187788645816: xor byte ptr [rax - 0x7d], cl; ret; 
94187788645815: insd dword ptr [rdi], dx; xor byte ptr [rax - 0x7d], cl; ret; 
94187788645878: ret; 
94187788645875: add dword ptr [rax - 0x7d], ecx; ret; 
94187788645970: ret; 
94187788646010: ret; 
94187788646009: pop rsi; ret; 
94187788646008: pop r14; ret; 
94187788646007: pop rbp; pop r14; ret; 
94187788646006: pop r13; pop r14; ret; 
94187788646005: pop rsp; pop r13; pop r14; ret; 
94187788646004: pop r12; pop r13; pop r14; ret; 
94187788646003: pop rbp; pop r12; pop r13; pop r14; ret; 
94187788646330: ret; 
94187788646327: add byte ptr [rax - 0x7d], cl; ret; 
94187788646326: add byte ptr [rax - 0x7d], cl; ret; 
94187788646918: ret; 
94187788646915: dec dword ptr [rax - 0x7d]; ret; 
94187788646950: ret; 
94187788647092: ret; 
94187788647089: add dword ptr [rax - 0x7d], ecx; ret; 
94187788647660: ret; 
94187788647659: pop rbp; ret; 
94187788647658: pop r13; ret; 
94187788647657: pop rsp; pop r13; ret; 
94187788647656: pop r12; pop r13; ret; 
94187788647655: pop rbp; pop r12; pop r13; ret; 
94187788647654: pop rbx; pop rbp; pop r12; pop r13; ret; 
94187788647653: add byte ptr [rbx + 0x5d], bl; pop r12; pop r13; ret; 
94187788647808: ret; 
94187788647807: pop rbp; ret; 
94187788647806: pop rbx; pop rbp; ret; 
94187788647805: cmp byte ptr [rbx + 0x5d], bl; ret; 
94187788647803: add esp, 0x38; pop rbx; pop rbp; ret; 
94187788647802: add rsp, 0x38; pop rbx; pop rbp; ret; 
94187788647801: add rsp, 0x38; pop rbx; pop rbp; ret; 
94187788647799: add byte ptr [rbp + 0x67], dh; add rsp, 0x38; pop rbx; pop rbp; ret; 
94187788648046: ret; 
94187788648043: add dword ptr [rax - 0x7d], ecx; ret; 
94187788648102: ret; 
94187788648101: pop rsi; ret; 
94187788648100: pop r14; ret; 
94187788648099: pop rbp; pop r14; ret; 
94187788648098: pop r13; pop r14; ret; 
94187788648097: pop rsp; pop r13; pop r14; ret; 
94187788648096: pop r12; pop r13; pop r14; ret; 
94187788648095: pop rbp; pop r12; pop r13; pop r14; ret; 
94187788648400: ret; 
94187788648399: pop rsi; ret; 
94187788648398: pop r14; ret; 
94187788648397: pop rbp; pop r14; ret; 
94187788648396: pop r13; pop r14; ret; 
94187788648395: pop rsp; pop r13; pop r14; ret; 
94187788648394: pop r12; pop r13; pop r14; ret; 
94187788648393: pop rbp; pop r12; pop r13; pop r14; ret; 
94187788644867: call qword ptr [rdx]; 
94187788644865: mov edi, esi; call qword ptr [rdx]; 
94187788644864: mov rdi, r14; call qword ptr [rdx]; 
94187788644863: add byte ptr [rcx + rcx*4 - 9], cl; call qword ptr [rdx]; 
94187788644862: add byte ptr [rax], al; mov rdi, r14; call qword ptr [rdx]; 
94187788644861: add byte ptr [rax], al; add byte ptr [rcx + rcx*4 - 9], cl; call qword ptr [rdx]; 
94187788644860: add byte ptr [rax], al; add byte ptr [rax], al; mov rdi, r14; call qword ptr [rdx]; 
94187788644859: add byte ptr [rax], 0; add byte ptr [rax], al; mov rdi, r14; call qword ptr [rdx]; 
94187788644857: nop dword ptr [rax]; mov rdi, r14; call qword ptr [rdx]; 
94187788644437: jmp qword ptr [rsi + 0x2e]; 
94187788644436: cli; jmp qword ptr [rsi + 0x2e]; 
94187788644435: sahf; cli; jmp qword ptr [rsi + 0x2e]; 
94187788644629: jmp qword ptr [rsi + 0x2e]; 
94187788644628: cli; jmp qword ptr [rsi + 0x2e]; 
94187788644627: popfq; cli; jmp qword ptr [rsi + 0x2e]; 
94187788644626: jp 0x55a9cdaf30b1; cli; jmp qword ptr [rsi + 0x2e]; 
94187788644624: shr eax, 1; jp 0x55a9cdaf30b1; cli; jmp qword ptr [rsi + 0x2e]; 
94187788645105: jmp qword ptr [rsi + 0xf]; 
94187788645104: cli; jmp qword ptr [rsi + 0xf]; 
94187788645825: jmp qword ptr [rsi + 0xf]; 
94187788645965: jmp qword ptr [rsi - 0x70]; 
94187788646262: jmp qword ptr [rsi + 0xf]; 
94187788646969: jmp qword ptr [rsi + 0xf]; 
94187788646968: cli; jmp qword ptr [rsi + 0xf]; 
94187788646967: xchg eax, esp; cli; jmp qword ptr [rsi + 0xf]; 
94187788646966: push rsi; xchg eax, esp; cli; jmp qword ptr [rsi + 0xf]; 
94187788647741: jmp qword ptr [rsi - 0x70]; 
94187788647740: cli; jmp qword ptr [rsi - 0x70]; 
94187788647739: xchg eax, ecx; cli; jmp qword ptr [rsi - 0x70]; 
94187788647738: push rdx; xchg eax, ecx; cli; jmp qword ptr [rsi - 0x70]; 
94187788647909: jmp qword ptr [rsi + 0x2e]; 
94187788647908: cli; jmp qword ptr [rsi + 0x2e]; 
94187788647907: nop; cli; jmp qword ptr [rsi + 0x2e]; 
94187788647906: stosb byte ptr [rdi], al; nop; cli; jmp qword ptr [rsi + 0x2e]; 
94187788647904: mov eax, ebp; stosb byte ptr [rdi], al; nop; cli; jmp qword ptr [rsi + 0x2e]; 
94187788648157: jmp qword ptr [rsi - 0x70]; 
94187788648156: cli; jmp qword ptr [rsi - 0x70]; 
94187788648154: mov dl, 0x8f; cli; jmp qword ptr [rsi - 0x70]; 
94187788644674: ret 0x4801; 
94187788645019: ret 0x1f0f; 
94187788645051: ret 0x4808; 
94187788645048: add ecx, dword ptr [rax - 0x7d]; ret 0x4808; 
94187788645047: add rcx, qword ptr [rax - 0x7d]; ret 0x4808; 
94187788645378: ret 0xffff; 
94187788645375: add byte ptr [rax - 0x39], cl; ret 0xffff; 
94187788645373: add byte ptr [rax], al; add byte ptr [rax - 0x39], cl; ret 0xffff; 
94187788645371: add byte ptr [rax], al; add byte ptr [rax], al; add byte ptr [rax - 0x39], cl; ret 0xffff; 
94187788645701: ret 0x473; 
94187788645711: ret 0x8b48; 
94187788645710: stosd dword ptr [rdi], eax; ret 0x8b48; 
94187788647114: ret 0xf06; 
94187788647112: sbb dh, dh; ret 0xf06; 
94187788647111: push rbp; sbb dh, dh; ret 0xf06; 
94187788647110: mov dh, 0x55; sbb dh, dh; ret 0xf06; 
94187788647835: ret 0x8948; 
94187788647832: dec dword ptr [rax - 0x77]; ret 0x8948; 
94187788647831: cli; dec dword ptr [rax - 0x77]; ret 0x8948; 
94187788647830: int 0xfa; dec dword ptr [rax - 0x77]; ret 0x8948; 
94187788649656: ret; 
94187788649655: pop rsp; ret; 
94187788649654: pop r12; ret; 
94187788649653: pop rbp; pop r12; ret; 
94187788649652: pop rbx; pop rbp; pop r12; ret; 
94187788649651: and byte ptr [rbx + 0x5d], bl; pop r12; ret; 
94187788649649: add esp, 0x20; pop rbx; pop rbp; pop r12; ret; 
94187788649648: add rsp, 0x20; pop rbx; pop rbp; pop r12; ret; 
94187788650153: ret; 
94187788650281: ret; 
94187788650280: pop rbx; ret; 
94187788650278: mov dword ptr [rbx], eax; pop rbx; ret; 
94187788650277: mov qword ptr [rbx], rax; pop rbx; ret; 
94187788650275: or eax, dword ptr [rax]; mov qword ptr [rbx], rax; pop rbx; ret; 
94187788650272: add eax, 0xb8853; mov qword ptr [rbx], rax; pop rbx; ret; 
94187788650271: lea eax, dword ptr [rip + 0xb8853]; mov qword ptr [rbx], rax; pop rbx; ret; 
94187788650270: lea rax, qword ptr [rip + 0xb8853]; mov qword ptr [rbx], rax; pop rbx; ret; 
94187788650269: lea rax, qword ptr [rip + 0xb8853]; mov qword ptr [rbx], rax; pop rbx; ret; 
94187788650268: lea rax, qword ptr [rip + 0xb8853]; mov qword ptr [rbx], rax; pop rbx; ret; 
94187788650267: mov dword ptr [rbx + 0x48], eax; lea rax, qword ptr [rip + 0xb8853]; mov qword ptr [rbx], rax; pop rbx; ret; 
94187788650266: mov qword ptr [rbx + 0x48], rax; lea rax, qword ptr [rip + 0xb8853]; mov qword ptr [rbx], rax; pop rbx; ret; 
94187788650265: dec dword ptr [rax - 0x77]; lea rax, qword ptr [rip + 0xb8853]; mov qword ptr [rbx], rax; pop rbx; ret; 
94187788650263: mov ecx, 0x8948fffe; lea rax, qword ptr [rip + 0xb8853]; mov qword ptr [rbx], rax; pop rbx; ret; 
94187788650262: mov ecx, 0x8948fffe; lea rax, qword ptr [rip + 0xb8853]; mov qword ptr [rbx], rax; pop rbx; ret; 
94187788650310: ret; 
94187788650309: pop rbx; ret; 
94187788650307: mov dword ptr [rbx], eax; pop rbx; ret; 
94187788650306: mov qword ptr [rbx], rax; pop rbx; ret; 
94187788650305: mov qword ptr [rbx], rax; pop rbx; ret; 
94187788650303: mov dword ptr [rdi + 0x48], esi; mov qword ptr [rbx], rax; pop rbx; ret; 
94187788650302: mov qword ptr [rdi + 0x48], rsi; mov qword ptr [rbx], rax; pop rbx; ret; 
94187788650300: or eax, dword ptr [rax]; mov qword ptr [rdi + 0x48], rsi; mov qword ptr [rbx], rax; pop rbx; ret; 
94187788650297: add eax, 0xb883a; mov qword ptr [rdi + 0x48], rsi; mov qword ptr [rbx], rax; pop rbx; ret; 
94187788650296: lea eax, dword ptr [rip + 0xb883a]; mov qword ptr [rdi + 0x48], rsi; mov qword ptr [rbx], rax; pop rbx; ret; 
94187788650295: lea rax, qword ptr [rip + 0xb883a]; mov qword ptr [rdi + 0x48], rsi; mov qword ptr [rbx], rax; pop rbx; ret; 
94187788650341: ret; 
94187788650339: mov dword ptr [rdi], eax; ret; 
94187788650338: mov qword ptr [rdi], rax; ret; 
94187788650336: or eax, dword ptr [rax]; mov qword ptr [rdi], rax; ret; 
94187788650333: add eax, 0xb8816; mov qword ptr [rdi], rax; ret; 
94187788650332: lea eax, dword ptr [rip + 0xb8816]; mov qword ptr [rdi], rax; ret; 
94187788650331: lea rax, qword ptr [rip + 0xb8816]; mov qword ptr [rdi], rax; ret; 
94187788650330: fisttp word ptr [rax - 0x73]; add eax, 0xb8816; mov qword ptr [rdi], rax; ret; 
94187788650329: add bh, bl; lea rax, qword ptr [rip + 0xb8816]; mov qword ptr [rdi], rax; ret; 
94187788650328: add byte ptr [rax], al; fisttp word ptr [rax - 0x73]; add eax, 0xb8816; mov qword ptr [rdi], rax; ret; 
94187788650327: add eax, 0x48df0000; lea eax, dword ptr [rip + 0xb8816]; mov qword ptr [rdi], rax; ret; 
94187788650326: adc eax, 0xdf000005; lea rax, qword ptr [rip + 0xb8816]; mov qword ptr [rdi], rax; ret; 
94187788650324: and byte ptr [rax + 0x515], 0xdf; lea rax, qword ptr [rip + 0xb8816]; mov qword ptr [rdi], rax; ret; 
94187788650323: push rax; and byte ptr [rax + 0x515], 0xdf; lea rax, qword ptr [rip + 0xb8816]; mov qword ptr [rdi], rax; ret; 
94187788650322: push r8; and byte ptr [rax + 0x515], 0xdf; lea rax, qword ptr [rip + 0xb8816]; mov qword ptr [rdi], rax; ret; 
94187788650321: mov eax, dword ptr [rdi + 0x50]; and byte ptr [rax + 0x515], 0xdf; lea rax, qword ptr [rip + 0xb8816]; mov qword ptr [rdi], rax; ret; 
94187788650320: mov rax, qword ptr [rdi + 0x50]; and byte ptr [rax + 0x515], 0xdf; lea rax, qword ptr [rip + 0xb8816]; mov qword ptr [rdi], rax; ret; 
94187788650448: ret; 
94187788650447: pop rbp; ret; 
94187788650446: pop rbx; pop rbp; ret; 
94187788650445: or byte ptr [rbx + 0x5d], bl; ret; 
94187788650443: add esp, 8; pop rbx; pop rbp; ret; 
94187788650442: add rsp, 8; pop rbx; pop rbp; ret; 
94187788650440: add ebx, dword ptr [rax]; add rsp, 8; pop rbx; pop rbp; ret; 
94187788650439: add dword ptr [rbx], 0x18; add rsp, 8; pop rbx; pop rbp; ret; 
94187788650438: add qword ptr [rbx], 0x18; add rsp, 8; pop rbx; pop rbp; ret; 
94187788650506: ret; 
94187788650505: pop rbp; ret; 
94187788650504: pop rbx; pop rbp; ret; 
94187788650503: or byte ptr [rbx + 0x5d], bl; ret; 
94187788650501: add esp, 8; pop rbx; pop rbp; ret; 
94187788650500: add rsp, 8; pop rbx; pop rbp; ret; 
94187788650498: add dword ptr [rbx], eax; add rsp, 8; pop rbx; pop rbp; ret; 
94187788650497: add qword ptr [rbx], rax; add rsp, 8; pop rbx; pop rbp; ret; 
94187788650703: ret; 
94187788650702: pop rbp; ret; 
94187788650701: pop rbx; pop rbp; ret; 
94187788650700: or byte ptr [rbx + 0x5d], bl; ret; 
94187788650698: add esp, 8; pop rbx; pop rbp; ret; 
94187788650697: add rsp, 8; pop rbx; pop rbp; ret; 
94187788650694: adc dword ptr [rbp - 0x20], eax; add rsp, 8; pop rbx; pop rbp; ret; 
94187788650693: movups xmmword ptr [rbp - 0x20], xmm0; add rsp, 8; pop rbx; pop rbp; ret; 
94187788650789: ret; 
94187788650788: pop rbp; ret; 
94187788650787: pop rbx; pop rbp; ret; 
94187788650786: or byte ptr [rbx + 0x5d], bl; ret; 
94187788650784: add esp, 8; pop rbx; pop rbp; ret; 
94187788650783: add rsp, 8; pop rbx; pop rbp; ret; 
94187788650780: adc dword ptr [rbp - 0x20], ecx; add rsp, 8; pop rbx; pop rbp; ret; 
94187788650779: movups xmmword ptr [rbp - 0x20], xmm1; add rsp, 8; pop rbx; pop rbp; ret; 
94187788650907: ret; 
94187788650906: pop rbp; ret; 
94187788650905: pop rbx; pop rbp; ret; 
94187788650904: or byte ptr [rbx + 0x5d], bl; ret; 
94187788650902: add esp, 8; pop rbx; pop rbp; ret; 
94187788650901: add rsp, 8; pop rbx; pop rbp; ret; 
94187788650898: adc dword ptr [rbx - 0x20], eax; add rsp, 8; pop rbx; pop rbp; ret; 
94187788650897: movups xmmword ptr [rbx - 0x20], xmm0; add rsp, 8; pop rbx; pop rbp; ret; 
94187788650986: ret; 
94187788650985: pop rbp; ret; 
94187788650984: pop rbx; pop rbp; ret; 
94187788650983: or byte ptr [rbx + 0x5d], bl; ret; 
94187788650981: add esp, 8; pop rbx; pop rbp; ret; 
94187788650980: add rsp, 8; pop rbx; pop rbp; ret; 
94187788650977: adc dword ptr [rbx - 0x20], ecx; add rsp, 8; pop rbx; pop rbp; ret; 
94187788650976: movups xmmword ptr [rbx - 0x20], xmm1; add rsp, 8; pop rbx; pop rbp; ret; 
94187788651349: ret; 
94187788651348: pop rdi; ret; 
94187788651347: pop r15; ret; 
94187788651346: pop rsi; pop r15; ret; 
94187788651345: pop r14; pop r15; ret; 
94187788651344: pop rbp; pop r14; pop r15; ret; 
94187788651343: pop r13; pop r14; pop r15; ret; 
94187788651342: pop rsp; pop r13; pop r14; pop r15; ret; 
94187788651341: pop r12; pop r13; pop r14; pop r15; ret; 
94187788651975: ret; 
94187788651972: adc byte ptr [rax + 1], cl; ret; 
94187788651970: out 0xff, eax; adc byte ptr [rax + 1], cl; ret; 
94187788652081: ret; 
94187788652080: pop rsp; ret; 
94187788652079: pop r12; ret; 
94187788652078: pop rbp; pop r12; ret; 
94187788652077: pop rbx; pop rbp; pop r12; ret; 
94187788652074: add esp, 0x60; pop rbx; pop rbp; pop r12; ret; 
94187788652073: add rsp, 0x60; pop rbx; pop rbp; pop r12; ret; 
94187788652072: add rsp, 0x60; pop rbx; pop rbp; pop r12; ret; 
94187788652238: ret; 
94187788652237: pop rbx; ret; 
94187788652234: mov dword ptr [rbx + 0x10], eax; pop rbx; ret; 
94187788652233: mov qword ptr [rbx + 0x10], r8; pop rbx; ret; 
94187788652231: rcl byte ptr [rax], 0x4c; mov dword ptr [rbx + 0x10], eax; pop rbx; ret; 
94187788652230: add eax, 0x10; mov qword ptr [rbx + 0x10], r8; pop rbx; ret; 
94187788652229: add r8, 0x10; mov qword ptr [rbx + 0x10], r8; pop rbx; ret; 
94187788652228: or ecx, dword ptr [rcx - 0x7d]; rcl byte ptr [rax], 0x4c; mov dword ptr [rbx + 0x10], eax; pop rbx; ret; 
94187788652226: add byte ptr [rbp + 0xb], dh; add r8, 0x10; mov qword ptr [rbx + 0x10], r8; pop rbx; ret; 
94187788652274: ret; 
94187788652273: pop rbx; ret; 
94187788652270: mov dword ptr [rbx + 0x10], eax; pop rbx; ret; 
94187788652269: mov qword ptr [rbx + 0x10], r8; pop rbx; ret; 
94187788652267: rcl byte ptr [rax], 0x4c; mov dword ptr [rbx + 0x10], eax; pop rbx; ret; 
94187788652266: add eax, 0x10; mov qword ptr [rbx + 0x10], r8; pop rbx; ret; 
94187788652265: add r8, 0x10; mov qword ptr [rbx + 0x10], r8; pop rbx; ret; 
94187788652264: adc byte ptr [rcx - 0x7d], cl; rcl byte ptr [rax], 0x4c; mov dword ptr [rbx + 0x10], eax; pop rbx; ret; 
94187788652263: adc byte ptr [r9 - 0x7d], cl; rcl byte ptr [rax], 0x4c; mov dword ptr [rbx + 0x10], eax; pop rbx; ret; 
94187788652262: mov eax, dword ptr [rbx + 0x10]; add r8, 0x10; mov qword ptr [rbx + 0x10], r8; pop rbx; ret; 
94187788652261: mov r8, qword ptr [rbx + 0x10]; add r8, 0x10; mov qword ptr [rbx + 0x10], r8; pop rbx; ret; 
94187788652389: ret; 
94187788652386: add byte ptr [rbp + 0xb], dh; ret; 
94187788652384: add dword ptr [rax], eax; add byte ptr [rbp + 0xb], dh; ret; 
94187788649011: call qword ptr [rax]; 
94187788649009: mov edi, esi; call qword ptr [rax]; 
94187788649008: mov rdi, r14; call qword ptr [rax]; 
94187788649007: add byte ptr [rcx + rcx*4 - 9], cl; call qword ptr [rax]; 
94187788649006: add byte ptr [rax], al; mov rdi, r14; call qword ptr [rax]; 
94187788649005: add byte ptr [rax], r8b; mov rdi, r14; call qword ptr [rax]; 
94187788649003: nop dword ptr [rax + rax]; mov rdi, r14; call qword ptr [rax]; 
94187788649001: xor esp, esp; nop dword ptr [rax + rax]; mov rdi, r14; call qword ptr [rax]; 
94187788649000: xor r12d, r12d; nop dword ptr [rax + rax]; mov rdi, r14; call qword ptr [rax]; 
94187788651971: call qword ptr [rax]; 
94187788651969: mov edi, esp; call qword ptr [rax]; 
94187788651968: mov rdi, r12; call qword ptr [rax]; 
94187788651967: add byte ptr [rcx + rcx*4 - 0x19], cl; call qword ptr [rax]; 
94187788651966: add byte ptr [rax], al; mov rdi, r12; call qword ptr [rax]; 
94187788651965: add byte ptr [rax], al; add byte ptr [rcx + rcx*4 - 0x19], cl; call qword ptr [rax]; 
94187788651964: add byte ptr [rax], al; add byte ptr [rax], al; mov rdi, r12; call qword ptr [rax]; 
94187788651963: add byte ptr [rax], al; add byte ptr [rax], al; add byte ptr [rcx + rcx*4 - 0x19], cl; call qword ptr [rax]; 
94187788651962: test byte ptr [rax], al; add byte ptr [rax], al; add byte ptr [rax], al; mov rdi, r12; call qword ptr [rax]; 
94187788651960: nop dword ptr [rax + rax]; mov rdi, r12; call qword ptr [rax]; 
94187788651959: nop word ptr [rax + rax]; mov rdi, r12; call qword ptr [rax]; 
94187788651957: xor ebx, ebx; nop word ptr [rax + rax]; mov rdi, r12; call qword ptr [rax]; 
94187788651569: jmp rax; 
94187788651567: add eax, edx; jmp rax; 
94187788651566: add rax, rdx; jmp rax; 
94187788651564: add al, 0x82; add rax, rdx; jmp rax; 
94187788651562: movsxd rax, dword ptr [rdx + rax*4]; add rax, rdx; jmp rax; 
94187788651561: add byte ptr [rax + 0x63], cl; add al, 0x82; add rax, rdx; jmp rax; 
94187788651559: xor al, byte ptr [rsi]; add byte ptr [rax + 0x63], cl; add al, 0x82; add rax, rdx; jmp rax; 
94187788651557: adc eax, 0x632de; movsxd rax, dword ptr [rdx + rax*4]; add rax, rdx; jmp rax; 
94187788651556: lea edx, dword ptr [rip + 0x632de]; movsxd rax, dword ptr [rdx + rax*4]; add rax, rdx; jmp rax; 
94187788651555: lea rdx, qword ptr [rip + 0x632de]; movsxd rax, dword ptr [rdx + rax*4]; add rax, rdx; jmp rax; 
94187788651554: or byte ptr [rax - 0x73], cl; adc eax, 0x632de; movsxd rax, dword ptr [rdx + rax*4]; add rax, rdx; jmp rax; 
94187788651553: or byte ptr [r8 - 0x73], r9b; adc eax, 0x632de; movsxd rax, dword ptr [rdx + rax*4]; add rax, rdx; jmp rax; 
94187788651552: mov eax, dword ptr [rbp + 8]; lea rdx, qword ptr [rip + 0x632de]; movsxd rax, dword ptr [rdx + rax*4]; add rax, rdx; jmp rax; 
94187788651551: mov rax, qword ptr [rbp + 8]; lea rdx, qword ptr [rip + 0x632de]; movsxd rax, dword ptr [rdx + rax*4]; add rax, rdx; jmp rax; 
94187788652520: jmp rax; 
94187788652519: pop rbx; jmp rax; 
94187788652516: mov eax, dword ptr [rax + 8]; pop rbx; jmp rax; 
94187788652515: mov rax, qword ptr [rax + 8]; pop rbx; jmp rax; 
94187788652512: mov dword ptr [rbx + 0x10], esi; mov rax, qword ptr [rax + 8]; pop rbx; jmp rax; 
94187788652511: mov qword ptr [rbx + 0x10], rsi; mov rax, qword ptr [rax + 8]; pop rbx; jmp rax; 
94187788652508: mov edx, dword ptr [rax + 0x10]; mov qword ptr [rbx + 0x10], rsi; mov rax, qword ptr [rax + 8]; pop rbx; jmp rax; 
94187788652507: mov rdx, qword ptr [rax + 0x10]; mov qword ptr [rbx + 0x10], rsi; mov rax, qword ptr [rax + 8]; pop rbx; jmp rax; 
94187788648545: jmp qword ptr [rsi + 0xf]; 
94187788648861: jmp qword ptr [rsi - 0x70]; 
94187788648901: jmp qword ptr [rsi + 0x2e]; 
94187788649142: jmp qword ptr [rsi + 0xf]; 
94187788649221: jmp qword ptr [rsi + 0x2e]; 
94187788649673: jmp qword ptr [rsi + 0xf]; 
94187788650025: jmp qword ptr [rsi + 0xf]; 
94187788650070: jmp qword ptr [rsi + 0xf]; 
94187788650214: jmp qword ptr [rsi + 0xf]; 
94187788650213: cli; jmp qword ptr [rsi + 0xf]; 
94187788650212: xchg edx, edi; jmp qword ptr [rsi + 0xf]; 
94187788650569: jmp qword ptr [rsi + 0xf]; 
94187788651493: jmp qword ptr [rsi + 0x2e]; 
94187788651613: jmp qword ptr [rsi - 0x70]; 
94187788651654: jmp qword ptr [rsi + 0xf]; 
94187788651813: jmp qword ptr [rsi + 0x2e]; 
94187788651812: cli; jmp qword ptr [rsi + 0x2e]; 
94187788651810: push -0x7f; cli; jmp qword ptr [rsi + 0x2e]; 
94187788652117: jmp qword ptr [rsi + 0x2e]; 
94187788652153: jmp qword ptr [rsi + 0xf]; 
94187788652152: cli; jmp qword ptr [rsi + 0xf]; 
94187788652457: jmp qword ptr [rsi + 0xf]; 
94187788652456: cli; jmp qword ptr [rsi + 0xf]; 
94187788652455: stosb byte ptr [rdi], al; cli; jmp qword ptr [rsi + 0xf]; 
94187788652454: salc; stosb byte ptr [rdi], al; cli; jmp qword ptr [rsi + 0xf]; 
94187788652452: shr cl, 0xd6; stosb byte ptr [rdi], al; cli; jmp qword ptr [rsi + 0xf]; 
94187788652450: sal byte ptr [rcx], cl; shr cl, 0xd6; stosb byte ptr [rdi], al; cli; jmp qword ptr [rsi + 0xf]; 
94187788648810: ret 0x4810; 
94187788648807: or cl, byte ptr [rax - 0x7d]; ret 0x4810; 
94187788649303: ret 0x4808; 
94187788649300: add cl, byte ptr [rax - 0x7d]; ret 0x4808; 
94187788649298: add al, 0x2b; add cl, byte ptr [rax - 0x7d]; ret 0x4808; 
94187788649297: add al, 0x2b; add cl, byte ptr [rax - 0x7d]; ret 0x4808; 
94187788649787: ret 0x7404; 
94187788649785: or dh, dh; ret 0x7404; 
94187788649784: or r14b, sil; ret 0x7404; 
94187788649781: or byte ptr [rax - 0x77], cl; or r14b, sil; ret 0x7404; 
94187788649821: ret 0x8826; 
94187788650127: ret 0x8948; 
94187788650124: cmp byte ptr [rax - 0x77], cl; ret 0x8948; 
94187788650123: cmp byte ptr [r8 - 0x77], cl; ret 0x8948; 
94187788650120: add byte ptr [rax - 0x75], cl; cmp byte ptr [r8 - 0x77], cl; ret 0x8948; 
94187788650118: add al, 0; add byte ptr [rax - 0x75], cl; cmp byte ptr [r8 - 0x77], cl; ret 0x8948; 
94187788650117: add byte ptr [rax + rax], al; add byte ptr [rax - 0x75], cl; cmp byte ptr [r8 - 0x77], cl; ret 0x8948; 
94187788650116: test dword ptr [rax], eax; add al, 0; add byte ptr [rax - 0x75], cl; cmp byte ptr [r8 - 0x77], cl; ret 0x8948; 
94187788651373: ret 0x894c; 
94187788652040: ret 0x8110; 
94187788652037: or byte ptr [rax - 0x7d], cl; ret 0x8110; 
94187788652036: or byte ptr [rax - 0x7d], cl; ret 0x8110; 
94187788652033: cmovs ecx, dword ptr [rcx - 0x7cb7f7be]; ret 0x8110; 
94187788652027: or al, byte ptr [rcx - 0x1a]; cmovs ecx, dword ptr [rcx - 0x7cb7f7be]; ret 0x8110; 
94187788652448: ret 0xd231; 
94187788651678: call qword ptr [rax - 0x7edb7b0a]; 
94187788651694: call qword ptr [rax - 0x7edb7b0a]; 
94187788571133: ret; 
94187788571132: pop rdi; ret; 
94187788571131: pop r15; ret; 
94187788571130: pop rsi; pop r15; ret; 
94187788571129: pop r14; pop r15; ret; 
94187788571128: pop rbp; pop r14; pop r15; ret; 
94187788571127: pop r13; pop r14; pop r15; ret; 
94187788571126: pop rsp; pop r13; pop r14; pop r15; ret; 
94187788571125: pop r12; pop r13; pop r14; pop r15; ret; 
94187788571455: ret; 
94187788571454: pop rbx; ret; 
94187788571448: mov eax, 0xfffffffc; pop rbx; ret; 
94187788571447: mov rax, -4; pop rbx; ret; 
94187788571442: call 0x55a9cdadad50; mov rax, -4; pop rbx; ret; 
94187788571440: add byte ptr [rcx], al; call 0x55a9cdadad50; mov rax, -4; pop rbx; ret; 
94187788571435: add dword ptr [rax + 0x510], 1; call 0x55a9cdadad50; mov rax, -4; pop rbx; ret; 
94187788571434: add word ptr [rax + 0x510], 1; call 0x55a9cdadad50; mov rax, -4; pop rbx; ret; 
94187788571498: ret; 
94187788571497: pop rbx; ret; 
94187788571491: mov eax, 0xfffffffc; pop rbx; ret; 
94187788571490: mov rax, -4; pop rbx; ret; 
94187788571488: add byte ptr [rax], al; mov rax, -4; pop rbx; ret; 
94187788571487: add byte ptr [rax], r8b; mov rax, -4; pop rbx; ret; 
94187788571485: call 0x55a9cdae5a30; mov rax, -4; pop rbx; ret; 
94187788571483: add byte ptr [rcx], al; call 0x55a9cdae5a30; mov rax, -4; pop rbx; ret; 
94187788571478: add dword ptr [rax + 0x510], 1; call 0x55a9cdae5a30; mov rax, -4; pop rbx; ret; 
94187788571477: add word ptr [rax + 0x510], 1; call 0x55a9cdae5a30; mov rax, -4; pop rbx; ret; 
94187788571980: ret; 
94187788571979: pop rdi; ret; 
94187788571978: pop r15; ret; 
94187788571977: pop rsi; pop r15; ret; 
94187788571976: pop r14; pop r15; ret; 
94187788571975: pop rbp; pop r14; pop r15; ret; 
94187788571974: pop r13; pop r14; pop r15; ret; 
94187788571973: pop rsp; pop r13; pop r14; pop r15; ret; 
94187788571972: pop r12; pop r13; pop r14; pop r15; ret; 
94187788572009: ret; 
94187788572007: fucompi st(0); ret; 
94187788572004: add byte ptr [rax - 0x77], cl; fucompi st(0); ret; 
94187788572002: add dword ptr [rax], eax; add byte ptr [rax - 0x77], cl; fucompi st(0); ret; 
94187788572001: hlt; add dword ptr [rax], eax; add byte ptr [rax - 0x77], cl; fucompi st(0); ret; 
94187788572259: ret; 
94187788572254: sal byte ptr [rsp + rbx*2 + 0x48], 0x89; ret; 
94187788572251: dec dword ptr [rax - 0x7b]; sal byte ptr [rsp + rbx*2 + 0x48], 0x89; ret; 
94187788572250: sti; dec dword ptr [rax - 0x7b]; sal byte ptr [rsp + rbx*2 + 0x48], 0x89; ret; 
94187788572249: hlt; sti; dec dword ptr [rax - 0x7b]; sal byte ptr [rsp + rbx*2 + 0x48], 0x89; ret; 
94187788572248: mov ah, 0xf4; sti; dec dword ptr [rax - 0x7b]; sal byte ptr [rsp + rbx*2 + 0x48], 0x89; ret; 
94187788572322: ret; 
94187788572321: pop rsp; ret; 
94187788572320: pop r12; ret; 
94187788572319: pop rbp; pop r12; ret; 
94187788572318: pop rbx; pop rbp; pop r12; ret; 
94187788572317: fcomp dword ptr [rbx + 0x5d]; pop r12; ret; 
94187788572316: mov eax, ebx; pop rbx; pop rbp; pop r12; ret; 
94187788572315: mov rax, rbx; pop rbx; pop rbp; pop r12; ret; 
94187788572314: xor eax, 0x5bd88948; pop rbp; pop r12; ret; 
94187788572358: ret; 
94187788572357: pop rsp; ret; 
94187788572356: pop r12; ret; 
94187788572355: pop rbp; pop r12; ret; 
94187788572354: pop rbx; pop rbp; pop r12; ret; 
94187788572353: fcomp dword ptr [rbx + 0x5d]; pop r12; ret; 
94187788572352: mov eax, ebx; pop rbx; pop rbp; pop r12; ret; 
94187788572351: mov rax, rbx; pop rbx; pop rbp; pop r12; ret; 
94187788572350: fisttp dword ptr [rax - 0x77]; fcomp dword ptr [rbx + 0x5d]; pop r12; ret; 
94187788572399: ret; 
94187788572398: pop rsp; ret; 
94187788572397: pop r12; ret; 
94187788572396: pop rbp; pop r12; ret; 
94187788572395: pop rbx; pop rbp; pop r12; ret; 
94187788572394: fcomp dword ptr [rbx + 0x5d]; pop r12; ret; 
94187788572393: mov eax, ebx; pop rbx; pop rbp; pop r12; ret; 
94187788572392: mov rax, rbx; pop rbx; pop rbp; pop r12; ret; 
94187788572391: dec dword ptr [rax - 0x77]; fcomp dword ptr [rbx + 0x5d]; pop r12; ret; 
94187788572390: sti; dec dword ptr [rax - 0x77]; fcomp dword ptr [rbx + 0x5d]; pop r12; ret; 
94187788572478: ret; 
94187788572475: add byte ptr [rax - 0x77], cl; ret; 
94187788572593: ret; 
94187788572592: pop rsi; ret; 
94187788572591: pop r14; ret; 
94187788572590: pop rbp; pop r14; ret; 
94187788572589: pop r13; pop r14; ret; 
94187788572588: pop rsp; pop r13; pop r14; ret; 
94187788572587: pop r12; pop r13; pop r14; ret; 
94187788572586: pop rbp; pop r12; pop r13; pop r14; ret; 
94187788572624: ret; 
94187788572786: ret; 
94187788572785: pop rdi; ret; 
94187788572784: pop r15; ret; 
94187788572783: pop rsi; pop r15; ret; 
94187788572782: pop r14; pop r15; ret; 
94187788572781: pop rbp; pop r14; pop r15; ret; 
94187788572780: pop r13; pop r14; pop r15; ret; 
94187788572779: pop rsp; pop r13; pop r14; pop r15; ret; 
94187788572778: pop r12; pop r13; pop r14; pop r15; ret; 
94187788572813: ret; 
94187788572812: pop rdi; ret; 
94187788572811: pop r15; ret; 
94187788572810: pop rsi; pop r15; ret; 
94187788572809: pop r14; pop r15; ret; 
94187788572808: pop rbp; pop r14; pop r15; ret; 
94187788572807: pop r13; pop r14; pop r15; ret; 
94187788572806: pop rsp; pop r13; pop r14; pop r15; ret; 
94187788572805: pop r12; pop r13; pop r14; pop r15; ret; 
94187788573192: ret; 
94187788573191: pop rsi; ret; 
94187788573190: pop r14; ret; 
94187788573189: pop rbp; pop r14; ret; 
94187788573188: pop r13; pop r14; ret; 
94187788573187: pop rsp; pop r13; pop r14; ret; 
94187788573186: pop r12; pop r13; pop r14; ret; 
94187788573185: pop rbp; pop r12; pop r13; pop r14; ret; 
94187788574043: ret; 
94187788574042: pop rdi; ret; 
94187788574041: pop r15; ret; 
94187788574040: pop rsi; pop r15; ret; 
94187788574039: pop r14; pop r15; ret; 
94187788574038: pop rbp; pop r14; pop r15; ret; 
94187788574037: pop r13; pop r14; pop r15; ret; 
94187788574036: pop rsp; pop r13; pop r14; pop r15; ret; 
94187788574035: pop r12; pop r13; pop r14; pop r15; ret; 
94187788571105: jmp qword ptr [rsi + 0xf]; 
94187788571104: sti; jmp qword ptr [rsi + 0xf]; 
94187788571542: jmp qword ptr [rsi + 0xf]; 
94187788573320: jmp qword ptr [rsi + 0xf]; 
94187788573319: cld; jmp qword ptr [rsi + 0xf]; 
94187788573317: xchg dword ptr [rdi], esi; cld; jmp qword ptr [rsi + 0xf]; 
94187788574097: jmp qword ptr [rsi + 0xf]; 
94187788574153: jmp qword ptr [rsi + 0xf]; 
94187788574193: jmp qword ptr [rsi + 0xf]; 
94187788570703: ret 0xc; 
94187788570702: pop rsi; ret 0xc; 
94187788571180: ret 0x8b48; 
94187788571946: ret 0xff97; 
94187788573366: ret 0xa30; 
94187788573364: mov bh, 0x15; ret 0xa30; 
94187788573407: ret 0xf41; 
94187788574643: ret 0x4801; 
94187788574640: add byte ptr [rax - 0x7d], cl; ret 0x4801; 
94187788574638: add dword ptr [rax], eax; add byte ptr [rax - 0x7d], cl; ret 0x4801; 
94187788574637: outsd dx, dword ptr [rsi]; add dword ptr [rax], eax; add byte ptr [rax - 0x7d], cl; ret 0x4801; 
94187788574633: push 0x6f840fb8; add dword ptr [rax], eax; add byte ptr [rax - 0x7d], cl; ret 0x4801; 
94187788574629: ror byte ptr [rax + 0x48], 0x39; push 0x6f840fb8; add dword ptr [rax], eax; add byte ptr [rax - 0x7d], cl; ret 0x4801; 
94187788571054: call qword ptr [rax + 0x78878949]; 
94187788578968: ret; 
94187788578967: pop rbp; ret; 
94187788578966: pop rbx; pop rbp; ret; 
94187788578965: or byte ptr [rbx + 0x5d], bl; ret; 
94187788578963: add esp, 8; pop rbx; pop rbp; ret; 
94187788578962: add rsp, 8; pop rbx; pop rbp; ret; 
94187788578959: mov dword ptr [rax + 0x28], edx; add rsp, 8; pop rbx; pop rbp; ret; 
94187788578958: mov qword ptr [rax + 0x28], rdx; add rsp, 8; pop rbx; pop rbp; ret; 
94187788578988: ret; 
94187788578986: xor eax, eax; ret; 
94187788579113: ret; 
94187788579112: pop rsp; ret; 
94187788579111: pop r12; ret; 
94187788579110: pop rbp; pop r12; ret; 
94187788579109: rcr byte ptr [rbp + 0x41], 0x5c; ret; 
94187788579108: xor eax, eax; pop rbp; pop r12; ret; 
94187788579107: pop rbx; xor eax, eax; pop rbp; pop r12; ret; 
94187788579489: ret; 
94187788579488: pop rbp; ret; 
94187788579487: pop rbx; pop rbp; ret; 
94187788579485: xor eax, eax; pop rbx; pop rbp; ret; 
94187788579482: add esp, 8; xor eax, eax; pop rbx; pop rbp; ret; 
94187788579481: add rsp, 8; xor eax, eax; pop rbx; pop rbp; ret; 
94187788579549: ret; 
94187788579548: pop rbp; ret; 
94187788579547: pop rbx; pop rbp; ret; 
94187788579545: xor eax, eax; pop rbx; pop rbp; ret; 
94187788579542: add esp, 8; xor eax, eax; pop rbx; pop rbp; ret; 
94187788579541: add rsp, 8; xor eax, eax; pop rbx; pop rbp; ret; 
94187788579577: ret; 
94187788579723: ret; 
94187788579773: ret; 
94187788579772: pop rdi; ret; 
94187788579771: pop r15; ret; 
94187788579770: pop rsi; pop r15; ret; 
94187788579769: pop r14; pop r15; ret; 
94187788579768: pop rbp; pop r14; pop r15; ret; 
94187788579767: pop r13; pop r14; pop r15; ret; 
94187788579766: pop rsp; pop r13; pop r14; pop r15; ret; 
94187788579765: pop r12; pop r13; pop r14; pop r15; ret; 
94187788579797: ret; 
94187788579796: pop rdi; ret; 
94187788579795: pop r15; ret; 
94187788579794: pop rsi; pop r15; ret; 
94187788579793: pop r14; pop r15; ret; 
94187788579792: pop rbp; pop r14; pop r15; ret; 
94187788579791: pop r13; pop r14; pop r15; ret; 
94187788579790: pop rsp; pop r13; pop r14; pop r15; ret; 
94187788579789: pop r12; pop r13; pop r14; pop r15; ret; 
94187788580056: ret; 
94187788580055: pop rdi; ret; 
94187788580054: pop r15; ret; 
94187788580053: pop rsi; pop r15; ret; 
94187788580052: pop r14; pop r15; ret; 
94187788580051: pop rbp; pop r14; pop r15; ret; 
94187788580050: pop r13; pop r14; pop r15; ret; 
94187788580049: pop rsp; pop r13; pop r14; pop r15; ret; 
94187788580048: pop r12; pop r13; pop r14; pop r15; ret; 
94187788580157: ret; 
94187788580156: pop rdi; ret; 
94187788580155: pop r15; ret; 
94187788580154: pop rsi; pop r15; ret; 
94187788580153: pop r14; pop r15; ret; 
94187788580152: pop rbp; pop r14; pop r15; ret; 
94187788580151: pop r13; pop r14; pop r15; ret; 
94187788580150: pop rsp; pop r13; pop r14; pop r15; ret; 
94187788580149: pop r12; pop r13; pop r14; pop r15; ret; 
94187788580363: ret; 
94187788580357: mov eax, 0xfffffffb; ret; 
94187788580356: mov rax, -5; ret; 
94187788580832: ret; 
94187788580831: pop rdi; ret; 
94187788580830: pop r15; ret; 
94187788580829: pop rsi; pop r15; ret; 
94187788580828: pop r14; pop r15; ret; 
94187788580827: pop rbp; pop r14; pop r15; ret; 
94187788580826: pop r13; pop r14; pop r15; ret; 
94187788580825: pop rsp; pop r13; pop r14; pop r15; ret; 
94187788580824: pop r12; pop r13; pop r14; pop r15; ret; 
94187788581561: ret; 
94187788581738: ret; 
94187788581737: pop rbx; ret; 
94187788581735: add al, byte ptr [rcx]; pop rbx; ret; 
94187788581734: add dword ptr [rdx], 1; pop rbx; ret; 
94187788581733: add qword ptr [rdx], 1; pop rbx; ret; 
94187788581732: lock add qword ptr [rdx], 1; pop rbx; ret; 
94187788581731: adc dh, al; add qword ptr [rdx], 1; pop rbx; ret; 
94187788581730: mov edx, dword ptr [rdx]; lock add qword ptr [rdx], 1; pop rbx; ret; 
94187788581729: mov rdx, qword ptr [rdx]; lock add qword ptr [rdx], 1; pop rbx; ret; 
94187788581728: mov rdx, qword ptr [rdx]; lock add qword ptr [rdx], 1; pop rbx; ret; 
94187788581727: add byte ptr [rax + 0x48], al; mov edx, dword ptr [rdx]; lock add qword ptr [rdx], 1; pop rbx; ret; 
94187788581726: add byte ptr [rax], al; mov rdx, qword ptr [rdx]; lock add qword ptr [rdx], 1; pop rbx; ret; 
94187788581725: add eax, 0x48400000; mov edx, dword ptr [rdx]; lock add qword ptr [rdx], 1; pop rbx; ret; 
94187788581811: ret; 
94187788581808: dec dword ptr [rax - 0x77]; ret; 
94187788581807: sti; dec dword ptr [rax - 0x77]; ret; 
94187788581806: cwde; sti; dec dword ptr [rax - 0x77]; ret; 
94187788581805: scasd eax, dword ptr [rdi]; cwde; sti; dec dword ptr [rax - 0x77]; ret; 
94187788582305: ret; 
94187788582304: pop rbp; ret; 
94187788582303: pop r13; ret; 
94187788582302: pop rsp; pop r13; ret; 
94187788582301: pop r12; pop r13; ret; 
94187788582300: pop rbp; pop r12; pop r13; ret; 
94187788582299: pop rbx; pop rbp; pop r12; pop r13; ret; 
94187788582298: cmp byte ptr [rbx + 0x5d], bl; pop r12; pop r13; ret; 
94187788582539: ret; 
94187788582538: pop rsp; ret; 
94187788582537: pop r12; ret; 
94187788582536: pop rbp; pop r12; ret; 
94187788582535: pop rbx; pop rbp; pop r12; ret; 
94187788582534: cwde; pop rbx; pop rbp; pop r12; ret; 
94187788582532: and byte ptr [rax + rbx*4 + 0x5b], dh; pop rbp; pop r12; ret; 
94187788582530: add byte ptr [rax], al; and byte ptr [rax + rbx*4 + 0x5b], dh; pop rbp; pop r12; ret; 
94187788582544: ret; 
94187788582540: nop dword ptr [rax]; ret; 
94187788582539: ret; 
94187788582630: ret; 
94187788582629: pop rbx; ret; 
94187788582627: xor eax, eax; pop rbx; ret; 
94187788582625: mov dword ptr [rcx], esi; xor eax, eax; pop rbx; ret; 
94187788582624: mov qword ptr [rcx], rsi; xor eax, eax; pop rbx; ret; 
94187788582622: ror dword ptr [rax], 0x48; mov dword ptr [rcx], esi; xor eax, eax; pop rbx; ret; 
94187788582621: add ecx, 8; mov qword ptr [rcx], rsi; xor eax, eax; pop rbx; ret; 
94187788582620: add rcx, 8; mov qword ptr [rcx], rsi; xor eax, eax; pop rbx; ret; 
94187788582667: ret; 
94187788582666: pop rbx; ret; 
94187788582663: or eax, 0xffffffff; pop rbx; ret; 
94187788582662: or rax, 0xffffffffffffffff; pop rbx; ret; 
94187788582659: sal byte ptr [rbp - 0x5d], 0x48; or eax, 0xffffffff; pop rbx; ret; 
94187788582807: ret; 
94187788582806: pop rbp; ret; 
94187788582805: pop rbx; pop rbp; ret; 
94187788582804: sub byte ptr [rbx + 0x5d], bl; ret; 
94187788582802: add esp, 0x28; pop rbx; pop rbp; ret; 
94187788582801: add rsp, 0x28; pop rbx; pop rbp; ret; 
94187788582798: add byte ptr [rbp + 0x37], dh; add rsp, 0x28; pop rbx; pop rbp; ret; 
94187788582821: ret; 
94187788582819: and bl, ch; ret; 
94187788582818: and bl, bpl; ret; 
94187788582817: and bl, bpl; ret; 
94187788582815: add byte ptr [rax - 0x14dfb7b8], al; ret; 
94187788582813: add byte ptr [rax], al; add byte ptr [rax - 0x14dfb7b8], al; ret; 
94187788582811: add byte ptr [rax], al; add byte ptr [rax], al; add byte ptr [rax - 0x14dfb7b8], al; ret; 
94187788582807: ret; 
94187788582857: ret; 
94187788581142: jmp rax; 
94187788581141: pop rdi; jmp rax; 
94187788581140: pop r15; jmp rax; 
94187788581139: pop rsi; pop r15; jmp rax; 
94187788581138: pop r14; pop r15; jmp rax; 
94187788581137: pop rbp; pop r14; pop r15; jmp rax; 
94187788581136: pop r13; pop r14; pop r15; jmp rax; 
94187788581135: pop rsp; pop r13; pop r14; pop r15; jmp rax; 
94187788581134: pop r12; pop r13; pop r14; pop r15; jmp rax; 
94187788578909: jmp qword ptr [rsi - 0x70]; 
94187788578908: sti; jmp qword ptr [rsi - 0x70]; 
94187788578907: fsincos; jmp qword ptr [rsi - 0x70]; 
94187788578906: add bl, cl; sti; jmp qword ptr [rsi - 0x70]; 
94187788579412: jmp qword ptr [rsi + 0x66]; 
94187788579837: jmp qword ptr [rsi - 0x70]; 
94187788579942: jmp qword ptr [rsi + 0xf]; 
94187788580273: jmp qword ptr [rsi + 0xf]; 
94187788581001: jmp qword ptr [rsi + 0xf]; 
94187788580999: idiv edi; jmp qword ptr [rsi + 0xf]; 
94187788581117: jmp qword ptr [rsi - 0x70]; 
94187788581302: jmp qword ptr [rsi + 0xf]; 
94187788581301: sti; jmp qword ptr [rsi + 0xf]; 
94187788581574: jmp qword ptr [rsi + 0xf]; 
94187788582345: jmp qword ptr [rsi + 0xf]; 
94187788582344: sti; jmp qword ptr [rsi + 0xf]; 
94187788582343: nop; sti; jmp qword ptr [rsi + 0xf]; 
94187788582419: call qword ptr [rbx + 0x38]; 
94187788582417: mov edi, ebx; call qword ptr [rbx + 0x38]; 
94187788582416: mov rdi, rbx; call qword ptr [rbx + 0x38]; 
94187788582414: add byte ptr [rax], al; mov rdi, rbx; call qword ptr [rbx + 0x38]; 
94187788582412: add byte ptr [rax], al; add byte ptr [rax], al; mov rdi, rbx; call qword ptr [rbx + 0x38]; 
94187788582410: test byte ptr [rax], al; add byte ptr [rax], al; add byte ptr [rax], al; mov rdi, rbx; call qword ptr [rbx + 0x38]; 
94187788582408: nop dword ptr [rax + rax]; mov rdi, rbx; call qword ptr [rbx + 0x38]; 
94187788582407: nop word ptr [rax + rax]; mov rdi, rbx; call qword ptr [rbx + 0x38]; 
94187788582523: call qword ptr [rbx + 0x38]; 
94187788582521: mov edi, ebx; call qword ptr [rbx + 0x38]; 
94187788582520: mov rdi, rbx; call qword ptr [rbx + 0x38]; 
94187788582516: or byte ptr [rbx + rdi*8 - 0x2076b701], bh; call qword ptr [rbx + 0x38]; 
94187788582515: call 0x55a9cda9fa80; mov rdi, rbx; call qword ptr [rbx + 0x38]; 
94187788582514: add al, ch; or byte ptr [rbx + rdi*8 - 0x2076b701], bh; call qword ptr [rbx + 0x38]; 
94187788582513: add byte ptr [rax], al; call 0x55a9cda9fa80; mov rdi, rbx; call qword ptr [rbx + 0x38]; 
94187788582512: add eax, dword ptr [rax]; add al, ch; or byte ptr [rbx + rdi*8 - 0x2076b701], bh; call qword ptr [rbx + 0x38]; 
94187788582510: xor eax, 3; add byte ptr [rax], al; call 0x55a9cda9fa80; mov rdi, rbx; call qword ptr [rbx + 0x38]; 
94187788582509: lea eax, dword ptr [rbx + 0x3f0]; call 0x55a9cda9fa80; mov rdi, rbx; call qword ptr [rbx + 0x38]; 
94187788582508: lea r8, qword ptr [rbx + 0x3f0]; call 0x55a9cda9fa80; mov rdi, rbx; call qword ptr [rbx + 0x38]; 
94187788582506: add byte ptr [rax], al; lea r8, qword ptr [rbx + 0x3f0]; call 0x55a9cda9fa80; mov rdi, rbx; call qword ptr [rbx + 0x38]; 
94187788582502: lea ecx, dword ptr [rbx + 0x400]; lea r8, qword ptr [rbx + 0x3f0]; call 0x55a9cda9fa80; mov rdi, rbx; call qword ptr [rbx + 0x38]; 
94187788582501: lea r9, qword ptr [rbx + 0x400]; lea r8, qword ptr [rbx + 0x3f0]; call 0x55a9cda9fa80; mov rdi, rbx; call qword ptr [rbx + 0x38]; 
94187788579677: ret 0x5b3c; 
94187788580332: ret 0x5220; 
94187788580457: ret 0x4808; 
94187788580454: add byte ptr [rax - 0x7d], cl; ret 0x4808; 
94187788580452: add al, byte ptr [rax]; add byte ptr [rax - 0x7d], cl; ret 0x4808; 
94187788581107: ret 0x3948; 
94187788581104: add dword ptr [rax - 0x77], ecx; ret 0x3948; 
94187788581154: ret 0x4810; 
94187788581151: add byte ptr [rax - 0x7d], cl; ret 0x4810; 
94187788581149: add byte ptr [rax], al; add byte ptr [rax - 0x7d], cl; ret 0x4810; 
94187788581147: add byte ptr [rax], al; add byte ptr [rax], al; add byte ptr [rax - 0x7d], cl; ret 0x4810; 
94187788581181: ret 0x12b; 
94187788581396: ret 0xd4eb; 
94187788581962: ret 0xfbce; 
94187788581960: add al, ch; ret 0xfbce; 
94187788581958: add byte ptr [rax], al; add al, ch; ret 0xfbce; 
94187788580254: call qword ptr [rax + 0x1c58349]; 
94187788581534: call qword ptr [rax + 0x24048b49]; 
94187788509273: ret; 
94187788509271: fucompi st(0); ret; 
94187788509268: add byte ptr [rax - 0x77], cl; fucompi st(0); ret; 
94187788509266: add byte ptr [rax], al; add byte ptr [rax - 0x77], cl; fucompi st(0); ret; 
94187788509453: ret; 
94187788509450: sub byte ptr [rax + 1], cl; ret; 
94187788509449: push rsi; sub byte ptr [rax + 1], cl; ret; 
94187788509446: sub dword ptr [rcx - 0x75], ecx; push rsi; sub byte ptr [rax + 1], cl; ret; 
94187788509513: ret; 
94187788509512: pop rdi; ret; 
94187788509511: pop r15; ret; 
94187788509510: pop rsi; pop r15; ret; 
94187788509509: pop r14; pop r15; ret; 
94187788509508: pop rbp; pop r14; pop r15; ret; 
94187788509507: pop r13; pop r14; pop r15; ret; 
94187788509506: pop rsp; pop r13; pop r14; pop r15; ret; 
94187788509505: pop r12; pop r13; pop r14; pop r15; ret; 
94187788509822: ret; 
94187788509821: pop rsp; ret; 
94187788509820: pop r12; ret; 
94187788509819: pop rbp; pop r12; ret; 
94187788509818: pop rbx; pop rbp; pop r12; ret; 
94187788509817: adc byte ptr [rbx + 0x5d], bl; pop r12; ret; 
94187788509815: add esp, 0x10; pop rbx; pop rbp; pop r12; ret; 
94187788509814: add rsp, 0x10; pop rbx; pop rbp; pop r12; ret; 
94187788509905: ret; 
94187788509899: add byte ptr [rbx - 0x7bf0fc03], al; ret; 
94187788509897: add eax, dword ptr [rax]; add byte ptr [rbx - 0x7bf0fc03], al; ret; 
94187788510201: ret; 
94187788511301: ret; 
94187788511298: ror byte ptr [rdi], 0x84; ret; 
94187788511295: add byte ptr [rax - 0x7b], cl; ror byte ptr [rdi], 0x84; ret; 
94187788511293: add byte ptr [rax], al; add byte ptr [rax - 0x7b], cl; ror byte ptr [rdi], 0x84; ret; 
94187788511291: add byte ptr [rax], al; add byte ptr [rax], al; add byte ptr [rax - 0x7b], cl; ror byte ptr [rdi], 0x84; ret; 
94187788511433: ret; 
94187788512117: ret; 
94187788512116: pop rdi; ret; 
94187788512115: pop r15; ret; 
94187788512114: pop rsi; pop r15; ret; 
94187788512113: pop r14; pop r15; ret; 
94187788512112: pop rbp; pop r14; pop r15; ret; 
94187788512111: pop r13; pop r14; pop r15; ret; 
94187788512110: pop rsp; pop r13; pop r14; pop r15; ret; 
94187788512109: pop r12; pop r13; pop r14; pop r15; ret; 
94187788512144: ret; 
94187788512143: pop rdi; ret; 
94187788512142: pop r15; ret; 
94187788512141: pop rsi; pop r15; ret; 
94187788512140: pop r14; pop r15; ret; 
94187788512139: pop rbp; pop r14; pop r15; ret; 
94187788512138: pop r13; pop r14; pop r15; ret; 
94187788512137: pop rsp; pop r13; pop r14; pop r15; ret; 
94187788512136: pop r12; pop r13; pop r14; pop r15; ret; 
94187788512267: ret; 
94187788512266: pop rdi; ret; 
94187788512265: pop r15; ret; 
94187788512264: pop rsi; pop r15; ret; 
94187788512263: pop r14; pop r15; ret; 
94187788512262: pop rbp; pop r14; pop r15; ret; 
94187788512261: pop r13; pop r14; pop r15; ret; 
94187788512260: pop rsp; pop r13; pop r14; pop r15; ret; 
94187788512259: pop r12; pop r13; pop r14; pop r15; ret; 
94187788512289: ret; 
94187788512288: pop rdi; ret; 
94187788512287: pop r15; ret; 
94187788512286: pop rsi; pop r15; ret; 
94187788512285: pop r14; pop r15; ret; 
94187788512284: pop rbp; pop r14; pop r15; ret; 
94187788512283: pop r13; pop r14; pop r15; ret; 
94187788512282: pop rsp; pop r13; pop r14; pop r15; ret; 
94187788512281: pop r12; pop r13; pop r14; pop r15; ret; 
94187788512329: ret; 
94187788512327: and al, ch; ret; 
94187788512422: ret; 
94187788512421: pop rdi; ret; 
94187788512420: pop r15; ret; 
94187788512419: pop rsi; pop r15; ret; 
94187788512418: pop r14; pop r15; ret; 
94187788512417: pop rbp; pop r14; pop r15; ret; 
94187788512416: pop r13; pop r14; pop r15; ret; 
94187788512415: pop rsp; pop r13; pop r14; pop r15; ret; 
94187788512414: pop r12; pop r13; pop r14; pop r15; ret; 
94187788512662: ret; 
94187788512661: pop rbp; ret; 
94187788512660: pop r13; ret; 
94187788512659: pop rsp; pop r13; ret; 
94187788512658: pop r12; pop r13; ret; 
94187788512657: pop rbp; pop r12; pop r13; ret; 
94187788512656: pop rbx; pop rbp; pop r12; pop r13; ret; 
94187788512655: call 0x55aa29ee8aef; pop r13; ret; 
94187788513052: ret; 
94187788513051: pop rbp; ret; 
94187788513050: pop r13; ret; 
94187788513049: pop rsp; pop r13; ret; 
94187788513048: pop r12; pop r13; ret; 
94187788513047: pop rbp; pop r12; pop r13; ret; 
94187788513046: call 0x55aa0f097078; pop rbp; ret; 
94187788513045: mov eax, ebp; pop rbp; pop r12; pop r13; ret; 
94187788513044: mov rax, rbp; pop rbp; pop r12; pop r13; ret; 
94187788510449: jmp qword ptr [rsi + 0xf]; 
94187788510549: jmp qword ptr [rsi + 0x2e]; 
94187788510801: jmp qword ptr [rsi + 0xf]; 
94187788510929: jmp qword ptr [rsi + 0xf]; 
94187788510961: jmp qword ptr [rsi + 0xf]; 
94187788511285: jmp qword ptr [rsi + 0x2e]; 
94187788511444: jmp qword ptr [rsi + 0x66]; 
94187788512089: jmp qword ptr [rsi + 0xf]; 
94187788512381: jmp qword ptr [rsi - 0x70]; 
94187788512701: jmp qword ptr [rsi - 0x70]; 
94187788513254: jmp qword ptr [rsi + 0xf]; 
94187788509461: ret 0x8b4d; 
94187788509914: ret 5; 
94187788509908: add byte ptr [rbx - 0x7af0fd03], al; ret 5; 
94187788509906: add al, byte ptr [rax]; add byte ptr [rbx - 0x7af0fd03], al; ret 5; 
94187788509904: test bl, al; add al, byte ptr [rax]; add byte ptr [rbx - 0x7af0fd03], al; ret 5; 
94187788509902: add ecx, dword ptr [rdi]; test bl, al; add al, byte ptr [rax]; add byte ptr [rbx - 0x7af0fd03], al; ret 5; 
94187788510253: ret 0x7402; 
94187788511849: ret 0x8949; 
94187788512378: ret 0xfffc; 
94187788512376: sub cl, ch; ret 0xfffc; 
94187788512375: sub r9b, r13b; ret 0xfffc; 
94187788512534: ret 0xf08; 
94187788512532: cmp esi, esi; ret 0xf08; 
94187788512529: add cl, byte ptr [rax - 0x75]; cmp esi, esi; ret 0xf08; 
94187788512545: ret 0xf10; 
94187788512543: add esi, esi; ret 0xf10; 
94187788513134: ret 0x765b; 
94187788513131: sub byte ptr [rax - 0x7f], cl; ret 0x765b; 
94187788513130: sub byte ptr [r8 - 0x7f], cl; ret 0x765b; 
94187788513127: add byte ptr [rbx + rcx*4 + 0x4b], cl; sub byte ptr [rax - 0x7f], cl; ret 0x765b; 
94187788512589: jmp qword ptr [rdx - 0x74b70004]; 
94187788512587: cmp al, ch; jmp qword ptr [rdx - 0x74b70004]; 
94187788512584: add byte ptr [rax - 0x75], cl; cmp al, ch; jmp qword ptr [rdx - 0x74b70004]; 
94187788512582: add byte ptr [rax], al; add byte ptr [rax - 0x75], cl; cmp al, ch; jmp qword ptr [rdx - 0x74b70004]; 
94187788512580: and dword ptr [rax + 0x48000000], 0xffffff8b; cmp al, ch; jmp qword ptr [rdx - 0x74b70004]; 
94187788512577: dec dword ptr [rax - 0x75]; and dword ptr [rax + 0x48000000], 0xffffff8b; cmp al, ch; jmp qword ptr [rdx - 0x74b70004]; 
94187788512575: out 0xff, al; dec dword ptr [rax - 0x75]; and dword ptr [rax + 0x48000000], 0xffffff8b; cmp al, ch; jmp qword ptr [rdx - 0x74b70004]; 
94187788512574: out 0xff, al; dec dword ptr [rax - 0x75]; and dword ptr [rax + 0x48000000], 0xffffff8b; cmp al, ch; jmp qword ptr [rdx - 0x74b70004]; 
94187788505089: ret; 
94187788505124: ret; 
94187788505121: add byte ptr [rax - 0x39], cl; ret; 
94187788505119: add byte ptr [rax], al; add byte ptr [rax - 0x39], cl; ret; 
94187788505179: ret; 
94187788505178: pop rsi; ret; 
94187788505177: pop r14; ret; 
94187788505176: pop rbp; pop r14; ret; 
94187788505175: pop r13; pop r14; ret; 
94187788505174: pop rsp; pop r13; pop r14; ret; 
94187788505173: pop r12; pop r13; pop r14; ret; 
94187788505172: pop rbp; pop r12; pop r13; pop r14; ret; 
94187788505209: ret; 
94187788505206: dec dword ptr [rax - 0x77]; ret; 
94187788505204: and eax, 0x8948fffe; ret; 
94187788505307: ret; 
94187788505306: pop rsi; ret; 
94187788505305: pop r14; ret; 
94187788505304: pop rbp; pop r14; ret; 
94187788505303: pop r13; pop r14; ret; 
94187788505302: pop rsp; pop r13; pop r14; ret; 
94187788505301: pop r12; pop r13; pop r14; ret; 
94187788505300: pop rbp; pop r12; pop r13; pop r14; ret; 
94187788505314: ret; 
94187788505311: add byte ptr [rax - 0x39], cl; ret; 
94187788505310: add byte ptr [rax - 0x39], cl; ret; 
94187788505307: ret; 
94187788505351: ret; 
94187788505393: ret; 
94187788505484: ret; 
94187788505483: pop rbp; ret; 
94187788505482: pop rbx; pop rbp; ret; 
94187788505481: or byte ptr [rbx + 0x5d], bl; ret; 
94187788505479: add esp, 8; pop rbx; pop rbp; ret; 
94187788505478: add rsp, 8; pop rbx; pop rbp; ret; 
94187788505477: ror byte ptr [rax - 0x7d], 0xc4; or byte ptr [rbx + 0x5d], bl; ret; 
94187788505476: xor eax, eax; add rsp, 8; pop rbx; pop rbp; ret; 
94187788505475: or al, 0x31; ror byte ptr [rax - 0x7d], 0xc4; or byte ptr [rbx + 0x5d], bl; ret; 
94187788505473: sal byte ptr [rbp + 0xc], 0x31; ror byte ptr [rax - 0x7d], 0xc4; or byte ptr [rbx + 0x5d], bl; ret; 
94187788505471: add byte ptr [rax + rax*8 - 0x3fcef38b], al; add rsp, 8; pop rbx; pop rbp; ret; 
94187788505469: rcr byte ptr [rax + rax], 0x84; sal byte ptr [rbp + 0xc], 0x31; ror byte ptr [rax - 0x7d], 0xc4; or byte ptr [rbx + 0x5d], bl; ret; 
94187788505529: ret; 
94187788505596: ret; 
94187788505593: add byte ptr [rax - 0x77], cl; ret; 
94187788505591: add byte ptr [rax], al; add byte ptr [rax - 0x77], cl; ret; 
94187788505728: ret; 
94187788505754: ret; 
94187788505753: pop rbp; ret; 
94187788505752: pop r13; ret; 
94187788505751: pop rsp; pop r13; ret; 
94187788505750: pop r12; pop r13; ret; 
94187788505749: pop rbp; pop r12; pop r13; ret; 
94187788505748: pop rbx; pop rbp; pop r12; pop r13; ret; 
94187788505747: or byte ptr [rbx + 0x5d], bl; pop r12; pop r13; ret; 
94187788505935: ret; 
94187788505934: pop rbx; ret; 
94187788505932: xor eax, eax; pop rbx; ret; 
94187788505929: sal byte ptr [rdi + rax + 0x31], 0xc0; pop rbx; ret; 
94187788505924: push -0x7a00034a; sal byte ptr [rdi + rax + 0x31], 0xc0; pop rbx; ret; 
94187788505922: cmp al, ch; push -0x7a00034a; sal byte ptr [rdi + rax + 0x31], 0xc0; pop rbx; ret; 
94187788505938: ret; 
94187788505936: xor eax, eax; ret; 
94187788505935: ret; 
94187788505970: ret; 
94187788505969: pop rbx; ret; 
94187788505963: mov eax, 0xffffffff; pop rbx; ret; 
94187788505962: mov rax, -1; pop rbx; ret; 
94187788505957: call 0x55a9cdacfff0; mov rax, -1; pop rbx; ret; 
94187788505955: add byte ptr [rax], al; call 0x55a9cdacfff0; mov rax, -1; pop rbx; ret; 
94187788506617: ret; 
94187788506611: or byte ptr [rbx - 0x7bf0fd03], al; ret; 
94187788506607: add byte ptr [rbx + rcx*4 + 0x63], cl; or byte ptr [rbx - 0x7bf0fd03], al; ret; 
94187788506605: add al, byte ptr [rax]; add byte ptr [rbx + rcx*4 + 0x63], cl; or byte ptr [rbx - 0x7bf0fd03], al; ret; 
94187788506849: ret; 
94187788506865: ret; 
94187788506864: pop rsi; ret; 
94187788506863: pop r14; ret; 
94187788506862: pop rbp; pop r14; ret; 
94187788506861: pop r13; pop r14; ret; 
94187788506860: pop rsp; pop r13; pop r14; ret; 
94187788506859: pop r12; pop r13; pop r14; ret; 
94187788506858: pop rbp; pop r12; pop r13; pop r14; ret; 
94187788507644: ret; 
94187788507643: pop rbp; ret; 
94187788507642: pop rbx; pop rbp; ret; 
94187788507641: or byte ptr [rbx + 0x5d], bl; ret; 
94187788507639: add esp, 8; pop rbx; pop rbp; ret; 
94187788507638: add rsp, 8; pop rbx; pop rbp; ret; 
94187788507823: ret; 
94187788507822: pop rsp; ret; 
94187788507821: pop r12; ret; 
94187788507820: pop rbp; pop r12; ret; 
94187788507819: pop rbx; pop rbp; pop r12; ret; 
94187788507818: call 0x55aa29ee780a; ret; 
94187788507817: mov eax, ebp; pop rbx; pop rbp; pop r12; ret; 
94187788507816: mov rax, rbp; pop rbx; pop rbp; pop r12; ret; 
94187788508138: ret; 
94187788508137: pop rsp; ret; 
94187788508136: pop r12; ret; 
94187788508135: pop rbp; pop r12; ret; 
94187788508133: mov eax, ebp; pop rbp; pop r12; ret; 
94187788508132: mov rax, rbp; pop rbp; pop r12; ret; 
94187788508131: pop rbx; mov rax, rbp; pop rbp; pop r12; ret; 
94187788508130: lcall ptr [rbx + 0x48]; mov eax, ebp; pop rbp; pop r12; ret; 
94187788508712: ret; 
94187788508711: pop rdi; ret; 
94187788508710: pop r15; ret; 
94187788508709: pop rsi; pop r15; ret; 
94187788508708: pop r14; pop r15; ret; 
94187788508707: pop rbp; pop r14; pop r15; ret; 
94187788508706: pop r13; pop r14; pop r15; ret; 
94187788508705: pop rsp; pop r13; pop r14; pop r15; ret; 
94187788508704: pop r12; pop r13; pop r14; pop r15; ret; 
94187788507615: jmp rax; 
94187788507614: pop rbp; jmp rax; 
94187788507613: pop rbx; pop rbp; jmp rax; 
94187788507612: or byte ptr [rbx + 0x5d], bl; jmp rax; 
94187788507610: add esp, 8; pop rbx; pop rbp; jmp rax; 
94187788507609: add rsp, 8; pop rbx; pop rbp; jmp rax; 
94187788507606: mov eax, dword ptr [rax + 0x28]; add rsp, 8; pop rbx; pop rbp; jmp rax; 
94187788507605: mov rax, qword ptr [rax + 0x28]; add rsp, 8; pop rbx; pop rbp; jmp rax; 
94187788505138: jmp qword ptr [rsi + 0x66]; 
94187788505890: jmp qword ptr [rsi + 0x66]; 
94187788506048: jmp qword ptr [rsi + 0x66]; 
94187788506047: cld; jmp qword ptr [rsi + 0x66]; 
94187788506046: scasd eax, dword ptr [rdi]; cld; jmp qword ptr [rsi + 0x66]; 
94187788506045: iretd; scasd eax, dword ptr [rdi]; cld; jmp qword ptr [rsi + 0x66]; 
94187788506102: jmp qword ptr [rsi + 0xf]; 
94187788506390: jmp qword ptr [rsi + 0xf]; 
94187788506473: jmp qword ptr [rsi + 0xf]; 
94187788506909: jmp qword ptr [rsi - 0x70]; 
94187788507293: jmp qword ptr [rsi - 0x70]; 
94187788507441: jmp qword ptr [rsi + 0xf]; 
94187788508025: jmp qword ptr [rsi + 0xf]; 
94187788508377: jmp qword ptr [rsi + 0xf]; 
94187788508409: jmp qword ptr [rsi + 0xf]; 
94187788508961: jmp qword ptr [rsi + 0xf]; 
94187788509141: jmp qword ptr [rsi + 0x2e]; 
94187788505130: ret 0xffef; 
94187788505293: ret 0xfffc; 
94187788505408: ret 0xfffc; 
94187788505708: ret 0xfffc; 
94187788508832: ret 0x6f6; 
94187788507998: call qword ptr [rax + 0x250d8d48]; 
94187788501183: ret; 
94187788501180: dec dword ptr [rax - 0x77]; ret; 
94187788501179: std; dec dword ptr [rax - 0x77]; ret; 
94187788501178: std; dec dword ptr [rax - 0x77]; ret; 
94187788501177: xor edi, dword ptr [rsi]; std; dec dword ptr [rax - 0x77]; ret; 
94187788501247: ret; 
94187788501246: pop rdi; ret; 
94187788501245: pop r15; ret; 
94187788501244: pop rsi; pop r15; ret; 
94187788501243: pop r14; pop r15; ret; 
94187788501242: pop rbp; pop r14; pop r15; ret; 
94187788501241: pop r13; pop r14; pop r15; ret; 
94187788501240: pop rsp; pop r13; pop r14; pop r15; ret; 
94187788501239: pop r12; pop r13; pop r14; pop r15; ret; 
94187788501286: ret; 
94187788501283: dec dword ptr [rax - 0x77]; ret; 
94187788501282: std; dec dword ptr [rax - 0x77]; ret; 
94187788501281: cmp eax, 0x8948fffd; ret; 
94187788501280: cmp rax, -0x76b70003; ret; 
94187788501278: xor al, ch; cmp rax, -0x76b70003; ret; 
94187788501494: ret; 
94187788501491: dec dword ptr [rax - 0x77]; ret; 
94187788501490: std; dec dword ptr [rax - 0x77]; ret; 
94187788501489: cmp al, 0xfd; dec dword ptr [rax - 0x77]; ret; 
94187788501514: ret; 
94187788501511: add byte ptr [rax + 0x39], cl; ret; 
94187788501509: add al, 0; add byte ptr [rax + 0x39], cl; ret; 
94187788501508: add byte ptr [rax + rax], al; add byte ptr [rax + 0x39], cl; ret; 
94187788501507: and al, 0; add al, 0; add byte ptr [rax + 0x39], cl; ret; 
94187788501506: test byte ptr [rax + rax], ah; add al, 0; add byte ptr [rax + 0x39], cl; ret; 
94187788501503: add byte ptr [rcx - 0x73], cl; test byte ptr [rax + rax], ah; add al, 0; add byte ptr [rax + 0x39], cl; ret; 
94187788501502: add byte ptr [rcx - 0x73], cl; test byte ptr [rax + rax], ah; add al, 0; add byte ptr [rax + 0x39], cl; ret; 
94187788501494: ret; 
94187788501530: ret; 
94187788501613: ret; 
94187788501719: ret; 
94187788501718: pop rsp; ret; 
94187788501717: pop r12; ret; 
94187788501716: pop rbp; pop r12; ret; 
94187788501715: pop rbx; pop rbp; pop r12; ret; 
94187788501714: lcall ptr [rbx + 0x5d]; pop r12; ret; 
94187788501709: mov eax, 0xffffffff; pop rbx; pop rbp; pop r12; ret; 
94187788501708: mov rax, -1; pop rbx; pop rbp; pop r12; ret; 
94187788501742: ret; 
94187788501741: pop rsp; ret; 
94187788501740: pop r12; ret; 
94187788501739: pop rbp; pop r12; ret; 
94187788501738: rcr byte ptr [rbp + 0x41], 0x5c; ret; 
94187788501737: xor eax, eax; pop rbp; pop r12; ret; 
94187788501736: pop rbx; xor eax, eax; pop rbp; pop r12; ret; 
94187788501735: lcall ptr [rbx + 0x31]; rcr byte ptr [rbp + 0x41], 0x5c; ret; 
94187788501734: cld; lcall ptr [rbx + 0x31]; rcr byte ptr [rbp + 0x41], 0x5c; ret; 
94187788502125: ret; 
94187788502124: pop rbx; ret; 
94187788502122: xor eax, eax; pop rbx; ret; 
94187788502121: xor eax, eax; pop rbx; ret; 
94187788502116: add al, byte ptr [rbx + 0x2e74fff8]; xor eax, eax; pop rbx; ret; 
94187788502111: add eax, 0x89000e92; add al, byte ptr [rbx + 0x2e74fff8]; xor eax, eax; pop rbx; ret; 
94187788502160: ret; 
94187788502159: pop rbx; ret; 
94187788502153: mov eax, 0xffffffff; pop rbx; ret; 
94187788502152: mov rax, -1; pop rbx; ret; 
94187788502148: push 0x48fffffb; mov eax, 0xffffffff; pop rbx; ret; 
94187788502147: call 0x55a9cdacfff0; mov rax, -1; pop rbx; ret; 
94187788502146: add al, ch; push 0x48fffffb; mov eax, 0xffffffff; pop rbx; ret; 
94187788502145: add byte ptr [rax], al; call 0x55a9cdacfff0; mov rax, -1; pop rbx; ret; 
94187788502214: ret; 
94187788502213: pop rbx; ret; 
94187788502207: mov eax, 0xffffffff; pop rbx; ret; 
94187788502206: mov rax, -1; pop rbx; ret; 
94187788502201: call 0x55a9cdacfff0; mov rax, -1; pop rbx; ret; 
94187788502199: add byte ptr [rax], al; call 0x55a9cdacfff0; mov rax, -1; pop rbx; ret; 
94187788502720: ret; 
94187788502719: pop rsp; ret; 
94187788502718: pop r12; ret; 
94187788502717: pop rbp; pop r12; ret; 
94187788502716: pop rbx; pop rbp; pop r12; ret; 
94187788502715: rcr byte ptr [rbx + 0x5d], 0x41; pop rsp; ret; 
94187788502714: xor eax, eax; pop rbx; pop rbp; pop r12; ret; 
94187788502713: push qword ptr [rcx]; rcr byte ptr [rbx + 0x5d], 0x41; pop rsp; ret; 
94187788502712: cld; push qword ptr [rcx]; rcr byte ptr [rbx + 0x5d], 0x41; pop rsp; ret; 
94187788502758: ret; 
94187788502781: ret; 
94187788502817: ret; 
94187788502842: ret; 
94187788502866: ret; 
94187788503047: ret; 
94187788503218: ret; 
94187788503215: dec dword ptr [rax - 0x77]; ret; 
94187788503292: ret; 
94187788503291: pop rdi; ret; 
94187788503290: pop r15; ret; 
94187788503289: pop rsi; pop r15; ret; 
94187788503288: pop r14; pop r15; ret; 
94187788503287: pop rbp; pop r14; pop r15; ret; 
94187788503286: pop r13; pop r14; pop r15; ret; 
94187788503285: pop rsp; pop r13; pop r14; pop r15; ret; 
94187788503284: pop r12; pop r13; pop r14; pop r15; ret; 
94187788503658: ret; 
94187788503655: adc byte ptr [rax - 0x7d], cl; ret; 
94187788503714: ret; 
94187788503713: pop rdi; ret; 
94187788503712: pop r15; ret; 
94187788503711: pop rsi; pop r15; ret; 
94187788503710: pop r14; pop r15; ret; 
94187788503709: pop rbp; pop r14; pop r15; ret; 
94187788503708: pop r13; pop r14; pop r15; ret; 
94187788503707: pop rsp; pop r13; pop r14; pop r15; ret; 
94187788503706: pop r12; pop r13; pop r14; pop r15; ret; 
94187788503736: ret; 
94187788503735: pop rdi; ret; 
94187788503734: pop r15; ret; 
94187788503733: pop rsi; pop r15; ret; 
94187788503732: pop r14; pop r15; ret; 
94187788503731: pop rbp; pop r14; pop r15; ret; 
94187788503730: pop r13; pop r14; pop r15; ret; 
94187788503729: pop rsp; pop r13; pop r14; pop r15; ret; 
94187788503728: pop r12; pop r13; pop r14; pop r15; ret; 
94187788503995: ret; 
94187788503994: pop rdi; ret; 
94187788503993: pop r15; ret; 
94187788503992: pop rsi; pop r15; ret; 
94187788503991: pop r14; pop r15; ret; 
94187788503990: pop rbp; pop r14; pop r15; ret; 
94187788503989: pop r13; pop r14; pop r15; ret; 
94187788503988: pop rsp; pop r13; pop r14; pop r15; ret; 
94187788503987: pop r12; pop r13; pop r14; pop r15; ret; 
94187788504315: ret; 
94187788504314: pop rsp; ret; 
94187788504313: pop r12; ret; 
94187788504312: pop rbp; pop r12; ret; 
94187788504311: pop rbx; pop rbp; pop r12; ret; 
94187788504310: call 0x55aa29ee6a56; ret; 
94187788504309: mov eax, ebp; pop rbx; pop rbp; pop r12; ret; 
94187788504308: mov rax, rbp; pop rbx; pop rbp; pop r12; ret; 
94187788504340: ret; 
94187788504339: pop rsp; ret; 
94187788504338: pop r12; ret; 
94187788504337: pop rbp; pop r12; ret; 
94187788504336: pop rbx; pop rbp; pop r12; ret; 
94187788504335: call 0x55aa29ee6a6f; ret; 
94187788504334: mov eax, ebp; pop rbx; pop rbp; pop r12; ret; 
94187788504333: mov rax, rbp; pop rbx; pop rbp; pop r12; ret; 
94187788504332: dec dword ptr [rax - 0x77]; call 0x55aa29ee6a6f; ret; 
94187788504331: cld; dec dword ptr [rax - 0x77]; call 0x55aa29ee6a6f; ret; 
94187788504330: mov ebp, 0x8948fffc; call 0x55aa29ee6a6f; ret; 
94187788504329: sar dword ptr [rbp - 0x76b70004], cl; call 0x55aa29ee6a6f; ret; 
94187788504460: ret; 
94187788504459: pop rbp; ret; 
94187788504458: pop r13; ret; 
94187788504457: pop rsp; pop r13; ret; 
94187788504456: pop r12; pop r13; ret; 
94187788504455: pop rbp; pop r12; pop r13; ret; 
94187788504454: pop rbx; pop rbp; pop r12; pop r13; ret; 
94187788504558: ret; 
94187788504557: pop rbp; ret; 
94187788504556: pop r13; ret; 
94187788504555: pop rsp; pop r13; ret; 
94187788504554: pop r12; pop r13; ret; 
94187788504553: pop rbp; pop r12; pop r13; ret; 
94187788504552: pop rbx; pop rbp; pop r12; pop r13; ret; 
94187788504708: ret; 
94187788504707: pop rbp; ret; 
94187788504706: pop r13; ret; 
94187788504705: pop rsp; pop r13; ret; 
94187788504704: pop r12; pop r13; ret; 
94187788504703: pop rbp; pop r12; pop r13; ret; 
94187788504702: pop rbx; pop rbp; pop r12; pop r13; ret; 
94187788504701: fcomp dword ptr [rbx + 0x5d]; pop r12; pop r13; ret; 
94187788504731: ret; 
94187788504728: dec dword ptr [rax - 0x77]; ret; 
94187788504774: ret; 
94187788504773: pop rbp; ret; 
94187788504772: pop r13; ret; 
94187788504771: pop rsp; pop r13; ret; 
94187788504770: pop r12; pop r13; ret; 
94187788504769: pop rbp; pop r12; pop r13; ret; 
94187788504768: pop rbx; pop rbp; pop r12; pop r13; ret; 
94187788504767: fcomp dword ptr [rbx + 0x5d]; pop r12; pop r13; ret; 
94187788504786: ret; 
94187788504783: add byte ptr [rax - 0x39], cl; ret; 
94187788504781: add byte ptr [rax], al; add byte ptr [rax - 0x39], cl; ret; 
94187788504779: add byte ptr [rax], al; add byte ptr [rax], al; add byte ptr [rax - 0x39], cl; ret; 
94187788504774: ret; 
94187788504818: ret; 
94187788504815: add byte ptr [rax - 0x39], cl; ret; 
94187788504813: sub dword ptr [rax], ecx; add byte ptr [rax - 0x39], cl; ret; 
94187788504879: ret; 
94187788504878: pop rbp; ret; 
94187788504877: pop r13; ret; 
94187788504876: pop rsp; pop r13; ret; 
94187788504875: pop r12; pop r13; ret; 
94187788504874: pop rbp; pop r12; pop r13; ret; 
94187788504873: pop rbx; pop rbp; pop r12; pop r13; ret; 
94187788504872: fcomp dword ptr [rbx + 0x5d]; pop r12; pop r13; ret; 
94187788504905: ret; 
94187788504902: dec dword ptr [rax - 0x77]; ret; 
94187788505012: ret; 
94187788505011: pop rbp; ret; 
94187788505010: pop r13; ret; 
94187788505009: pop rsp; pop r13; ret; 
94187788505008: pop r12; pop r13; ret; 
94187788505007: pop rbp; pop r12; pop r13; ret; 
94187788505006: pop rbx; pop rbp; pop r12; pop r13; ret; 
94187788505005: fcomp dword ptr [rbx + 0x5d]; pop r12; pop r13; ret; 
94187788505018: ret; 
94187788505015: add byte ptr [rax - 0x39], cl; ret; 
94187788505012: ret; 
94187788505052: ret; 
94187788505049: add byte ptr [rax - 0x39], cl; ret; 
94187788505047: sub dword ptr [rax], ecx; add byte ptr [rax - 0x39], cl; ret; 
94187788505046: push rsi; sub dword ptr [rax], ecx; add byte ptr [rax - 0x39], cl; ret; 
94187788501429: jmp qword ptr [rsi + 0x2e]; 
94187788501586: jmp qword ptr [rsi + 0x66]; 
94187788501585: cld; jmp qword ptr [rsi + 0x66]; 
94187788502849: jmp qword ptr [rsi + 0xf]; 
94187788502873: jmp qword ptr [rsi + 0xf]; 
94187788502949: jmp qword ptr [rsi + 0x2e]; 
94187788504257: jmp qword ptr [rsi + 0x66]; 
94187788504256: cld; jmp qword ptr [rsi + 0x66]; 
94187788504832: jmp qword ptr [rsi + 0x66]; 
94187788504404: call qword ptr [rbx + 0x48]; 
94187788501350: ret 0x8948; 
94187788501369: ret 0xfffc; 
94187788503114: ret 0x8d48; 
94187788503111: fisttp word ptr [rax - 0x77]; ret 0x8d48; 
94187788503108: dec dword ptr [rax - 0x77]; fisttp word ptr [rax - 0x77]; ret 0x8d48; 
94187788503107: cld; dec dword ptr [rax - 0x77]; fisttp word ptr [rax - 0x77]; ret 0x8d48; 
94187788503101: add byte ptr [rbx - 0x335417d0], cl; cld; dec dword ptr [rax - 0x77]; fisttp word ptr [rax - 0x77]; ret 0x8d48; 
94187788504518: ret 0xfffc; 
94187788574882: ret; 
94187788574881: pop rsi; ret; 
94187788574880: pop r14; ret; 
94187788574879: pop rbp; pop r14; ret; 
94187788574878: pop r13; pop r14; ret; 
94187788574877: pop rsp; pop r13; pop r14; ret; 
94187788574876: pop r12; pop r13; pop r14; ret; 
94187788574875: pop rbp; pop r12; pop r13; pop r14; ret; 
94187788575572: ret; 
94187788575570: add byte ptr [rax], al; ret; 
94187788575568: test al, 3; add byte ptr [rax], al; ret; 
94187788575566: mov dword ptr [rdx + 0x3a8], eax; ret; 
94187788575565: mov qword ptr [rdx + 0x3a8], rax; ret; 
94187788575563: add byte ptr [rax], al; mov qword ptr [rdx + 0x3a8], rax; ret; 
94187788575559: mov dword ptr [rdx + 0x390], eax; mov qword ptr [rdx + 0x3a8], rax; ret; 
94187788575558: mov qword ptr [rdx + 0x390], rax; mov qword ptr [rdx + 0x3a8], rax; ret; 
94187788575556: add byte ptr [rax], al; mov qword ptr [rdx + 0x390], rax; mov qword ptr [rdx + 0x3a8], rax; ret; 
94187788575554: add byte ptr [rax], al; add byte ptr [rax], al; mov qword ptr [rdx + 0x390], rax; mov qword ptr [rdx + 0x3a8], rax; ret; 
94187788575697: ret; 
94187788575696: pop rbp; ret; 
94187788575695: pop r13; ret; 
94187788575694: pop rsp; pop r13; ret; 
94187788575693: pop r12; pop r13; ret; 
94187788575692: pop rbp; pop r12; pop r13; ret; 
94187788575691: pop rbx; pop rbp; pop r12; pop r13; ret; 
94187788575690: or byte ptr [rbx + 0x5d], bl; pop r12; pop r13; ret; 
94187788575773: ret; 
94187788575771: xor eax, eax; ret; 
94187788575781: ret; 
94187788575779: xor eax, eax; ret; 
94187788575777: mov dword ptr [rax], esi; xor eax, eax; ret; 
94187788575776: mov qword ptr [rax], rsi; xor eax, eax; ret; 
94187788575775: nop; mov qword ptr [rax], rsi; xor eax, eax; ret; 
94187788575774: nop; mov qword ptr [rax], rsi; xor eax, eax; ret; 
94187788575773: ret; 
94187788575839: ret; 
94187788575847: ret; 
94187788575844: adc ecx, dword ptr [rax - 0x7d]; ret; 
94187788575839: ret; 
94187788575858: ret; 
94187788575857: pop rsp; ret; 
94187788575856: pop r12; ret; 
94187788575855: pop rbp; pop r12; ret; 
94187788575854: pop rbx; pop rbp; pop r12; ret; 
94187788575853: pop rbx; pop rbp; pop r12; ret; 
94187788575847: ret; 
94187788575885: ret; 
94187788575882: add byte ptr [rbp + 3], dh; ret; 
94187788575880: add dword ptr [rax], eax; add byte ptr [rbp + 3], dh; ret; 
94187788575937: ret; 
94187788575934: add byte ptr [rbp + 7], dh; ret; 
94187788575932: add dword ptr [rax], eax; add byte ptr [rbp + 7], dh; ret; 
94187788576185: ret; 
94187788576313: ret; 
94187788576312: pop rdi; ret; 
94187788576311: pop r15; ret; 
94187788576310: pop rsi; pop r15; ret; 
94187788576309: pop r14; pop r15; ret; 
94187788576308: pop rbp; pop r14; pop r15; ret; 
94187788576307: pop r13; pop r14; pop r15; ret; 
94187788576306: pop rsp; pop r13; pop r14; pop r15; ret; 
94187788576305: pop r12; pop r13; pop r14; pop r15; ret; 
94187788576762: ret; 
94187788576761: pop rdi; ret; 
94187788576760: pop r15; ret; 
94187788576759: pop rsi; pop r15; ret; 
94187788576758: pop r14; pop r15; ret; 
94187788576757: pop rbp; pop r14; pop r15; ret; 
94187788576756: pop r13; pop r14; pop r15; ret; 
94187788576755: pop rsp; pop r13; pop r14; pop r15; ret; 
94187788576754: pop r12; pop r13; pop r14; pop r15; ret; 
94187788577011: ret; 
94187788577010: pop rdi; ret; 
94187788577009: pop r15; ret; 
94187788577008: pop rsi; pop r15; ret; 
94187788577007: pop r14; pop r15; ret; 
94187788577006: pop rbp; pop r14; pop r15; ret; 
94187788577005: pop r13; pop r14; pop r15; ret; 
94187788577004: pop rsp; pop r13; pop r14; pop r15; ret; 
94187788577003: pop r12; pop r13; pop r14; pop r15; ret; 
94187788577286: ret; 
94187788577611: ret; 
94187788577610: pop rsi; ret; 
94187788577609: pop r14; ret; 
94187788577608: pop rbp; pop r14; ret; 
94187788577607: pop r13; pop r14; ret; 
94187788577606: pop rsp; pop r13; pop r14; ret; 
94187788577605: pop r12; pop r13; pop r14; ret; 
94187788577604: pop rbp; pop r12; pop r13; pop r14; ret; 
94187788577603: call 0x55aa0f0a6ca5; pop rbp; pop r14; ret; 
94187788577818: ret; 
94187788577817: pop rbx; ret; 
94187788577815: or edi, esi; pop rbx; ret; 
94187788577813: and byte ptr [rbx + 9], 0xf7; pop rbx; ret; 
94187788577812: add byte ptr [rax + 0x5bf70963], al; ret; 
94187788577811: add byte ptr [rax], al; and byte ptr [rbx + 9], 0xf7; pop rbx; ret; 
94187788577810: add byte ptr [rax], al; add byte ptr [rax + 0x5bf70963], al; ret; 
94187788577809: add byte ptr [rax], al; add byte ptr [rax], al; and byte ptr [rbx + 9], 0xf7; pop rbx; ret; 
94187788577808: add byte ptr [rax], al; add byte ptr [rax], al; and byte ptr [rbx + 9], 0xf7; pop rbx; ret; 
94187788577807: add byte ptr [rax], al; add byte ptr [rax], al; and byte ptr [rbx + 9], 0xf7; pop rbx; ret; 
94187788577806: mov dword ptr [rbx + 0x40], 0; and byte ptr [rbx + 9], 0xf7; pop rbx; ret; 
94187788577805: mov qword ptr [rbx + 0x40], 0; and byte ptr [rbx + 9], 0xf7; pop rbx; ret; 
94187788577948: ret; 
94187788577945: dec dword ptr [rax - 0x77]; ret; 
94187788577944: sti; dec dword ptr [rax - 0x77]; ret; 
94187788578484: ret; 
94187788578483: pop rsi; ret; 
94187788578482: pop r14; ret; 
94187788578481: pop rbp; pop r14; ret; 
94187788578480: pop r13; pop r14; ret; 
94187788578479: pop rsp; pop r13; pop r14; ret; 
94187788578478: pop r12; pop r13; pop r14; ret; 
94187788578477: pop rbp; pop r12; pop r13; pop r14; ret; 
94187788578517: ret; 
94187788578516: pop rsi; ret; 
94187788578515: pop r14; ret; 
94187788578514: pop rbp; pop r14; ret; 
94187788578513: pop r13; pop r14; ret; 
94187788578512: pop rsp; pop r13; pop r14; ret; 
94187788578511: pop r12; pop r13; pop r14; ret; 
94187788578510: pop rbp; pop r12; pop r13; pop r14; ret; 
94187788578550: ret; 
94187788578549: pop rsi; ret; 
94187788578548: pop r14; ret; 
94187788578547: pop rbp; pop r14; ret; 
94187788578546: pop r13; pop r14; ret; 
94187788578545: pop rsp; pop r13; pop r14; ret; 
94187788578544: pop r12; pop r13; pop r14; ret; 
94187788578543: pop rbp; pop r12; pop r13; pop r14; ret; 
94187788578713: ret; 
94187788578712: pop rsp; ret; 
94187788578711: pop r12; ret; 
94187788578710: pop rbp; pop r12; ret; 
94187788578709: pop rbx; pop rbp; pop r12; ret; 
94187788578708: rcr byte ptr [rbx + 0x5d], 0x41; pop rsp; ret; 
94187788578707: xor eax, eax; pop rbx; pop rbp; pop r12; ret; 
94187788578706: push qword ptr [rcx]; rcr byte ptr [rbx + 0x5d], 0x41; pop rsp; ret; 
94187788578704: in al, 0xff; push qword ptr [rcx]; rcr byte ptr [rbx + 0x5d], 0x41; pop rsp; ret; 
94187788578703: in al, 0xff; push qword ptr [rcx]; rcr byte ptr [rbx + 0x5d], 0x41; pop rsp; ret; 
94187788578763: ret; 
94187788578762: pop rsp; ret; 
94187788578761: pop r12; ret; 
94187788578760: pop rbp; pop r12; ret; 
94187788578759: rcr byte ptr [rbp + 0x41], 0x5c; ret; 
94187788578758: xor eax, eax; pop rbp; pop r12; ret; 
94187788578757: pop rbx; xor eax, eax; pop rbp; pop r12; ret; 
94187788578756: lcall ptr [rbx + 0x31]; rcr byte ptr [rbp + 0x41], 0x5c; ret; 
94187788575843: call qword ptr [rbx]; 
94187788575842: out dx, eax; call qword ptr [rbx]; 
94187788575841: mov edi, ebp; call qword ptr [rbx]; 
94187788575840: mov rdi, rbp; call qword ptr [rbx]; 
94187788575838: and al, 0xc3; mov rdi, rbp; call qword ptr [rbx]; 
94187788575837: lea esp, dword ptr [rbx + rax*8]; mov rdi, rbp; call qword ptr [rbx]; 
94187788575836: lea r12, qword ptr [rbx + rax*8]; mov rdi, rbp; call qword ptr [rbx]; 
94187788575835: std; lea r12, qword ptr [rbx + rax*8]; mov rdi, rbp; call qword ptr [rbx]; 
94187788575834: mov ebp, edi; lea r12, qword ptr [rbx + rax*8]; mov rdi, rbp; call qword ptr [rbx]; 
94187788575833: mov rbp, rdi; lea r12, qword ptr [rbx + rax*8]; mov rdi, rbp; call qword ptr [rbx]; 
94187788575832: adc eax, 0x4cfd8948; lea esp, dword ptr [rbx + rax*8]; mov rdi, rbp; call qword ptr [rbx]; 
94187788575830: sal byte ptr [rbp + rdx + 0x48], 0x89; std; lea r12, qword ptr [rbx + rax*8]; mov rdi, rbp; call qword ptr [rbx]; 
94187788577169: jmp rax; 
94187788578437: jmp rcx; 
94187788578435: add byte ptr [rax], al; jmp rcx; 
94187788574917: jmp qword ptr [rsi + 0x2e]; 
94187788574977: jmp qword ptr [rsi + 0xf]; 
94187788574997: jmp qword ptr [rsi + 0x2e]; 
94187788575285: jmp qword ptr [rsi + 0x2e]; 
94187788575462: jmp qword ptr [rsi + 0xf]; 
94187788575461: sti; jmp qword ptr [rsi + 0xf]; 
94187788575460: stosd dword ptr [rdi], eax; sti; jmp qword ptr [rsi + 0xf]; 
94187788575908: jmp qword ptr [rsi + 0x66]; 
94187788575907: sti; jmp qword ptr [rsi + 0x66]; 
94187788575905: fcmovnbe st(0), st(5); sti; jmp qword ptr [rsi + 0x66]; 
94187788576705: jmp qword ptr [rsi + 0xf]; 
94187788576737: jmp qword ptr [rsi + 0xf]; 
94187788577593: jmp qword ptr [rsi + 0xf]; 
94187788577592: cld; jmp qword ptr [rsi + 0xf]; 
94187788577591: sbb edi, esp; jmp qword ptr [rsi + 0xf]; 
94187788577590: sbb r15d, esp; jmp qword ptr [rsi + 0xf]; 
94187788577717: jmp qword ptr [rsi + 0x2e]; 
94187788578800: jmp qword ptr [rsi + 0x66]; 
94187788577084: ret 0x2948; 
94187788577081: dec dword ptr [rax - 0x77]; ret 0x2948; 
94187788577080: cld; dec dword ptr [rax - 0x77]; ret 0x2948; 
94187788577079: sbb eax, 0x8948fffc; ret 0x2948; 
94187788577078: sbb eax, 0x8948fffc; ret 0x2948; 
94187788577076: shr al, 0x46; sbb eax, 0x8948fffc; ret 0x2948; 
94187788577134: ret 0x2948; 
94187788577131: or byte ptr [rax - 0x77], cl; ret 0x2948; 
94187788577163: ret 0x5d5b; 
94187788577160: add byte ptr [rax - 0x77], cl; ret 0x5d5b; 
94187788577158: add eax, 0x89480000; ret 0x5d5b; 
94187788577157: add byte ptr [rip - 0x76b80000], al; ret 0x5d5b; 
94187788577156: xchg dword ptr [rax], eax; add eax, 0x89480000; ret 0x5d5b; 
94187788577345: ret 0x2948; 
94187788577342: dec dword ptr [rax - 0x77]; ret 0x2948; 
94187788577341: cld; dec dword ptr [rax - 0x77]; ret 0x2948; 
94187788577340: sbb al, 0xfc; dec dword ptr [rax - 0x77]; ret 0x2948; 
94187788577339: sbb al, 0xfc; dec dword ptr [rax - 0x77]; ret 0x2948; 
94187788577337: add al, ch; sbb al, 0xfc; dec dword ptr [rax - 0x77]; ret 0x2948; 
94187788577335: add eax, dword ptr [rax]; add al, ch; sbb al, 0xfc; dec dword ptr [rax - 0x77]; ret 0x2948; 
94187788577389: ret 0x2948; 
94187788577386: dec dword ptr [rax - 0x77]; ret 0x2948; 
94187788577385: cld; dec dword ptr [rax - 0x77]; ret 0x2948; 
94187788577384: sbb al, 0xfc; dec dword ptr [rax - 0x77]; ret 0x2948; 
94187788577488: ret 0x2948; 
94187788577485: dec dword ptr [rax - 0x77]; ret 0x2948; 
94187788577484: cld; dec dword ptr [rax - 0x77]; ret 0x2948; 
94187788577483: sbb edi, esp; dec dword ptr [rax - 0x77]; ret 0x2948; 
94187788577482: mov dl, 0x1b; cld; dec dword ptr [rax - 0x77]; ret 0x2948; 
94187788577480: shr al, 0xb2; sbb edi, esp; dec dword ptr [rax - 0x77]; ret 0x2948; 
94187788577539: ret 0x2948; 
94187788577536: dec dword ptr [rax - 0x77]; ret 0x2948; 
94187788577535: cld; dec dword ptr [rax - 0x77]; ret 0x2948; 
94187788577534: sbb edi, esp; dec dword ptr [rax - 0x77]; ret 0x2948; 
94187788576958: call qword ptr [rax + 0x284f8b4d]; 
94187788611689: ret; 
94187788611730: ret; 
94187788611727: or byte ptr [rax + 0x39], cl; ret; 
94187788611726: push rcx; or byte ptr [rax + 0x39], cl; ret; 
94187788611723: add dword ptr [rax - 0x77], ecx; push rcx; or byte ptr [rax + 0x39], cl; ret; 
94187788611774: ret; 
94187788611773: pop rdi; ret; 
94187788611772: pop r15; ret; 
94187788611771: pop rsi; pop r15; ret; 
94187788611770: pop r14; pop r15; ret; 
94187788611769: pop rbp; pop r14; pop r15; ret; 
94187788611768: pop r13; pop r14; pop r15; ret; 
94187788611767: pop rsp; pop r13; pop r14; pop r15; ret; 
94187788611766: pop r12; pop r13; pop r14; pop r15; ret; 
94187788611797: ret; 
94187788611796: pop rdi; ret; 
94187788611795: pop r15; ret; 
94187788611794: pop rsi; pop r15; ret; 
94187788611793: pop r14; pop r15; ret; 
94187788611792: pop rbp; pop r14; pop r15; ret; 
94187788611791: pop r13; pop r14; pop r15; ret; 
94187788611790: pop rsp; pop r13; pop r14; pop r15; ret; 
94187788611789: pop r12; pop r13; pop r14; pop r15; ret; 
94187788611814: ret; 
94187788611811: add dword ptr [rax + 0x39], ecx; ret; 
94187788611877: ret; 
94187788611875: add byte ptr [rax], al; ret; 
94187788611873: add byte ptr [rax], al; add byte ptr [rax], al; ret; 
94187788611871: mov dword ptr [rdx], 0; ret; 
94187788611870: mov qword ptr [rdx], 0; ret; 
94187788611869: mov qword ptr [rdx], 0; ret; 
94187788611867: sal dword ptr [rbp - 0xe], 0x48; mov dword ptr [rdx], 0; ret; 
94187788611864: add dword ptr [rax + 0x39], ecx; sal dword ptr [rbp - 0xe], 0x48; mov dword ptr [rdx], 0; ret; 
94187788611914: ret; 
94187788611912: mov dword ptr [rdx], ecx; ret; 
94187788611911: mov qword ptr [rdx], rcx; ret; 
94187788611908: mov dword ptr [rdx + 8], eax; mov qword ptr [rdx], rcx; ret; 
94187788611907: mov qword ptr [rdx + 8], rax; mov qword ptr [rdx], rcx; ret; 
94187788611905: sub ecx, eax; mov qword ptr [rdx + 8], rax; mov qword ptr [rdx], rcx; ret; 
94187788611904: sub rcx, rax; mov qword ptr [rdx + 8], rax; mov qword ptr [rdx], rcx; ret; 
94187788611903: sub rcx, rax; mov qword ptr [rdx + 8], rax; mov qword ptr [rdx], rcx; ret; 
94187788611902: mov dword ptr [rsi], edi; sub rcx, rax; mov qword ptr [rdx + 8], rax; mov qword ptr [rdx], rcx; ret; 
94187788611901: mov qword ptr [rsi], rdi; sub rcx, rax; mov qword ptr [rdx + 8], rax; mov qword ptr [rdx], rcx; ret; 
94187788611900: add dword ptr [rax - 0x77], ecx; sub rcx, rax; mov qword ptr [rdx + 8], rax; mov qword ptr [rdx], rcx; ret; 
94187788611947: ret; 
94187788612246: ret; 
94187788612245: pop rdi; ret; 
94187788612244: pop r15; ret; 
94187788612243: pop rsi; pop r15; ret; 
94187788612242: pop r14; pop r15; ret; 
94187788612241: pop rbp; pop r14; pop r15; ret; 
94187788612240: pop r13; pop r14; pop r15; ret; 
94187788612239: pop rsp; pop r13; pop r14; pop r15; ret; 
94187788612238: pop r12; pop r13; pop r14; pop r15; ret; 
94187788612305: ret; 
94187788612304: pop rdi; ret; 
94187788612303: pop r15; ret; 
94187788612302: pop rsi; pop r15; ret; 
94187788612301: pop r14; pop r15; ret; 
94187788612300: pop rbp; pop r14; pop r15; ret; 
94187788612299: pop r13; pop r14; pop r15; ret; 
94187788612298: pop rsp; pop r13; pop r14; pop r15; ret; 
94187788612297: pop r12; pop r13; pop r14; pop r15; ret; 
94187788612330: ret; 
94187788612329: xchg eax, ebp; ret; 
94187788612332: ret; 
94187788612330: ret; 
94187788612765: ret; 
94187788612764: pop rdi; ret; 
94187788612763: pop r15; ret; 
94187788612762: pop rsi; pop r15; ret; 
94187788612761: pop r14; pop r15; ret; 
94187788612760: pop rbp; pop r14; pop r15; ret; 
94187788612759: pop r13; pop r14; pop r15; ret; 
94187788612758: pop rsp; pop r13; pop r14; pop r15; ret; 
94187788612757: pop r12; pop r13; pop r14; pop r15; ret; 
94187788613040: ret; 
94187788613038: add byte ptr [rax], al; ret; 
94187788613036: add byte ptr [rax], al; add byte ptr [rax], al; ret; 
94187788613035: add byte ptr [rax], 0; add byte ptr [rax], al; ret; 
94187788613033: nop dword ptr [rax]; ret; 
94187788613088: ret; 
94187788613099: ret; 
94187788613097: mov eax, esi; ret; 
94187788613096: mov rax, rsi; ret; 
94187788613094: add byte ptr [rax], al; mov rax, rsi; ret; 
94187788613092: add byte ptr [rax], al; add byte ptr [rax], al; mov rax, rsi; ret; 
94187788613091: add byte ptr [rax], 0; add byte ptr [rax], al; mov rax, rsi; ret; 
94187788613089: nop dword ptr [rax]; mov rax, rsi; ret; 
94187788613088: ret; 
94187788613126: ret; 
94187788613124: mov byte ptr [rsi], dl; ret; 
94187788613123: mov byte ptr cs:[rsi], dl; ret; 
94187788613121: add edx, 0x2e; mov byte ptr [rsi], dl; ret; 
94187788613120: add edx, 0x2e; mov byte ptr [rsi], dl; ret; 
94187788613118: and edx, 0x42; add edx, 0x2e; mov byte ptr [rsi], dl; ret; 
94187788613115: sar dl, 7; and edx, 0x42; add edx, 0x2e; mov byte ptr [rsi], dl; ret; 
94187788613171: ret; 
94187788613168: add esp, 8; ret; 
94187788613167: add rsp, 8; ret; 
94187788613160: mov dword ptr [rax + 8], 0xffffffff; add rsp, 8; ret; 
94187788613159: mov qword ptr [rax + 8], -1; add rsp, 8; ret; 
94187788613234: ret; 
94187788613231: add byte ptr [rax - 0x77], cl; ret; 
94187788613229: add byte ptr [rax], al; add byte ptr [rax - 0x77], cl; ret; 
94187788613228: add byte ptr [rax], 0; add byte ptr [rax - 0x77], cl; ret; 
94187788613346: ret; 
94187788613345: pop rsp; ret; 
94187788613344: pop r12; ret; 
94187788613343: pop rbp; pop r12; ret; 
94187788613342: pop rbx; pop rbp; pop r12; ret; 
94187788613341: fcomp dword ptr [rbx + 0x5d]; pop r12; ret; 
94187788613340: mov eax, ebx; pop rbx; pop rbp; pop r12; ret; 
94187788613339: mov rax, rbx; pop rbx; pop rbp; pop r12; ret; 
94187788613338: or eax, 0x5bd88948; pop rbp; pop r12; ret; 
94187788613336: sal byte ptr [rbp + rcx + 0x48], 0x89; fcomp dword ptr [rbx + 0x5d]; pop r12; ret; 
94187788613333: sbb byte ptr [rax - 0x7b], cl; sal byte ptr [rbp + rcx + 0x48], 0x89; fcomp dword ptr [rbx + 0x5d]; pop r12; ret; 
94187788613332: sbb byte ptr [r8 - 0x7b], r9b; sal byte ptr [rbp + rcx + 0x48], 0x89; fcomp dword ptr [rbx + 0x5d]; pop r12; ret; 
94187788613361: ret; 
94187788613360: pop rsp; ret; 
94187788613359: pop r12; ret; 
94187788613358: pop rbp; pop r12; ret; 
94187788613357: pop rbx; pop rbp; pop r12; ret; 
94187788613356: fcomp dword ptr [rbx + 0x5d]; pop r12; ret; 
94187788613355: mov eax, ebx; pop rbx; pop rbp; pop r12; ret; 
94187788613354: mov rax, rbx; pop rbx; pop rbp; pop r12; ret; 
94187788613353: fisttp dword ptr [rax - 0x77]; fcomp dword ptr [rbx + 0x5d]; pop r12; ret; 
94187788613518: ret; 
94187788613515: add eax, 1; ret; 
94187788613514: add rax, 1; ret; 
94187788613511: mov byte ptr [rsi], 0x30; add rax, 1; ret; 
94187788613508: sar byte ptr [rdi + 9], cl; mov byte ptr [rsi], 0x30; add rax, 1; ret; 
94187788613505: add byte ptr [rax - 0x7b], cl; sar byte ptr [rdi + 9], cl; mov byte ptr [rsi], 0x30; add rax, 1; ret; 
94187788613869: ret; 
94187788613866: add esp, 8; ret; 
94187788613865: add rsp, 8; ret; 
94187788613863: dec dword ptr [rdi]; add rsp, 8; ret; 
94187788613860: and eax, 0xfffffff; add rsp, 8; ret; 
94187788613859: add ah, byte ptr [rip + 0xfffffff]; add rsp, 8; ret; 
94187788613858: mov eax, dword ptr [rdx]; and eax, 0xfffffff; add rsp, 8; ret; 
94187788613857: add ecx, dword ptr [rbx - 0xdafe]; dec dword ptr [rdi]; add rsp, 8; ret; 
94187788613856: add rcx, qword ptr [rbx - 0xdafe]; dec dword ptr [rdi]; add rsp, 8; ret; 
94187788613855: mov byte ptr [rdx + 3], cl; mov eax, dword ptr [rdx]; and eax, 0xfffffff; add rsp, 8; ret; 
94187788613878: ret; 
94187788613875: add esp, 8; ret; 
94187788613874: add rsp, 8; ret; 
94187788613872: xor eax, eax; add rsp, 8; ret; 
94187788613871: nop; xor eax, eax; add rsp, 8; ret; 
94187788613870: nop; xor eax, eax; add rsp, 8; ret; 
94187788613869: ret; 
94187788613901: ret; 
94187788613896: sal byte ptr [rbp + rdx*2 + 0x48], 0x89; ret; 
94187788613893: add byte ptr [rax - 0x7b], cl; sal byte ptr [rbp + rdx*2 + 0x48], 0x89; ret; 
94187788613890: mov ah, byte ptr [rcx]; add byte ptr [rax - 0x7b], cl; sal byte ptr [rbp + rdx*2 + 0x48], 0x89; ret; 
94187788613887: add byte ptr [rbx - 0x18], dl; mov ah, byte ptr [rcx]; add byte ptr [rax - 0x7b], cl; sal byte ptr [rbp + rdx*2 + 0x48], 0x89; ret; 
94187788613911: ret; 
94187788613910: pop rbx; ret; 
94187788613974: ret; 
94187788613972: add eax, edx; ret; 
94187788613971: add rax, rdx; ret; 
94187788613969: dec dword ptr [rdi]; add rax, rdx; ret; 
94187788613965: and edx, 0xfffffff; add rax, rdx; ret; 
94187788613964: pop rbx; and edx, 0xfffffff; add rax, rdx; ret; 
94187788613962: mov edx, dword ptr [rbx]; pop rbx; and edx, 0xfffffff; add rax, rdx; ret; 
94187788613987: ret; 
94187788613986: pop rbx; ret; 
94187788613984: xor eax, eax; pop rbx; ret; 
94187788613982: add byte ptr [rax], al; xor eax, eax; pop rbx; ret; 
94187788613980: add byte ptr [rax], al; add byte ptr [rax], al; xor eax, eax; pop rbx; ret; 
94187788614023: ret; 
94187788614022: pop rbx; ret; 
94187788614020: add eax, dword ptr [rbx]; pop rbx; ret; 
94187788614019: add rax, qword ptr [rbx]; pop rbx; ret; 
94187788614014: call 0x55a9cda9d580; add rax, qword ptr [rbx]; pop rbx; ret; 
94187788614012: mov edx, dword ptr [rdx]; call 0x55a9cda9d580; add rax, qword ptr [rbx]; pop rbx; ret; 
94187788614011: mov rdx, qword ptr [rdx]; call 0x55a9cda9d580; add rax, qword ptr [rbx]; pop rbx; ret; 
94187788614062: ret; 
94187788614060: add eax, edx; ret; 
94187788614059: add rax, rdx; ret; 
94187788614058: pop rbx; add rax, rdx; ret; 
94187788614057: adc ebx, dword ptr [rbx + 0x48]; add eax, edx; ret; 
94187788614056: mov edx, dword ptr [rbx]; pop rbx; add rax, rdx; ret; 
94187788614055: mov rdx, qword ptr [rbx]; pop rbx; add rax, rdx; ret; 
94187788614054: dec dword ptr [rax - 0x75]; adc ebx, dword ptr [rbx + 0x48]; add eax, edx; ret; 
94187788614053: sti; dec dword ptr [rax - 0x75]; adc ebx, dword ptr [rbx + 0x48]; add eax, edx; ret; 
94187788614052: sbb edi, ebx; dec dword ptr [rax - 0x75]; adc ebx, dword ptr [rbx + 0x48]; add eax, edx; ret; 
94187788614094: ret; 
94187788614092: add eax, edx; ret; 
94187788614091: add rax, rdx; ret; 
94187788614090: pop rbx; add rax, rdx; ret; 
94187788614089: adc ebx, dword ptr [rbx + 0x48]; add eax, edx; ret; 
94187788614088: mov edx, dword ptr [rbx]; pop rbx; add rax, rdx; ret; 
94187788614087: mov rdx, qword ptr [rbx]; pop rbx; add rax, rdx; ret; 
94187788614086: dec dword ptr [rax - 0x75]; adc ebx, dword ptr [rbx + 0x48]; add eax, edx; ret; 
94187788614085: sti; dec dword ptr [rax - 0x75]; adc ebx, dword ptr [rbx + 0x48]; add eax, edx; ret; 
94187788614084: sbb edi, ebx; dec dword ptr [rax - 0x75]; adc ebx, dword ptr [rbx + 0x48]; add eax, edx; ret; 
94187788614083: mov ecx, 0x48fffb1b; mov edx, dword ptr [rbx]; pop rbx; add rax, rdx; ret; 
94187788614082: call 0x55a9cda9d580; mov rdx, qword ptr [rbx]; pop rbx; add rax, rdx; ret; 
94187788614121: ret; 
94187788614118: or dword ptr [rax - 0x77], ecx; ret; 
94187788614116: sal byte ptr [rcx + rcx + 0x48], 0x89; ret; 
94187788614113: add byte ptr [rax - 0x7b], cl; sal byte ptr [rcx + rcx + 0x48], 0x89; ret; 
94187788614137: ret; 
94187788614136: pop rbp; ret; 
94187788614135: pop rbx; pop rbp; ret; 
94187788614133: mov eax, ebp; pop rbx; pop rbp; ret; 
94187788614132: mov rax, rbp; pop rbx; pop rbp; ret; 
94187788614129: add esp, 8; mov rax, rbp; pop rbx; pop rbp; ret; 
94187788614128: add rsp, 8; mov rax, rbp; pop rbx; pop rbp; ret; 
94187788614121: ret; 
94187788614184: ret; 
94187788614183: pop rbp; ret; 
94187788614181: mov eax, ebp; pop rbp; ret; 
94187788614180: mov rax, rbp; pop rbp; ret; 
94187788614178: add ebp, eax; mov rax, rbp; pop rbp; ret; 
94187788614177: add rbp, rax; mov rax, rbp; pop rbp; ret; 
94187788614175: dec dword ptr [rdi]; add rbp, rax; mov rax, rbp; pop rbp; ret; 
94187788614171: and ebp, 0xfffffff; add rbp, rax; mov rax, rbp; pop rbp; ret; 
94187788614217: ret; 
94187788614212: sal byte ptr [rcx + rcx*2 + 0x48], 0x89; ret; 
94187788614209: add byte ptr [rax - 0x7b], cl; sal byte ptr [rcx + rcx*2 + 0x48], 0x89; ret; 
94187788614267: ret; 
94187788614266: pop rbp; ret; 
94187788614264: add eax, ebp; pop rbp; ret; 
94187788614263: add rax, rbp; pop rbp; ret; 
94187788614261: dec dword ptr [rdi]; add rax, rbp; pop rbp; ret; 
94187788614257: and ebp, 0xfffffff; add rax, rbp; pop rbp; ret; 
94187788614256: pop rbx; and ebp, 0xfffffff; add rax, rbp; pop rbp; ret; 
94187788614297: ret; 
94187788614296: pop rbp; ret; 
94187788614295: pop rbx; pop rbp; ret; 
94187788614293: mov eax, ebp; pop rbx; pop rbp; ret; 
94187788614292: mov rax, rbp; pop rbx; pop rbp; ret; 
94187788614289: add esp, 8; mov rax, rbp; pop rbx; pop rbp; ret; 
94187788614288: add rsp, 8; mov rax, rbp; pop rbx; pop rbp; ret; 
94187788614375: ret; 
94187788614372: div dword ptr [rbp - 0x27]; ret; 
94187788614369: add dword ptr [rax + 0x39], ecx; div dword ptr [rbp - 0x27]; ret; 
94187788614386: ret; 
94187788614384: xor eax, eax; ret; 
94187788614382: add byte ptr [rax], al; xor eax, eax; ret; 
94187788614380: add byte ptr [rax], al; add byte ptr [rax], al; xor eax, eax; ret; 
94187788614378: test byte ptr [rax], al; add byte ptr [rax], al; add byte ptr [rax], al; xor eax, eax; ret; 
94187788614376: nop dword ptr [rax + rax]; xor eax, eax; ret; 
94187788614375: ret; 
94187788614429: ret; 
94187788614426: add byte ptr [rax - 0x77], cl; ret; 
94187788614424: add byte ptr [rax], al; add byte ptr [rax - 0x77], cl; ret; 
94187788614422: test ch, cl; add byte ptr [rax], al; add byte ptr [rax - 0x77], cl; ret; 
94187788614486: ret; 
94187788614485: pop rbp; ret; 
94187788614484: pop rbx; pop rbp; ret; 
94187788614483: or byte ptr [rbx + 0x5d], bl; ret; 
94187788614481: add esp, 8; pop rbx; pop rbp; ret; 
94187788614480: add rsp, 8; pop rbx; pop rbp; ret; 
94187788614478: add eax, edx; add rsp, 8; pop rbx; pop rbp; ret; 
94187788614477: add rax, rdx; add rsp, 8; pop rbx; pop rbp; ret; 
94187788614598: ret; 
94187788614646: ret; 
94187788614645: pop rbp; ret; 
94187788614644: pop rbx; pop rbp; ret; 
94187788614643: add dword ptr [rbx + 0x5d], ebx; ret; 
94187788614642: add dword ptr [r11 + 0x5d], r11d; ret; 
94187788614641: lea eax, dword ptr [rbp + 1]; pop rbx; pop rbp; ret; 
94187788614640: lea rax, qword ptr [rbp + 1]; pop rbx; pop rbp; ret; 
94187788614639: or byte ptr [rax - 0x73], cl; add dword ptr [r11 + 0x5d], r11d; ret; 
94187788614637: add esp, 8; lea rax, qword ptr [rbp + 1]; pop rbx; pop rbp; ret; 
94187788614636: add rsp, 8; lea rax, qword ptr [rbp + 1]; pop rbx; pop rbp; ret; 
94187788614635: sub eax, 0x8c48348; lea rax, qword ptr [rbp + 1]; pop rbx; pop rbp; ret; 
94187788614634: add byte ptr [rip + 0x8c48348], ch; lea rax, qword ptr [rbp + 1]; pop rbx; pop rbp; ret; 
94187788614633: add byte ptr [rip + 0x8c48348], r13b; lea rax, qword ptr [rbp + 1]; pop rbx; pop rbp; ret; 
94187788614694: ret; 
94187788614691: add ecx, dword ptr [rcx - 0x77]; ret; 
94187788614690: pop rax; add ecx, dword ptr [rcx - 0x77]; ret; 
94187788614689: mov dh, 0x58; add ecx, dword ptr [rcx - 0x77]; ret; 
94187788614685: sal byte ptr [rax + 0xf], 0xb6; pop rax; add ecx, dword ptr [rcx - 0x77]; ret; 
94187788614682: add byte ptr [rax - 0x7b], cl; sal byte ptr [rax + 0xf], 0xb6; pop rax; add ecx, dword ptr [rcx - 0x77]; ret; 
94187788614701: ret; 
94187788614699: add dh, dh; ret; 
94187788614697: add byte ptr [rax], al; add dh, dh; ret; 
94187788614694: ret; 
94187788614711: ret; 
94187788614710: pop rbp; ret; 
94187788614709: pop rbx; pop rbp; ret; 
94187788614708: or byte ptr [rbx + 0x5d], bl; ret; 
94187788614706: add esp, 8; pop rbx; pop rbp; ret; 
94187788614705: add rsp, 8; pop rbx; pop rbp; ret; 
94187788614704: cmovs eax, dword ptr [rbx + 0x5d5b08c4]; ret; 
94187788614701: ret; 
94187788614774: ret; 
94187788614773: pop rbp; ret; 
94187788614772: pop rbx; pop rbp; ret; 
94187788614771: or byte ptr [rbx + 0x5d], bl; ret; 
94187788614769: add esp, 8; pop rbx; pop rbp; ret; 
94187788614768: add rsp, 8; pop rbx; pop rbp; ret; 
94187788614765: mov byte ptr [rbx + 3], bl; add rsp, 8; pop rbx; pop rbp; ret; 
94187788614764: mov byte ptr [r11 + 3], bl; add rsp, 8; pop rbx; pop rbp; ret; 
94187788614795: ret; 
94187788614794: pop rbp; ret; 
94187788614793: pop rbx; pop rbp; ret; 
94187788614792: add byte ptr [rbx + 0x5d], bl; ret; 
94187788614791: add byte ptr [rax], al; pop rbx; pop rbp; ret; 
94187788614790: add byte ptr [rax], al; add byte ptr [rbx + 0x5d], bl; ret; 
94187788614789: add dword ptr [rax], eax; add byte ptr [rax], al; pop rbx; pop rbp; ret; 
94187788614788: mov eax, 1; pop rbx; pop rbp; ret; 
94187788614787: or byte ptr [rax + 1], bh; pop rbx; pop rbp; ret; 
94187788614785: add esp, 8; mov eax, 1; pop rbx; pop rbp; ret; 
94187788614784: add rsp, 8; mov eax, 1; pop rbx; pop rbp; ret; 
94187788614884: ret; 
94187788614883: pop rdi; ret; 
94187788614882: pop r15; ret; 
94187788614881: pop rsi; pop r15; ret; 
94187788614880: pop r14; pop r15; ret; 
94187788614879: pop rbp; pop r14; pop r15; ret; 
94187788614878: pop r13; pop r14; pop r15; ret; 
94187788614877: pop rsp; pop r13; pop r14; pop r15; ret; 
94187788614876: pop r12; pop r13; pop r14; pop r15; ret; 
94187788614923: ret; 
94187788615188: ret; 
94187788615185: add dword ptr [rax - 0x7d], ecx; ret; 
94187788615578: ret; 
94187788615577: pop rsp; ret; 
94187788615576: pop r12; ret; 
94187788615575: pop rbp; pop r12; ret; 
94187788615574: pop rbx; pop rbp; pop r12; ret; 
94187788615573: call 0x55aa29f01cf5; ret; 
94187788615572: mov eax, ebp; pop rbx; pop rbp; pop r12; ret; 
94187788615571: mov rax, rbp; pop rbx; pop rbp; pop r12; ret; 
94187788615631: ret; 
94187788615628: dec dword ptr [rax - 0x77]; ret; 
94187788615627: sti; dec dword ptr [rax - 0x77]; ret; 
94187788615626: sti; dec dword ptr [rax - 0x77]; ret; 
94187788612037: jmp rax; 
94187788612035: add eax, ebp; jmp rax; 
94187788612034: add rax, r13; jmp rax; 
94187788612033: add byte ptr [rcx + rax - 0x18], cl; jmp rax; 
94187788612032: test dword ptr [rax], eax; add rax, r13; jmp rax; 
94187788612031: test dword ptr [rax], r8d; add rax, r13; jmp rax; 
94187788612029: movsxd rax, dword ptr [r13 + rax*4]; add rax, r13; jmp rax; 
94187788612028: fmul dword ptr [rcx + 0x63]; test dword ptr [rax], r8d; add rax, r13; jmp rax; 
94187788612027: mov eax, ebx; movsxd rax, dword ptr [r13 + rax*4]; add rax, r13; jmp rax; 
94187788612026: and al, 0x89; fmul dword ptr [rcx + 0x63]; test dword ptr [rax], r8d; add rax, r13; jmp rax; 
94187788612134: jmp rax; 
94187788612132: add eax, ecx; jmp rax; 
94187788612131: add rax, rcx; jmp rax; 
94187788612130: cdq; add rax, rcx; jmp rax; 
94187788612129: add al, 0x99; add rax, rcx; jmp rax; 
94187788612127: movsxd rax, dword ptr [rcx + rbx*4]; add rax, rcx; jmp rax; 
94187788612126: add byte ptr [rax + 0x63], cl; add al, 0x99; add rax, rcx; jmp rax; 
94187788612124: mov edx, 0x63480006; add al, 0x99; add rax, rcx; jmp rax; 
94187788612123: stc; mov edx, 0x63480006; add al, 0x99; add rax, rcx; jmp rax; 
94187788612122: or eax, 0x6baf9; movsxd rax, dword ptr [rcx + rbx*4]; add rax, rcx; jmp rax; 
94187788612121: lea ecx, dword ptr [rip + 0x6baf9]; movsxd rax, dword ptr [rcx + rbx*4]; add rax, rcx; jmp rax; 
94187788612120: lea rcx, qword ptr [rip + 0x6baf9]; movsxd rax, dword ptr [rcx + rbx*4]; add rax, rcx; jmp rax; 
94187788612119: jo 0x55a9cdaeb261; lea ecx, dword ptr [rip + 0x6baf9]; movsxd rax, dword ptr [rcx + rbx*4]; add rax, rcx; jmp rax; 
94187788612949: jmp rax; 
94187788612948: clc; jmp rax; 
94187788612947: add eax, edi; jmp rax; 
94187788612946: add rax, rdi; jmp rax; 
94187788612945: cmpsd dword ptr [rsi], dword ptr [rdi]; add rax, rdi; jmp rax; 
94187788612944: add al, 0xa7; add rax, rdi; jmp rax; 
94187788612942: movsxd rax, dword ptr [rdi + r12*4]; add rax, rdi; jmp rax; 
94187788612940: mov dh, 0xe4; movsxd rax, dword ptr [rdi + r12*4]; add rax, rdi; jmp rax; 
94187788612939: movzx esp, ah; movsxd rax, dword ptr [rdi + r12*4]; add rax, rdi; jmp rax; 
94187788612938: movzx r12d, r12b; movsxd rax, dword ptr [rdi + r12*4]; add rax, rdi; jmp rax; 
94187788612937: add byte ptr [rbp + 0xf], al; mov dh, 0xe4; movsxd rax, dword ptr [rdi + r12*4]; add rax, rdi; jmp rax; 
94187788612935: mov eax, 0xf450006; mov dh, 0xe4; movsxd rax, dword ptr [rdi + r12*4]; add rax, rdi; jmp rax; 
94187788612934: add bh, byte ptr [rax + 0xf450006]; mov dh, 0xe4; movsxd rax, dword ptr [rdi + r12*4]; add rax, rdi; jmp rax; 
94187788612933: cmp eax, 0x6b802; movzx r12d, r12b; movsxd rax, dword ptr [rdi + r12*4]; add rax, rdi; jmp rax; 
94187788612932: lea edi, dword ptr [rip + 0x6b802]; movzx r12d, r12b; movsxd rax, dword ptr [rdi + r12*4]; add rax, rdi; jmp rax; 
94187788612931: lea rdi, qword ptr [rip + 0x6b802]; movzx r12d, r12b; movsxd rax, dword ptr [rdi + r12*4]; add rax, rdi; jmp rax; 
94187788612979: jmp rax; 
94187788612977: add eax, ecx; jmp rax; 
94187788612976: add rax, rcx; jmp rax; 
94187788612974: add al, 0xa1; add rax, rcx; jmp rax; 
94187788612972: movsxd rax, dword ptr [rcx + r12*4]; add rax, rcx; jmp rax; 
94187788612970: mov dh, 0xe4; movsxd rax, dword ptr [rcx + r12*4]; add rax, rcx; jmp rax; 
94187788612969: movzx esp, ah; movsxd rax, dword ptr [rcx + r12*4]; add rax, rcx; jmp rax; 
94187788612968: movzx r12d, r12b; movsxd rax, dword ptr [rcx + r12*4]; add rax, rcx; jmp rax; 
94187788612967: add byte ptr [rbp + 0xf], al; mov dh, 0xe4; movsxd rax, dword ptr [rcx + r12*4]; add rax, rcx; jmp rax; 
94187788612965: mov eax, 0xf450006; mov dh, 0xe4; movsxd rax, dword ptr [rcx + r12*4]; add rax, rcx; jmp rax; 
94187788612963: or eax, 0x6b8b0; movzx r12d, r12b; movsxd rax, dword ptr [rcx + r12*4]; add rax, rcx; jmp rax; 
94187788612962: lea ecx, dword ptr [rip + 0x6b8b0]; movzx r12d, r12b; movsxd rax, dword ptr [rcx + r12*4]; add rax, rcx; jmp rax; 
94187788612961: lea rcx, qword ptr [rip + 0x6b8b0]; movzx r12d, r12b; movsxd rax, dword ptr [rcx + r12*4]; add rax, rcx; jmp rax; 
94187788611666: jmp qword ptr [rsi]; 
94187788612601: jmp qword ptr [rsi + 0xf]; 
94187788612729: jmp qword ptr [rsi + 0xf]; 
94187788613536: jmp qword ptr [rsi + 0x66]; 
94187788613535: sti; jmp qword ptr [rsi + 0x66]; 
94187788613809: jmp qword ptr [rsi + 0x66]; 
94187788613808: sti; jmp qword ptr [rsi + 0x66]; 
94187788614669: jmp qword ptr [rsi - 0x70]; 
94187788615361: jmp qword ptr [rsi + 0xf]; 
94187788615505: jmp qword ptr [rsi + 0x66]; 
94187788615504: sti; jmp qword ptr [rsi + 0x66]; 
94187788612105: ret 0x757f; 
94187788612218: ret 0x8e0f; 
94187788612788: ret 0x4805; 
94187788612785: dec dword ptr [rax - 0x7d]; ret 0x4805; 
94187788612802: ret 0xfffd; 
94187788612800: adc cl, ch; ret 0xfffd; 
94187788612799: push rdi; adc cl, ch; ret 0xfffd; 
94187788612796: dec dword ptr [rcx - 0x77]; push rdi; adc cl, ch; ret 0xfffd; 
94187788612788: ret 0x4805; 
94187788612821: ret 0x8949; 
94187788612882: ret 0x4904; 
94187788613122: ret 0x882e; 
94187788613753: ret 0x3e8; 
94187788613844: ret 0xc031; 
94187788613841: add ecx, dword ptr [rax - 0x77]; ret 0xc031; 
94187788613840: add rcx, qword ptr [rax - 0x77]; ret 0xc031; 
94187788613839: mov dh, 0x48; add ecx, dword ptr [rax - 0x77]; ret 0xc031; 
94187788613837: and cl, byte ptr [rdi]; mov dh, 0x48; add ecx, dword ptr [rax - 0x77]; ret 0xc031; 
94187788613835: sal byte ptr [rdx + 0xf], 0xb6; add rcx, qword ptr [rax - 0x77]; ret 0xc031; 
94187788613832: add byte ptr [rax - 0x7b], cl; sal byte ptr [rdx + 0xf], 0xb6; add rcx, qword ptr [rax - 0x77]; ret 0xc031; 
94187788613944: ret 0xd189; 
94187788613943: xchg eax, ebp; ret 0xd189; 
94187788613941: ror byte ptr [rdi], 0x95; ret 0xd189; 
94187788613938: dec dword ptr [rax - 0x7b]; ror byte ptr [rdi], 0x95; ret 0xd189; 
94187788613937: sti; dec dword ptr [rax - 0x7b]; ror byte ptr [rdi], 0x95; ret 0xd189; 
94187788613936: popfq; sti; dec dword ptr [rax - 0x7b]; ror byte ptr [rdi], 0x95; ret 0xd189; 
94187788614752: ret 0xe383; 
94187788614751: xchg eax, ebp; ret 0xe383; 
94187788614982: ret 0xda80; 
94187788614981: xchg eax, edi; ret 0xda80; 
94187788615013: ret 0xda80; 
94187788615012: xchg eax, edi; ret 0xda80; 
94187788615044: ret 0xda80; 
94187788615043: xchg eax, edi; ret 0xda80; 
94187788615075: ret 0xda80; 
94187788615074: xchg eax, edi; ret 0xda80; 
94187788615342: call qword ptr [rax + 0x24448b48]; 
94187788423741: ret; 
94187788423740: pop rsi; ret; 
94187788423739: pop r14; ret; 
94187788423738: pop rbp; pop r14; ret; 
94187788423737: pop r13; pop r14; ret; 
94187788423736: pop rsp; pop r13; pop r14; ret; 
94187788423735: pop r12; pop r13; pop r14; ret; 
94187788423734: pop rbp; pop r12; pop r13; pop r14; ret; 
94187788423910: ret; 
94187788423907: dec dword ptr [rax - 0x39]; ret; 
94187788424285: ret; 
94187788424284: pop rbp; ret; 
94187788424283: pop r13; ret; 
94187788424282: pop rsp; pop r13; ret; 
94187788424281: pop r12; pop r13; ret; 
94187788424280: pop rbp; pop r12; pop r13; ret; 
94187788424279: pop rbx; pop rbp; pop r12; pop r13; ret; 
94187788424278: add byte ptr [rbx + 0x5d], bl; pop r12; pop r13; ret; 
94187788424337: ret; 
94187788424895: ret; 
94187788425107: ret; 
94187788425106: pop rbp; ret; 
94187788425105: pop r13; ret; 
94187788425104: pop rsp; pop r13; ret; 
94187788425103: pop r12; pop r13; ret; 
94187788425102: pop rbp; pop r12; pop r13; ret; 
94187788425101: pop rbx; pop rbp; pop r12; pop r13; ret; 
94187788425100: or byte ptr [rbx + 0x5d], bl; pop r12; pop r13; ret; 
94187788425156: ret; 
94187788425151: sal byte ptr [rsi + rbp*2 + 0x48], 0x89; ret; 
94187788425148: dec dword ptr [rax - 0x7b]; sal byte ptr [rsi + rbp*2 + 0x48], 0x89; ret; 
94187788425146: xor edi, esi; dec dword ptr [rax - 0x7b]; sal byte ptr [rsi + rbp*2 + 0x48], 0x89; ret; 
94187788425145: push rbx; xor edi, esi; dec dword ptr [rax - 0x7b]; sal byte ptr [rsi + rbp*2 + 0x48], 0x89; ret; 
94187788425253: ret; 
94187788425252: pop rbp; ret; 
94187788425251: pop r13; ret; 
94187788425250: pop rsp; pop r13; ret; 
94187788425249: pop r12; pop r13; ret; 
94187788425248: pop rbp; pop r12; pop r13; ret; 
94187788425247: pop rbx; pop rbp; pop r12; pop r13; ret; 
94187788425246: fcomp dword ptr [rbx + 0x5d]; pop r12; pop r13; ret; 
94187788425279: ret; 
94187788425278: pop rbp; ret; 
94187788425277: pop r13; ret; 
94187788425276: pop rsp; pop r13; ret; 
94187788425275: pop r12; pop r13; ret; 
94187788425274: pop rbp; pop r12; pop r13; ret; 
94187788425273: pop rbx; pop rbp; pop r12; pop r13; ret; 
94187788425272: fcomp dword ptr [rbx + 0x5d]; pop r12; pop r13; ret; 
94187788426423: ret; 
94187788426422: pop rdi; ret; 
94187788426421: pop r15; ret; 
94187788426420: pop rsi; pop r15; ret; 
94187788426419: pop r14; pop r15; ret; 
94187788426418: pop rbp; pop r14; pop r15; ret; 
94187788426417: pop r13; pop r14; pop r15; ret; 
94187788426416: pop rsp; pop r13; pop r14; pop r15; ret; 
94187788426415: pop r12; pop r13; pop r14; pop r15; ret; 
94187788426772: ret; 
94187788426769: dec dword ptr [rax - 0x77]; ret; 
94187788425052: call qword ptr [rax]; 
94187788425047: add eax, 0xefcc4; call qword ptr [rax]; 
94187788425046: lea eax, dword ptr [rip + 0xefcc4]; call qword ptr [rax]; 
94187788425045: lea rax, qword ptr [rip + 0xefcc4]; call qword ptr [rax]; 
94187788425044: and byte ptr [rax - 0x73], cl; add eax, 0xefcc4; call qword ptr [rax]; 
94187788425043: and byte ptr [r8 - 0x73], r9b; add eax, 0xefcc4; call qword ptr [rax]; 
94187788425042: mov dword ptr [rdi + 0x20], eax; lea rax, qword ptr [rip + 0xefcc4]; call qword ptr [rax]; 
94187788425041: mov qword ptr [rdi + 0x20], rax; lea rax, qword ptr [rip + 0xefcc4]; call qword ptr [rax]; 
94187788425040: adc byte ptr [rax - 0x77], cl; and byte ptr [r8 - 0x73], r9b; add eax, 0xefcc4; call qword ptr [rax]; 
94187788425039: adc byte ptr [rax - 0x77], cl; and byte ptr [r8 - 0x73], r9b; add eax, 0xefcc4; call qword ptr [rax]; 
94187788425038: mov eax, dword ptr [rax + 0x10]; mov qword ptr [rdi + 0x20], rax; lea rax, qword ptr [rip + 0xefcc4]; call qword ptr [rax]; 
94187788425037: mov rax, qword ptr [rax + 0x10]; mov qword ptr [rdi + 0x20], rax; lea rax, qword ptr [rip + 0xefcc4]; call qword ptr [rax]; 
94187788425036: add byte ptr [rax - 0x75], cl; adc byte ptr [rax - 0x77], cl; and byte ptr [r8 - 0x73], r9b; add eax, 0xefcc4; call qword ptr [rax]; 
94187788425035: mov eax, dword ptr [rax]; mov rax, qword ptr [rax + 0x10]; mov qword ptr [rdi + 0x20], rax; lea rax, qword ptr [rip + 0xefcc4]; call qword ptr [rax]; 
94187788425034: mov rax, qword ptr [rax]; mov rax, qword ptr [rax + 0x10]; mov qword ptr [rdi + 0x20], rax; lea rax, qword ptr [rip + 0xefcc4]; call qword ptr [rax]; 
94187788424429: jmp qword ptr [rsi - 0x70]; 
94187788424848: jmp qword ptr [rsi + 0x66]; 
94187788424847: std; jmp qword ptr [rsi + 0x66]; 
94187788424846: idiv ebp; jmp qword ptr [rsi + 0x66]; 
94187788424845: push rdi; std; jmp qword ptr [rsi + 0x66]; 
94187788427121: jmp qword ptr [rsi + 0xf]; 
94187788423537: ret 0xe901; 
94187788423534: add byte ptr [rcx - 0x7d], cl; ret 0xe901; 
94187788423532: add byte ptr [rax], al; add byte ptr [rcx - 0x7d], cl; ret 0xe901; 
94187788423530: xor byte ptr [rcx], al; add byte ptr [rax], al; add byte ptr [rcx - 0x7d], cl; ret 0xe901; 
94187788425450: ret 0xf01; 
94187788425447: add byte ptr [rax - 0x7d], cl; ret 0xf01; 
94187788425445: add byte ptr [rax], al; add byte ptr [rax - 0x7d], cl; ret 0xf01; 
94187788425876: ret 0xe083; 
94187788425870: xchg byte ptr [rbx - 0x77000000], al; ret 0xe083; 
94187788425991: ret 0xf41; 
94187788426027: ret 0x325; 
94187788426021: xchg byte ptr [rax - 0x77000000], al; ret 0x325; 
94187788426285: ret 0x548b; 
94187788426504: ret 0x8a8; 
94187788426498: xchg byte ptr [rbx - 0x77000000], al; ret 0x8a8; 
94187788427179: ret 0xf41; 
94187788427219: ret 0x8841; 
94187788427217: dec byte ptr [rcx]; ret 0x8841; 
94187788423358: call qword ptr [rax + 0x1c68348]; 
94187788419321: ret; 
94187788420343: ret; 
94187788420571: ret; 
94187788420570: pop rdi; ret; 
94187788420569: pop r15; ret; 
94187788420568: pop rsi; pop r15; ret; 
94187788420567: pop r14; pop r15; ret; 
94187788420566: pop rbp; pop r14; pop r15; ret; 
94187788420565: pop r13; pop r14; pop r15; ret; 
94187788420564: pop rsp; pop r13; pop r14; pop r15; ret; 
94187788420563: pop r12; pop r13; pop r14; pop r15; ret; 
94187788420602: ret; 
94187788420601: pop rdi; ret; 
94187788420600: pop r15; ret; 
94187788420599: pop rsi; pop r15; ret; 
94187788420598: pop r14; pop r15; ret; 
94187788420597: pop rbp; pop r14; pop r15; ret; 
94187788420596: pop r13; pop r14; pop r15; ret; 
94187788420595: pop rsp; pop r13; pop r14; pop r15; ret; 
94187788420594: pop r12; pop r13; pop r14; pop r15; ret; 
94187788420754: ret; 
94187788420753: pop rsi; ret; 
94187788420752: pop r14; ret; 
94187788420751: pop rbp; pop r14; ret; 
94187788420750: pop r13; pop r14; ret; 
94187788420749: pop rsp; pop r13; pop r14; ret; 
94187788420748: pop r12; pop r13; pop r14; ret; 
94187788420747: pop rbp; pop r12; pop r13; pop r14; ret; 
94187788420867: ret; 
94187788420866: pop rbx; ret; 
94187788420864: add byte ptr [rax], al; pop rbx; ret; 
94187788420862: add byte ptr [rax], al; add byte ptr [rax], al; pop rbx; ret; 
94187788420860: add byte ptr [rax], al; add byte ptr [rax], al; add byte ptr [rax], al; pop rbx; ret; 
94187788421098: ret; 
94187788421097: pop rbp; ret; 
94187788421096: pop r13; ret; 
94187788421095: pop rsp; pop r13; ret; 
94187788421094: pop r12; pop r13; ret; 
94187788421093: pop rbp; pop r12; pop r13; ret; 
94187788421092: pop rbx; pop rbp; pop r12; pop r13; ret; 
94187788421091: or byte ptr [rbx + 0x5d], bl; pop r12; pop r13; ret; 
94187788421479: ret; 
94187788421478: pop rdi; ret; 
94187788421477: pop r15; ret; 
94187788421476: pop rsi; pop r15; ret; 
94187788421475: pop r14; pop r15; ret; 
94187788421474: pop rbp; pop r14; pop r15; ret; 
94187788421473: pop r13; pop r14; pop r15; ret; 
94187788421472: pop rsp; pop r13; pop r14; pop r15; ret; 
94187788421471: pop r12; pop r13; pop r14; pop r15; ret; 
94187788421755: ret; 
94187788421752: adc byte ptr [rax - 0x7d], cl; ret; 
94187788421940: ret; 
94187788421937: dec dword ptr [rax - 0x7d]; ret; 
94187788421971: ret; 
94187788421970: pop rdi; ret; 
94187788421969: pop r15; ret; 
94187788421968: pop rsi; pop r15; ret; 
94187788421967: pop r14; pop r15; ret; 
94187788421966: pop rbp; pop r14; pop r15; ret; 
94187788421965: pop r13; pop r14; pop r15; ret; 
94187788421964: pop rsp; pop r13; pop r14; pop r15; ret; 
94187788421963: pop r12; pop r13; pop r14; pop r15; ret; 
94187788422274: ret; 
94187788422323: ret; 
94187788422322: pop rbp; ret; 
94187788422321: pop r13; ret; 
94187788422320: pop rsp; pop r13; ret; 
94187788422319: pop r12; pop r13; ret; 
94187788422318: pop rbp; pop r12; pop r13; ret; 
94187788422317: pop rbx; pop rbp; pop r12; pop r13; ret; 
94187788422316: or byte ptr [rbx + 0x5d], bl; pop r12; pop r13; ret; 
94187788422392: ret; 
94187788422546: ret; 
94187788422545: pop rdi; ret; 
94187788422544: pop r15; ret; 
94187788422543: pop rsi; pop r15; ret; 
94187788422542: pop r14; pop r15; ret; 
94187788422541: pop rbp; pop r14; pop r15; ret; 
94187788422540: pop r13; pop r14; pop r15; ret; 
94187788422539: pop rsp; pop r13; pop r14; pop r15; ret; 
94187788422538: pop r12; pop r13; pop r14; pop r15; ret; 
94187788422649: ret; 
94187788422647: add al, ch; ret; 
94187788422879: ret; 
94187788422878: pop rdi; ret; 
94187788422877: pop r15; ret; 
94187788422876: pop rsi; pop r15; ret; 
94187788422875: pop r14; pop r15; ret; 
94187788422874: pop rbp; pop r14; pop r15; ret; 
94187788422873: pop r13; pop r14; pop r15; ret; 
94187788422872: pop rsp; pop r13; pop r14; pop r15; ret; 
94187788422871: pop r12; pop r13; pop r14; pop r15; ret; 
94187788420335: call qword ptr [rax]; 
94187788420333: sub edx, esi; call qword ptr [rax]; 
94187788420332: sub rdx, rsi; call qword ptr [rax]; 
94187788420327: add eax, 0xf0e34; sub rdx, rsi; call qword ptr [rax]; 
94187788420326: lea eax, dword ptr [rip + 0xf0e34]; sub rdx, rsi; call qword ptr [rax]; 
94187788420325: lea rax, qword ptr [rip + 0xf0e34]; sub rdx, rsi; call qword ptr [rax]; 
94187788420324: out 0x48, eax; lea eax, dword ptr [rip + 0xf0e34]; sub rdx, rsi; call qword ptr [rax]; 
94187788420323: mov edi, esp; lea rax, qword ptr [rip + 0xf0e34]; sub rdx, rsi; call qword ptr [rax]; 
94187788420322: mov rdi, r12; lea rax, qword ptr [rip + 0xf0e34]; sub rdx, rsi; call qword ptr [rax]; 
94187788420321: sub byte ptr [rcx + rcx*4 - 0x19], cl; lea rax, qword ptr [rip + 0xf0e34]; sub rdx, rsi; call qword ptr [rax]; 
94187788420320: push rsi; sub byte ptr [rcx + rcx*4 - 0x19], cl; lea rax, qword ptr [rip + 0xf0e34]; sub rdx, rsi; call qword ptr [rax]; 
94187788420319: mov edx, dword ptr [rsi + 0x28]; mov rdi, r12; lea rax, qword ptr [rip + 0xf0e34]; sub rdx, rsi; call qword ptr [rax]; 
94187788420318: mov rdx, qword ptr [r14 + 0x28]; mov rdi, r12; lea rax, qword ptr [rip + 0xf0e34]; sub rdx, rsi; call qword ptr [rax]; 
94187788419684: jmp qword ptr [rsi + 0x41]; 
94187788419678: test dword ptr [rdi], 0xfffc9e85; jmp qword ptr [rsi + 0x41]; 
94187788419723: jmp qword ptr [rsi - 0x7d]; 
94187788420196: jmp qword ptr [rsi + 0x41]; 
94187788420190: test dword ptr [rdi], 0xfffa9e85; jmp qword ptr [rsi + 0x41]; 
94187788420243: jmp qword ptr [rsi + 0x66]; 
94187788421181: jmp qword ptr [rsi - 0x70]; 
94187788421232: jmp qword ptr [rsi + 0x66]; 
94187788421517: jmp qword ptr [rsi - 0x70]; 
94187788421561: jmp qword ptr [rsi + 0xf]; 
94187788421606: jmp qword ptr [rsi + 0xf]; 
94187788421604: xor dh, bh; jmp qword ptr [rsi + 0xf]; 
94187788421603: cdq; xor dh, bh; jmp qword ptr [rsi + 0xf]; 
94187788421645: jmp qword ptr [rsi - 0x70]; 
94187788421677: jmp qword ptr [rsi - 0x70]; 
94187788421909: jmp qword ptr [rsi + 0x2e]; 
94187788422197: jmp qword ptr [rsi + 0x2e]; 
94187788422196: std; jmp qword ptr [rsi + 0x2e]; 
94187788422195: sti; std; jmp qword ptr [rsi + 0x2e]; 
94187788422745: jmp qword ptr [rsi + 0xf]; 
94187788422743: add dh, bh; jmp qword ptr [rsi + 0xf]; 
94187788422742: add dh, bh; jmp qword ptr [rsi + 0xf]; 
94187788422740: mov edx, 0xfe0036e8; jmp qword ptr [rsi + 0xf]; 
94187788422735: sub eax, 0xebfffe2c; mov edx, 0xfe0036e8; jmp qword ptr [rsi + 0xf]; 
94187788420027: call qword ptr [rcx + 0x41]; 
94187788420712: call qword ptr [rbp + 0x10]; 
94187788420818: call qword ptr [rax + 8]; 
94187788420815: add edx, 4; call qword ptr [rax + 8]; 
94187788420814: add rdx, 4; call qword ptr [rax + 8]; 
94187788420813: std; add rdx, 4; call qword ptr [rax + 8]; 
94187788420811: and edx, 0xfffffffd; add rdx, 4; call qword ptr [rax + 8]; 
94187788420810: and rdx, 0xfffffffffffffffd; add rdx, 4; call qword ptr [rax + 8]; 
94187788420809: test byte ptr [rax - 0x7d], 0xe2; std; add rdx, 4; call qword ptr [rax + 8]; 
94187788420808: xor esi, esi; and rdx, 0xfffffffffffffffd; add rdx, 4; call qword ptr [rax + 8]; 
94187788420807: sal byte ptr [rcx], cl; test byte ptr [rax - 0x7d], 0xe2; std; add rdx, 4; call qword ptr [rax + 8]; 
94187788420806: sbb edx, edx; xor esi, esi; and rdx, 0xfffffffffffffffd; add rdx, 4; call qword ptr [rax + 8]; 
94187788420805: sbb rdx, rdx; xor esi, esi; and rdx, 0xfffffffffffffffd; add rdx, 4; call qword ptr [rax + 8]; 
94187788419726: ret 0x7501; 
94187788420502: ret 0x8948; 
94187788420683: ret 0x8948; 
94187788420816: ret 0xff04; 
94187788421999: ret 0x325; 
94187788421993: xchg byte ptr [rax - 0x77000000], al; ret 0x325; 
94187788422474: ret 0xfe07; 
94187788422472: add al, ch; ret 0xfe07; 
94187788422822: ret 0xce09; 
94187788419114: call qword ptr [rdx + 0xb0]; 
94187788419113: xlatb; call qword ptr [rdx + 0xb0]; 
94187788419112: mov edi, edx; call qword ptr [rdx + 0xb0]; 
94187788419111: mov rdi, rdx; call qword ptr [rdx + 0xb0]; 
94187788419110: xor cl, byte ptr [rax - 0x77]; xlatb; call qword ptr [rdx + 0xb0]; 
94187788419109: mov esi, dword ptr [rdx]; mov rdi, rdx; call qword ptr [rdx + 0xb0]; 
94187788419108: mov r14, qword ptr [rdx]; mov rdi, rdx; call qword ptr [rdx + 0xb0]; 
94187788419107: pop rax; mov r14, qword ptr [rdx]; mov rdi, rdx; call qword ptr [rdx + 0xb0]; 
94187788419106: push 0x58; mov r14, qword ptr [rdx]; mov rdi, rdx; call qword ptr [rdx + 0xb0]; 
94187788419105: mov dword ptr [rdx + 0x58], ebp; mov r14, qword ptr [rdx]; mov rdi, rdx; call qword ptr [rdx + 0xb0]; 
94187788419104: mov qword ptr [rdx + 0x58], rbp; mov r14, qword ptr [rdx]; mov rdi, rdx; call qword ptr [rdx + 0xb0]; 
94187788419103: adc ecx, dword ptr [rax - 0x77]; push 0x58; mov r14, qword ptr [rdx]; mov rdi, rdx; call qword ptr [rdx + 0xb0]; 
94187788419636: call qword ptr [rsi + 0xb0]; 
94187788419634: mov edi, esi; call qword ptr [rsi + 0xb0]; 
94187788419633: mov rdi, rsi; call qword ptr [rsi + 0xb0]; 
94187788419631: add byte ptr [rax], al; mov rdi, rsi; call qword ptr [rsi + 0xb0]; 
94187788419629: add eax, dword ptr [rax]; add byte ptr [rax], al; mov rdi, rsi; call qword ptr [rsi + 0xb0]; 
94187788419626: mov dword ptr [rsi + 0x20], 3; mov rdi, rsi; call qword ptr [rsi + 0xb0]; 
94187788419625: mov qword ptr [rsi + 0x20], 3; mov rdi, rsi; call qword ptr [rsi + 0xb0]; 
94187788419623: mov ebx, dword ptr [rsi]; mov qword ptr [rsi + 0x20], 3; mov rdi, rsi; call qword ptr [rsi + 0xb0]; 
94187788419622: mov rbx, qword ptr [rsi]; mov qword ptr [rsi + 0x20], 3; mov rdi, rsi; call qword ptr [rsi + 0xb0]; 
94187788422062: call qword ptr [rax + 0x48555441]; 
94187788416097: ret; 
94187788418957: jmp rbx; 
94187788418954: ror byte ptr [rdi], 0x84; jmp rbx; 
94187788415591: jmp qword ptr [rsi + 0x41]; 
94187788415589: add byte ptr [rax], al; jmp qword ptr [rsi + 0x41]; 
94187788415587: mov byte ptr [rax], al; add byte ptr [rax], al; jmp qword ptr [rsi + 0x41]; 
94187788415810: jmp qword ptr [rsi + 0x41]; 
94187788415808: and al, 0x72; jmp qword ptr [rsi + 0x41]; 
94187788418563: jmp qword ptr [rsi - 0x7b]; 
94187788418561: in eax, 0xff; jmp qword ptr [rsi - 0x7b]; 
94187788418221: call qword ptr [rcx + 0x4d]; 
94187788418219: out 0xff, al; call qword ptr [rcx + 0x4d]; 
94187788418214: cmp eax, 0xe2e9fffe; out 0xff, al; call qword ptr [rcx + 0x4d]; 
94187788418213: xlatb; cmp eax, 0xe2e9fffe; out 0xff, al; call qword ptr [rcx + 0x4d]; 
94187788418211: add al, ch; xlatb; cmp eax, 0xe2e9fffe; out 0xff, al; call qword ptr [rcx + 0x4d]; 
94187788415061: ret 0xfc0; 
94187788415059: add esi, esi; ret 0xfc0; 
94187788415057: mov dh, 0x14; add esi, esi; ret 0xfc0; 
94187788415078: ret 0x4801; 
94187788415873: ret 0x2948; 
94187788415870: add dword ptr [rax - 0x77], ecx; ret 0x2948; 
94187788416241: ret 0x9848; 
94187788416598: ret 0x75c0; 
94187788416596: add al, 0xf6; ret 0x75c0; 
94187788416594: mov dh, 0x14; add al, 0xf6; ret 0x75c0; 
94187788416591: add byte ptr [rcx + 0xf], al; mov dh, 0x14; add al, 0xf6; ret 0x75c0; 
94187788416589: add byte ptr [rax], al; add byte ptr [rcx + 0xf], al; mov dh, 0x14; add al, 0xf6; ret 0x75c0; 
94187788416611: ret 0x4801; 
94187788416870: ret 0xfffe; 
94187788417384: ret 0x4801; 
94187788417380: sal byte ptr [rsp + rax*2 - 0x7d], cl; ret 0x4801; 
94187788417397: ret 0x74c0; 
94187788417395: add esi, esi; ret 0x74c0; 
94187788417393: mov dh, 0x14; add esi, esi; ret 0x74c0; 
94187788417391: ror byte ptr [rdi], 1; mov dh, 0x14; add esi, esi; ret 0x74c0; 
94187788417388: ror byte ptr [rax + 1], cl; ror byte ptr [rdi], 1; mov dh, 0x14; add esi, esi; ret 0x74c0; 
94187788417938: ret 0x947; 
94187788417962: ret 0x2948; 
94187788417959: add dword ptr [rax - 0x77], ecx; ret 0x2948; 
94187788418135: ret 0x4801; 
94187788418129: test byte ptr [rax - 0x7d000000], bl; ret 0x4801; 
94187788418127: ror byte ptr [rdi], cl; test byte ptr [rax - 0x7d000000], bl; ret 0x4801; 
94187788418159: ret 0x74c0; 
94187788418157: add dh, dh; ret 0x74c0; 
94187788418292: ret 0x2948; 
94187788418289: add dword ptr [rax - 0x77], ecx; ret 0x2948; 
94187788418687: ret 0xeb02; 
94187788418682: sal byte ptr [rdx + rbp*8 + 0x48], 0x83; ret 0xeb02; 
94187788418756: ret 0x4c01; 
94187788418753: dec dword ptr [rax - 0x7d]; ret 0x4c01; 
94187788415477: call qword ptr [rbx + 0xb0]; 
94187788415474: mov dword ptr [rbx + 0x48], eax; call qword ptr [rbx + 0xb0]; 
94187788415473: mov qword ptr [rbx + 0x48], rax; call qword ptr [rbx + 0xb0]; 
94187788415471: mov edi, ebx; mov qword ptr [rbx + 0x48], rax; call qword ptr [rbx + 0xb0]; 
94187788415470: mov rdi, rbx; mov qword ptr [rbx + 0x48], rax; call qword ptr [rbx + 0xb0]; 
94187788415468: add eax, edx; mov rdi, rbx; mov qword ptr [rbx + 0x48], rax; call qword ptr [rbx + 0xb0]; 
94187788415467: add rax, rdx; mov rdi, rbx; mov qword ptr [rbx + 0x48], rax; call qword ptr [rbx + 0xb0]; 
94187788415465: mov ebp, dword ptr [rbx]; add rax, rdx; mov rdi, rbx; mov qword ptr [rbx + 0x48], rax; call qword ptr [rbx + 0xb0]; 
94187788415464: mov rbp, qword ptr [rbx]; add rax, rdx; mov rdi, rbx; mov qword ptr [rbx + 0x48], rax; call qword ptr [rbx + 0xb0]; 
94187788415732: call qword ptr [rbx + 0xb0]; 
94187788415729: mov dword ptr [rbx + 0x48], eax; call qword ptr [rbx + 0xb0]; 
94187788415728: mov qword ptr [rbx + 0x48], rax; call qword ptr [rbx + 0xb0]; 
94187788415726: mov edi, ebx; mov qword ptr [rbx + 0x48], rax; call qword ptr [rbx + 0xb0]; 
94187788415725: mov rdi, rbx; mov qword ptr [rbx + 0x48], rax; call qword ptr [rbx + 0xb0]; 
94187788415723: add eax, edx; mov rdi, rbx; mov qword ptr [rbx + 0x48], rax; call qword ptr [rbx + 0xb0]; 
94187788415722: add rax, rdx; mov rdi, rbx; mov qword ptr [rbx + 0x48], rax; call qword ptr [rbx + 0xb0]; 
94187788415720: mov ebp, dword ptr [rbx]; add rax, rdx; mov rdi, rbx; mov qword ptr [rbx + 0x48], rax; call qword ptr [rbx + 0xb0]; 
94187788415719: mov rbp, qword ptr [rbx]; add rax, rdx; mov rdi, rbx; mov qword ptr [rbx + 0x48], rax; call qword ptr [rbx + 0xb0]; 
94187788416354: call qword ptr [rax + 0xb0]; 
94187788416351: adc dword ptr [rax + 0x28], ecx; call qword ptr [rax + 0xb0]; 
94187788416350: movups xmmword ptr [rax + 0x28], xmm1; call qword ptr [rax + 0xb0]; 
94187788416349: movups xmmword ptr [rax + 0x28], xmm1; call qword ptr [rax + 0xb0]; 
94187788416348: push rax; movups xmmword ptr [rax + 0x28], xmm1; call qword ptr [rax + 0xb0]; 
94187788416347: mov dword ptr [rax + 0x48], edx; movups xmmword ptr [rax + 0x28], xmm1; call qword ptr [rax + 0xb0]; 
94187788416346: mov qword ptr [rax + 0x48], rdx; movups xmmword ptr [rax + 0x28], xmm1; call qword ptr [rax + 0xb0]; 
94187788416344: and al, 0x60; mov qword ptr [rax + 0x48], rdx; movups xmmword ptr [rax + 0x28], xmm1; call qword ptr [rax + 0xb0]; 
94187788416343: and al, 0x60; mov qword ptr [rax + 0x48], rdx; movups xmmword ptr [rax + 0x28], xmm1; call qword ptr [rax + 0xb0]; 
94187788416342: outsd dx, dword ptr [rsi]; and al, 0x60; mov qword ptr [rax + 0x48], rdx; movups xmmword ptr [rax + 0x28], xmm1; call qword ptr [rax + 0xb0]; 
94187788416341: movq mm1, qword ptr [rsp + 0x60]; mov qword ptr [rax + 0x48], rdx; movups xmmword ptr [rax + 0x28], xmm1; call qword ptr [rax + 0xb0]; 
94187788416340: movdqa xmm1, xmmword ptr [rsp + 0x60]; mov qword ptr [rax + 0x48], rdx; movups xmmword ptr [rax + 0x28], xmm1; call qword ptr [rax + 0xb0]; 
94187788417300: call qword ptr [rsi + 0xb0]; 
94187788417298: mov edi, esi; call qword ptr [rsi + 0xb0]; 
94187788417297: mov rdi, rsi; call qword ptr [rsi + 0xb0]; 
94187788417295: add byte ptr [rax], al; mov rdi, rsi; call qword ptr [rsi + 0xb0]; 
94187788417293: add eax, dword ptr [rax]; add byte ptr [rax], al; mov rdi, rsi; call qword ptr [rsi + 0xb0]; 
94187788417290: mov dword ptr [rsi + 0x20], 3; mov rdi, rsi; call qword ptr [rsi + 0xb0]; 
94187788417289: mov qword ptr [rsi + 0x20], 3; mov rdi, rsi; call qword ptr [rsi + 0xb0]; 
94187788417287: mov ebx, dword ptr [rsi]; mov qword ptr [rsi + 0x20], 3; mov rdi, rsi; call qword ptr [rsi + 0xb0]; 
94187788417286: mov rbx, qword ptr [rsi]; mov qword ptr [rsi + 0x20], 3; mov rdi, rsi; call qword ptr [rsi + 0xb0]; 
ERROR: Failed to disassemble given code!
94187788410992: ret; 
94187788410991: pop rsi; ret; 
94187788410990: pop r14; ret; 
94187788410989: pop rbp; pop r14; ret; 
94187788410988: pop r13; pop r14; ret; 
94187788410987: pop rsp; pop r13; pop r14; ret; 
94187788410986: pop r12; pop r13; pop r14; ret; 
94187788410985: pop rbp; pop r12; pop r13; pop r14; ret; 
94187788411042: ret; 
94187788411039: add byte ptr [rax + 0x39], cl; ret; 
94187788411037: add byte ptr [rax], al; add byte ptr [rax + 0x39], cl; ret; 
94187788411035: add byte ptr [rax], al; add byte ptr [rax], al; add byte ptr [rax + 0x39], cl; ret; 
94187788411536: ret; 
94187788411533: cmove eax, edx; ret; 
94187788411532: cmove rax, rdx; ret; 
94187788411530: or dword ptr [rax], eax; cmove rax, rdx; ret; 
94187788411527: add eax, 0x9602e; cmove rax, rdx; ret; 
94187788411526: lea eax, dword ptr [rip + 0x9602e]; cmove rax, rdx; ret; 
94187788411525: lea rax, qword ptr [rip + 0x9602e]; cmove rax, rdx; ret; 
94187788411524: add byte ptr [rax - 0x73], cl; add eax, 0x9602e; cmove rax, rdx; ret; 
94187788411523: or dword ptr [rax], eax; lea rax, qword ptr [rip + 0x9602e]; cmove rax, rdx; ret; 
94187788411520: adc eax, 0x96043; lea rax, qword ptr [rip + 0x9602e]; cmove rax, rdx; ret; 
94187788411519: lea edx, dword ptr [rip + 0x96043]; lea rax, qword ptr [rip + 0x9602e]; cmove rax, rdx; ret; 
94187788411518: lea rdx, qword ptr [rip + 0x96043]; lea rax, qword ptr [rip + 0x9602e]; cmove rax, rdx; ret; 
94187788411517: outsb dx, byte ptr [rsi]; lea rdx, qword ptr [rip + 0x96043]; lea rax, qword ptr [rip + 0x9602e]; cmove rax, rdx; ret; 
94187788411516: ljmp ptr [rsi + 0x48]; lea edx, dword ptr [rip + 0x96043]; lea rax, qword ptr [rip + 0x9602e]; cmove rax, rdx; ret; 
94187788411515: cmp edi, 0x6e; lea rdx, qword ptr [rip + 0x96043]; lea rax, qword ptr [rip + 0x9602e]; cmove rax, rdx; ret; 
94187788411514: cmp rdi, 0x6e; lea rdx, qword ptr [rip + 0x96043]; lea rax, qword ptr [rip + 0x9602e]; cmove rax, rdx; ret; 
94187788411555: ret; 
94187788411553: add al, 0xc2; ret; 
94187788411552: mov eax, dword ptr [rdx + rax*8]; ret; 
94187788411551: mov rax, qword ptr [rdx + rax*8]; ret; 
94187788411550: add byte ptr [rax - 0x75], cl; add al, 0xc2; ret; 
94187788411549: or al, 0; mov rax, qword ptr [rdx + rax*8]; ret; 
94187788411548: or al, 0; mov rax, qword ptr [rdx + rax*8]; ret; 
94187788411546: adc eax, 0xc48a1; mov rax, qword ptr [rdx + rax*8]; ret; 
94187788411545: lea edx, dword ptr [rip + 0xc48a1]; mov rax, qword ptr [rdx + rax*8]; ret; 
94187788411544: lea rdx, qword ptr [rip + 0xc48a1]; mov rax, qword ptr [rdx + rax*8]; ret; 
94187788411543: add byte ptr [rax - 0x73], cl; adc eax, 0xc48a1; mov rax, qword ptr [rdx + rax*8]; ret; 
94187788411542: add byte ptr [rax], al; lea rdx, qword ptr [rip + 0xc48a1]; mov rax, qword ptr [rdx + rax*8]; ret; 
94187788411541: add byte ptr [rax], al; add byte ptr [rax - 0x73], cl; adc eax, 0xc48a1; mov rax, qword ptr [rdx + rax*8]; ret; 
94187788411540: add byte ptr [rax], al; add byte ptr [rax], al; lea rdx, qword ptr [rip + 0xc48a1]; mov rax, qword ptr [rdx + rax*8]; ret; 
94187788411539: add byte ptr [rax], 0; add byte ptr [rax], al; lea rdx, qword ptr [rip + 0xc48a1]; mov rax, qword ptr [rdx + rax*8]; ret; 
94187788411537: nop dword ptr [rax]; lea rdx, qword ptr [rip + 0xc48a1]; mov rax, qword ptr [rdx + rax*8]; ret; 
94187788411536: ret; 
94187788411832: ret; 
94187788411831: pop rdi; ret; 
94187788411830: pop r15; ret; 
94187788411829: pop rsi; pop r15; ret; 
94187788411828: pop r14; pop r15; ret; 
94187788411827: pop rbp; pop r14; pop r15; ret; 
94187788411826: pop r13; pop r14; pop r15; ret; 
94187788411825: pop rsp; pop r13; pop r14; pop r15; ret; 
94187788411824: pop r12; pop r13; pop r14; pop r15; ret; 
94187788413228: ret; 
94187788413286: ret; 
94187788413420: ret; 
94187788413417: fimul word ptr [rax - 0x77]; ret; 
94187788413479: ret; 
94187788413476: add byte ptr [rax - 0x7d], cl; ret; 
94187788413474: add byte ptr [rax], al; add byte ptr [rax - 0x7d], cl; ret; 
94187788411397: jmp qword ptr [rsi + 0x2e]; 
94187788411446: jmp qword ptr [rsi + 0xf]; 
94187788411497: jmp qword ptr [rsi + 0xf]; 
94187788411495: sub al, 0xfe; jmp qword ptr [rsi + 0xf]; 
94187788411494: sub al, 0xfe; jmp qword ptr [rsi + 0xf]; 
94187788412029: jmp qword ptr [rsi - 0x70]; 
94187788414502: jmp qword ptr [rsi - 0x7d]; 
94187788414793: call qword ptr [rdx + 0x50]; 
94187788411051: ret 0x8b48; 
94187788411048: add byte ptr [rax - 0x77], cl; ret 0x8b48; 
94187788411046: add byte ptr [rax], al; add byte ptr [rax - 0x77], cl; ret 0x8b48; 
94187788411045: xlatb; add byte ptr [rax], al; add byte ptr [rax - 0x77], cl; ret 0x8b48; 
94187788411044: test bh, dl; add byte ptr [rax], al; add byte ptr [rax - 0x77], cl; ret 0x8b48; 
94187788411535: ret 0xfc3; 
94187788411554: ret 0x66c3; 
94187788411713: ret 0xf10; 
94187788411711: or dh, dh; ret 0xf10; 
94187788412789: ret 0xf01; 
94187788412786: or byte ptr [rax - 0x7d], cl; ret 0xf01; 
94187788412783: dec dword ptr [rax - 0x75]; or byte ptr [rax - 0x7d], cl; ret 0xf01; 
94187788413735: ret 0xf01; 
94187788413732: or byte ptr [rax - 0x7d], cl; ret 0xf01; 
94187788413729: dec dword ptr [rax - 0x75]; or byte ptr [rax - 0x7d], cl; ret 0xf01; 
94187788414843: ret 0xe8c1; 
94187788414463: call qword ptr [rbx + 0xb0]; 
94187788414460: mov dword ptr [rbx + 0x48], eax; call qword ptr [rbx + 0xb0]; 
94187788414459: mov qword ptr [rbx + 0x48], rax; call qword ptr [rbx + 0xb0]; 
94187788414457: mov edi, ebx; mov qword ptr [rbx + 0x48], rax; call qword ptr [rbx + 0xb0]; 
94187788414456: mov rdi, rbx; mov qword ptr [rbx + 0x48], rax; call qword ptr [rbx + 0xb0]; 
94187788414454: add eax, edx; mov rdi, rbx; mov qword ptr [rbx + 0x48], rax; call qword ptr [rbx + 0xb0]; 
94187788414453: add rax, rdx; mov rdi, rbx; mov qword ptr [rbx + 0x48], rax; call qword ptr [rbx + 0xb0]; 
94187788414451: mov ebp, dword ptr [rbx]; add rax, rdx; mov rdi, rbx; mov qword ptr [rbx + 0x48], rax; call qword ptr [rbx + 0xb0]; 
94187788414450: mov rbp, qword ptr [rbx]; add rax, rdx; mov rdi, rbx; mov qword ptr [rbx + 0x48], rax; call qword ptr [rbx + 0xb0]; 
94187788406890: ret; 
94187788406889: pop rbp; ret; 
94187788406888: pop r13; ret; 
94187788406887: pop rsp; pop r13; ret; 
94187788406886: pop r12; pop r13; ret; 
94187788406885: pop rbp; pop r12; pop r13; ret; 
94187788406884: pop rbx; pop rbp; pop r12; pop r13; ret; 
94187788406883: or byte ptr [rbx + 0x5d], bl; pop r12; pop r13; ret; 
94187788406930: ret; 
94187788407269: ret; 
94187788407268: pop rbp; ret; 
94187788407267: pop r13; ret; 
94187788407266: pop rsp; pop r13; ret; 
94187788407265: pop r12; pop r13; ret; 
94187788407264: pop rbp; pop r12; pop r13; ret; 
94187788407263: pop rbx; pop rbp; pop r12; pop r13; ret; 
94187788407262: or byte ptr [rbx + 0x5d], bl; pop r12; pop r13; ret; 
94187788407531: ret; 
94187788407530: pop rdi; ret; 
94187788407529: pop r15; ret; 
94187788407528: pop rsi; pop r15; ret; 
94187788407527: pop r14; pop r15; ret; 
94187788407526: pop rbp; pop r14; pop r15; ret; 
94187788407525: pop r13; pop r14; pop r15; ret; 
94187788407524: pop rsp; pop r13; pop r14; pop r15; ret; 
94187788407523: pop r12; pop r13; pop r14; pop r15; ret; 
94187788408014: ret; 
94187788408011: sbb byte ptr [rax - 0x77], cl; ret; 
94187788408735: ret; 
94187788408976: ret; 
94187788408975: pop rdi; ret; 
94187788408974: pop r15; ret; 
94187788408973: pop rsi; pop r15; ret; 
94187788408972: pop r14; pop r15; ret; 
94187788408971: pop rbp; pop r14; pop r15; ret; 
94187788408970: pop r13; pop r14; pop r15; ret; 
94187788408969: pop rsp; pop r13; pop r14; pop r15; ret; 
94187788408968: pop r12; pop r13; pop r14; pop r15; ret; 
94187788408990: ret; 
94187788408987: or byte ptr [rax + 0x39], cl; ret; 
94187788408986: pop rbx; or byte ptr [rax + 0x39], cl; ret; 
94187788408983: add byte ptr [rax - 0x75], cl; pop rbx; or byte ptr [rax + 0x39], cl; ret; 
94187788408981: add byte ptr [rax], al; add byte ptr [rax - 0x75], cl; pop rbx; or byte ptr [rax + 0x39], cl; ret; 
94187788408976: ret; 
94187788409084: ret; 
94187788409083: pop rdi; ret; 
94187788409082: pop r15; ret; 
94187788409081: pop rsi; pop r15; ret; 
94187788409080: pop r14; pop r15; ret; 
94187788409079: pop rbp; pop r14; pop r15; ret; 
94187788409078: pop r13; pop r14; pop r15; ret; 
94187788409077: pop rsp; pop r13; pop r14; pop r15; ret; 
94187788409076: pop r12; pop r13; pop r14; pop r15; ret; 
94187788409222: ret; 
94187788409219: ror byte ptr [rax - 0x77], cl; ret; 
94187788409217: add byte ptr [rcx], dh; ror byte ptr [rax - 0x77], cl; ret; 
94187788409215: add dword ptr [rax], eax; add byte ptr [rcx], dh; ror byte ptr [rax - 0x77], cl; ret; 
94187788409213: xchg eax, ecx; add dword ptr [rax], eax; add byte ptr [rcx], dh; ror byte ptr [rax - 0x77], cl; ret; 
94187788409268: ret; 
94187788409265: add byte ptr [rax - 0x77], cl; ret; 
94187788409263: mov esp, 0x89480000; ret; 
94187788408172: jmp rax; 
94187788408171: pop rdi; jmp rax; 
94187788408170: pop r15; jmp rax; 
94187788408169: pop rsi; pop r15; jmp rax; 
94187788408168: pop r14; pop r15; jmp rax; 
94187788408167: pop rbp; pop r14; pop r15; jmp rax; 
94187788408166: pop r13; pop r14; pop r15; jmp rax; 
94187788408165: pop rsp; pop r13; pop r14; pop r15; jmp rax; 
94187788408164: pop r12; pop r13; pop r14; pop r15; jmp rax; 
94187788407053: jmp qword ptr [rsi - 0x70]; 
94187788407333: jmp qword ptr [rsi + 0x2e]; 
94187788407380: jmp qword ptr [rsi + 0x66]; 
94187788408185: jmp qword ptr [rsi + 0xf]; 
94187788408183: xor bh, dh; jmp qword ptr [rsi + 0xf]; 
94187788408505: jmp qword ptr [rsi + 0xf]; 
94187788408644: jmp qword ptr [rsi + 0x66]; 
94187788409384: jmp qword ptr [rsi + 0x45]; 
94187788409622: jmp qword ptr [rsi + 0x44]; 
94187788409830: jmp qword ptr [rsi + 0xf]; 
94187788409885: jmp qword ptr [rsi - 0x70]; 
94187788410041: jmp qword ptr [rsi + 0xf]; 
94187788410141: jmp qword ptr [rsi - 0x70]; 
94187788410313: jmp qword ptr [rsi + 0xf]; 
94187788410405: jmp qword ptr [rsi + 0x2e]; 
94187788410521: jmp qword ptr [rsi + 0xf]; 
94187788410582: jmp qword ptr [rsi + 0xf]; 
94187788406939: ret 0x8b48; 
94187788406936: add byte ptr [rax - 0x77], cl; ret 0x8b48; 
94187788406934: add dword ptr [rax], eax; add byte ptr [rax - 0x77], cl; ret 0x8b48; 
94187788406933: push rdi; add dword ptr [rax], eax; add byte ptr [rax - 0x77], cl; ret 0x8b48; 
94187788407455: ret 0xe083; 
94187788407453: add dword ptr [rcx], ecx; ret 0xe083; 
94187788407451: add byte ptr [rax], al; add dword ptr [rcx], ecx; ret 0xe083; 
94187788407612: ret 0; 
94187788407812: ret 0x4801; 
94187788407809: cmp byte ptr [rax - 0x7d], cl; ret 0x4801; 
94187788407806: add byte ptr [rax - 0x75], cl; cmp byte ptr [rax - 0x7d], cl; ret 0x4801; 
94187788407804: add dword ptr [rax], eax; add byte ptr [rax - 0x75], cl; cmp byte ptr [rax - 0x7d], cl; ret 0x4801; 
94187788407802: test byte ptr [rcx], ah; add dword ptr [rax], eax; add byte ptr [rax - 0x75], cl; cmp byte ptr [rax - 0x7d], cl; ret 0x4801; 
94187788408401: ret 0x4820; 
94187788408434: ret 0xd375; 
94187788408546: ret 0x840f; 
94187788409495: ret 0x294c; 
94187788409492: or byte ptr [rax - 0x77], cl; ret 0x294c; 
94187788407022: call qword ptr [rax + 0x20478b4c]; 
94187788408039: call qword ptr [rbx + 0xb0]; 
94187788408038: push rax; call qword ptr [rbx + 0xb0]; 
94187788408037: push r8; call qword ptr [rbx + 0xb0]; 
94187788408036: mov dword ptr [rbx + 0x50], eax; call qword ptr [rbx + 0xb0]; 
94187788408035: mov qword ptr [rbx + 0x50], rax; call qword ptr [rbx + 0xb0]; 
94187788408034: sub byte ptr [rax - 0x77], cl; push r8; call qword ptr [rbx + 0xb0]; 
94187788408033: and al, 0x28; mov qword ptr [rbx + 0x50], rax; call qword ptr [rbx + 0xb0]; 
94187788408032: and al, 0x28; mov qword ptr [rbx + 0x50], rax; call qword ptr [rbx + 0xb0]; 
94187788408031: mov eax, dword ptr [rsp + 0x28]; mov qword ptr [rbx + 0x50], rax; call qword ptr [rbx + 0xb0]; 
94187788408030: mov rax, qword ptr [rsp + 0x28]; mov qword ptr [rbx + 0x50], rax; call qword ptr [rbx + 0xb0]; 
94187788408029: pop rax; mov rax, qword ptr [rsp + 0x28]; mov qword ptr [rbx + 0x50], rax; call qword ptr [rbx + 0xb0]; 
94187788408027: mov dword ptr [rax + 0x58], edi; mov rax, qword ptr [rsp + 0x28]; mov qword ptr [rbx + 0x50], rax; call qword ptr [rbx + 0xb0]; 
94187788408026: mov qword ptr [rax + 0x58], r15; mov rax, qword ptr [rsp + 0x28]; mov qword ptr [rbx + 0x50], rax; call qword ptr [rbx + 0xb0]; 
94187788408025: fisttp word ptr [rcx + rcx*4 + 0x78]; pop rax; mov rax, qword ptr [rsp + 0x28]; mov qword ptr [rbx + 0x50], rax; call qword ptr [rbx + 0xb0]; 
94187788408024: mov edi, ebx; mov qword ptr [rax + 0x58], r15; mov rax, qword ptr [rsp + 0x28]; mov qword ptr [rbx + 0x50], rax; call qword ptr [rbx + 0xb0]; 
94187788408023: mov rdi, rbx; mov qword ptr [rax + 0x58], r15; mov rax, qword ptr [rsp + 0x28]; mov qword ptr [rbx + 0x50], rax; call qword ptr [rbx + 0xb0]; 
94187788403118: ret; 
94187788403117: pop rdi; ret; 
94187788403116: pop r15; ret; 
94187788403115: pop rsi; pop r15; ret; 
94187788403114: pop r14; pop r15; ret; 
94187788403113: pop rbp; pop r14; pop r15; ret; 
94187788403112: pop r13; pop r14; pop r15; ret; 
94187788403111: pop rsp; pop r13; pop r14; pop r15; ret; 
94187788403110: pop r12; pop r13; pop r14; pop r15; ret; 
94187788403675: ret; 
94187788403737: ret; 
94187788403734: test byte ptr [rdi], 0x84; ret; 
94187788403982: ret; 
94187788403981: pop rdi; ret; 
94187788403980: pop r15; ret; 
94187788403979: pop rsi; pop r15; ret; 
94187788403978: pop r14; pop r15; ret; 
94187788403977: pop rbp; pop r14; pop r15; ret; 
94187788403976: pop r13; pop r14; pop r15; ret; 
94187788403975: pop rsp; pop r13; pop r14; pop r15; ret; 
94187788403974: pop r12; pop r13; pop r14; pop r15; ret; 
94187788404197: ret; 
94187788404194: add byte ptr [rax - 0x77], cl; ret; 
94187788404192: rol byte ptr [rax], 1; add byte ptr [rax - 0x77], cl; ret; 
94187788404557: ret; 
94187788404553: ror byte ptr [rax + 0xf], 0x44; ret; 
94187788404550: add byte ptr [rax - 0x7b], cl; ror byte ptr [rax + 0xf], 0x44; ret; 
94187788404549: add byte ptr gs:[rax - 0x7b], cl; ror byte ptr [rax + 0xf], 0x44; ret; 
94187788404837: ret; 
94187788404834: adc byte ptr [rax - 0x77], cl; ret; 
94187788404849: ret; 
94187788404846: add byte ptr [rsi - 0x3f], ah; ret; 
94187788404844: add al, 0; add byte ptr [rsi - 0x3f], ah; ret; 
94187788404843: stc; add al, 0; add byte ptr [rsi - 0x3f], ah; ret; 
94187788404842: test ecx, edi; add al, 0; add byte ptr [rsi - 0x3f], ah; ret; 
94187788404840: adc byte ptr [rdi], cl; test ecx, edi; add al, 0; add byte ptr [rsi - 0x3f], ah; ret; 
94187788404837: ret; 
94187788404878: ret; 
94187788404875: or cl, byte ptr [rax - 0x7d]; ret; 
94187788404874: or r9b, byte ptr [r8 - 0x7d]; ret; 
94187788405074: ret; 
94187788405071: adc byte ptr [rcx - 0x77], cl; ret; 
94187788405087: ret; 
94187788405664: ret; 
94187788403100: jmp rax; 
94187788403099: pop rdi; jmp rax; 
94187788403098: pop r15; jmp rax; 
94187788403097: pop rsi; pop r15; jmp rax; 
94187788403096: pop r14; pop r15; jmp rax; 
94187788403095: pop rbp; pop r14; pop r15; jmp rax; 
94187788403094: pop r13; pop r14; pop r15; jmp rax; 
94187788403093: pop rsp; pop r13; pop r14; pop r15; jmp rax; 
94187788403092: pop r12; pop r13; pop r14; pop r15; jmp rax; 
94187788403857: jmp qword ptr [rsi + 0xf]; 
94187788404444: jmp qword ptr [rsi + 0x41]; 
94187788404582: jmp qword ptr [rsi + 0xf]; 
94187788404697: jmp qword ptr [rsi + 0xf]; 
94187788405398: jmp qword ptr [rsi + 0xf]; 
94187788405425: jmp qword ptr [rsi + 0xf]; 
94187788406550: jmp qword ptr [rsi + 0xf]; 
94187788403010: ret 0xb8e8; 
94187788403330: ret 0xf01; 
94187788403327: add byte ptr [rax - 0x7d], cl; ret 0xf01; 
94187788403325: add byte ptr [rax], al; add byte ptr [rax - 0x7d], cl; ret 0xf01; 
94187788405639: ret 0x4808; 
94187788405694: call qword ptr [rax - 0x3f427cb8]; 
94187788405692: idiv bh; call qword ptr [rax - 0x3f427cb8]; 
94187788428305: ret; 
94187788428304: pop rdi; ret; 
94187788428303: pop r15; ret; 
94187788428302: pop rsi; pop r15; ret; 
94187788428301: pop r14; pop r15; ret; 
94187788428300: pop rbp; pop r14; pop r15; ret; 
94187788428299: pop r13; pop r14; pop r15; ret; 
94187788428298: pop rsp; pop r13; pop r14; pop r15; ret; 
94187788428297: pop r12; pop r13; pop r14; pop r15; ret; 
94187788429698: ret; 
94187788429695: or byte ptr [rax - 0x77], cl; ret; 
94187788429897: ret; 
94187788430381: ret; 
94187788430457: ret; 
94187788430456: pop rdi; ret; 
94187788430455: pop r15; ret; 
94187788430454: pop rsi; pop r15; ret; 
94187788430453: pop r14; pop r15; ret; 
94187788430452: pop rbp; pop r14; pop r15; ret; 
94187788430451: pop r13; pop r14; pop r15; ret; 
94187788430450: pop rsp; pop r13; pop r14; pop r15; ret; 
94187788430449: pop r12; pop r13; pop r14; pop r15; ret; 
94187788430643: ret; 
94187788430640: cmovs eax, dword ptr [rcx]; ret; 
94187788430754: ret; 
94187788430751: add byte ptr [rax - 0x7d], cl; ret; 
94187788430778: ret; 
94187788431202: ret; 
94187788431199: add byte ptr [rax - 0x7d], cl; ret; 
94187788431197: add byte ptr [rax], al; add byte ptr [rax - 0x7d], cl; ret; 
94187788430297: call qword ptr [rsi]; 
94187788431030: jmp qword ptr [rax]; 
94187788431206: jmp qword ptr [rax]; 
94187788427753: jmp qword ptr [rsi + 0xf]; 
94187788428070: jmp qword ptr [rsi + 0xf]; 
94187788428069: std; jmp qword ptr [rsi + 0xf]; 
94187788429206: jmp qword ptr [rsi + 0xf]; 
94187788430061: jmp qword ptr [rsi - 0x70]; 
94187788430086: jmp qword ptr [rsi + 0xf]; 
94187788430129: jmp qword ptr [rsi + 0x2e]; 
94187788430128: std; jmp qword ptr [rsi + 0x2e]; 
94187788430717: jmp qword ptr [rsi - 0x70]; 
94187788430865: jmp qword ptr [rsi + 0xf]; 
94187788427322: ret 0x325; 
94187788427725: ret 0xc985; 
94187788427723: jo 0x55a9cdabe156; ret 0xc985; 
94187788427722: jo 0x55a9cdabe156; ret 0xc985; 
94187788427719: add byte ptr [rcx - 0x75], al; jo 0x55a9cdabe156; ret 0xc985; 
94187788427717: add byte ptr [rax], al; add byte ptr [rcx - 0x75], al; jo 0x55a9cdabe156; ret 0xc985; 
94187788427716: add dword ptr [rax], 0; add byte ptr [rcx - 0x75], al; jo 0x55a9cdabe156; ret 0xc985; 
94187788427714: mov dh, 0x86; add dword ptr [rax], 0; add byte ptr [rcx - 0x75], al; jo 0x55a9cdabe156; ret 0xc985; 
94187788427869: ret 0x8949; 
94187788428026: ret 0xfdea; 
94187788428024: and al, 0xe8; ret 0xfdea; 
94187788428354: ret 0x243c; 
94187788428353: xchg eax, ebp; ret 0x243c; 
94187788428351: ror byte ptr [rdi], 0x95; ret 0x243c; 
94187788428361: ret 0x840f; 
94187788428354: ret 0x243c; 
94187788428401: ret 0xd184; 
94187788428400: xchg eax, ebp; ret 0xd184; 
94187788428398: and al, 0xf; xchg eax, ebp; ret 0xd184; 
94187788428397: cli; and al, 0xf; xchg eax, ebp; ret 0xd184; 
94187788428390: adc byte ptr [rdx + rdx*8 - 0x7f3e6af1], al; cli; and al, 0xf; xchg eax, ebp; ret 0xd184; 
94187788428820: ret 0x8d48; 
94187788428998: ret 0x54e8; 
94187788429226: ret 0xfe23; 
94187788429224: and al, 0xe8; ret 0xfe23; 
94187788429348: ret 0xc101; 
94187788429366: ret 0xe775; 
94187788429412: ret 0xc101; 
94187788429430: ret 0xe775; 
94187788429476: ret 0xc101; 
94187788429494: ret 0xe775; 
94187788429540: ret 0xc101; 
94187788429558: ret 0xe775; 
94187788429604: ret 0xc101; 
94187788429622: ret 0xe775; 
94187788429909: ret 0xc5e8; 
94187788430274: ret 0xda80; 
94187788430273: xchg eax, edi; ret 0xda80; 
94187788430371: ret 0x1c73; 
94187788431270: ret 0xb60f; 
94187788431332: ret 0x36e8; 
94187788431329: add byte ptr [rax - 0x77], cl; ret 0x36e8; 
94187788431327: add byte ptr [rax], al; add byte ptr [rax - 0x77], cl; ret 0x36e8; 
94187788427374: call qword ptr [rax + 0x70468b41]; 
ERROR: Failed to disassemble given code!
94187788615798: ret; 
94187788615797: pop rsp; ret; 
94187788615796: pop r12; ret; 
94187788615795: pop rbp; pop r12; ret; 
94187788615793: mov eax, ebp; pop rbp; pop r12; ret; 
94187788615792: mov rax, rbp; pop rbp; pop r12; ret; 
94187788615791: pop rbx; mov rax, rbp; pop rbp; pop r12; ret; 
94187788615790: lcall ptr [rbx + 0x48]; mov eax, ebp; pop rbp; pop r12; ret; 
94187788615981: ret; 
94187788615980: pop rdi; ret; 
94187788615979: pop r15; ret; 
94187788615978: pop rsi; pop r15; ret; 
94187788615977: pop r14; pop r15; ret; 
94187788615976: pop rbp; pop r14; pop r15; ret; 
94187788615975: pop r13; pop r14; pop r15; ret; 
94187788615974: pop rsp; pop r13; pop r14; pop r15; ret; 
94187788615973: pop r12; pop r13; pop r14; pop r15; ret; 
94187788616024: ret; 
94187788616021: dec dword ptr [rax - 0x77]; ret; 
94187788616020: sti; dec dword ptr [rax - 0x77]; ret; 
94187788616019: sti; dec dword ptr [rax - 0x77]; ret; 
94187788616018: cli; sti; dec dword ptr [rax - 0x77]; ret; 
94187788616016: shr al, 1; cli; sti; dec dword ptr [rax - 0x77]; ret; 
94187788618030: ret; 
94187788618029: pop rdi; ret; 
94187788618028: pop r15; ret; 
94187788618027: pop rsi; pop r15; ret; 
94187788618026: pop r14; pop r15; ret; 
94187788618025: pop rbp; pop r14; pop r15; ret; 
94187788618024: pop r13; pop r14; pop r15; ret; 
94187788618023: pop rsp; pop r13; pop r14; pop r15; ret; 
94187788618022: pop r12; pop r13; pop r14; pop r15; ret; 
94187788618062: ret; 
94187788618466: ret; 
94187788618465: pop rdi; ret; 
94187788618464: pop r15; ret; 
94187788618463: pop rsi; pop r15; ret; 
94187788618462: pop r14; pop r15; ret; 
94187788618461: pop rbp; pop r14; pop r15; ret; 
94187788618460: pop r13; pop r14; pop r15; ret; 
94187788618459: pop rsp; pop r13; pop r14; pop r15; ret; 
94187788618458: pop r12; pop r13; pop r14; pop r15; ret; 
94187788618818: ret; 
94187788618815: adc byte ptr [rax - 0x7d], cl; ret; 
94187788618813: add bl, ch; adc byte ptr [rax - 0x7d], cl; ret; 
94187788618811: test dword ptr [rcx], ecx; add bl, ch; adc byte ptr [rax - 0x7d], cl; ret; 
94187788618978: ret; 
94187788618975: add byte ptr [rax - 0x7d], cl; ret; 
94187788618973: add byte ptr [rax], al; add byte ptr [rax - 0x7d], cl; ret; 
94187788618971: add byte ptr [rax], al; add byte ptr [rax], al; add byte ptr [rax - 0x7d], cl; ret; 
94187788619694: ret; 
94187788619691: add dword ptr [rax - 0x7d], ecx; ret; 
94187788619770: ret; 
94187788619769: pop rdi; ret; 
94187788619768: pop r15; ret; 
94187788619767: pop rsi; pop r15; ret; 
94187788619766: pop r14; pop r15; ret; 
94187788619765: pop rbp; pop r14; pop r15; ret; 
94187788619764: pop r13; pop r14; pop r15; ret; 
94187788619763: pop rsp; pop r13; pop r14; pop r15; ret; 
94187788619762: pop r12; pop r13; pop r14; pop r15; ret; 
94187788615777: jmp qword ptr [rsi + 0xf]; 
94187788616374: jmp qword ptr [rsi + 0xf]; 
94187788616390: jmp qword ptr [rsi + 0xf]; 
94187788616433: jmp qword ptr [rsi + 0xf]; 
94187788616693: jmp qword ptr [rsi + 0x2e]; 
94187788617201: jmp qword ptr [rsi + 0xf]; 
94187788617305: jmp qword ptr [rsi + 0xf]; 
94187788618121: jmp qword ptr [rsi + 0xf]; 
94187788618278: jmp qword ptr [rsi + 0xf]; 
94187788618353: jmp qword ptr [rsi + 0x66]; 
94187788618352: sti; jmp qword ptr [rsi + 0x66]; 
94187788618351: add al, 0xfb; jmp qword ptr [rsi + 0x66]; 
94187788619149: jmp qword ptr [rsi - 0x70]; 
94187788619205: jmp qword ptr [rsi + 0x2e]; 
94187788619325: jmp qword ptr [rsi - 0x70]; 
94187788619619: jmp qword ptr [rsi + 0x66]; 
94187788619618: cli; jmp qword ptr [rsi + 0x66]; 
94187788619616: sub al, 0xff; cli; jmp qword ptr [rsi + 0x66]; 
94187788616529: ret 0xda80; 
94187788616528: xchg eax, edi; ret 0xda80; 
94187788616560: ret 0xda80; 
94187788616559: xchg eax, edi; ret 0xda80; 
94187788616552: sub dword ptr [rbp - 0x590cfffa], 0xf; xchg eax, edi; ret 0xda80; 
94187788616591: ret 0xda80; 
94187788616590: xchg eax, edi; ret 0xda80; 
94187788616931: ret 0xda80; 
94187788616930: xchg eax, edi; ret 0xda80; 
94187788617535: ret 0x4818; 
94187788617532: or byte ptr [rax - 0x7d], cl; ret 0x4818; 
94187788618508: ret 0xda80; 
94187788618507: xchg eax, edi; ret 0xda80; 
94187788618539: ret 0xda80; 
94187788618538: xchg eax, edi; ret 0xda80; 
94187788618810: ret 0x985; 
94187788619464: ret 0xda80; 
94187788619463: xchg eax, edi; ret 0xda80; 
94187788619507: ret 0xda80; 
94187788619506: xchg eax, edi; ret 0xda80; 
94187788619504: add byte ptr [rdi], cl; xchg eax, edi; ret 0xda80; 
94187788616334: call qword ptr [rax + 0x187f8b49]; 
94187788617278: call qword ptr [rax - 0x471b7ab3]; 
94187788619086: call qword ptr [rax + 0x693d8d48]; 
94187788431691: ret; 
94187788431688: and byte ptr [rax - 0x7d], cl; ret; 
94187788431743: ret; 
94187788431795: ret; 
94187788431852: ret; 
94187788431851: pop rbp; ret; 
94187788431850: pop r13; ret; 
94187788431849: pop rsp; pop r13; ret; 
94187788431848: pop r12; pop r13; ret; 
94187788431847: pop rbp; pop r12; pop r13; ret; 
94187788431846: pop rbx; pop rbp; pop r12; pop r13; ret; 
94187788431845: rcr byte ptr [rbx + 0x5d], 0x41; pop rsp; pop r13; ret; 
94187788431903: ret; 
94187788431902: pop rbp; ret; 
94187788431901: pop r13; ret; 
94187788431900: pop rsp; pop r13; ret; 
94187788431899: pop r12; pop r13; ret; 
94187788431898: pop rbp; pop r12; pop r13; ret; 
94187788431897: pop rbx; pop rbp; pop r12; pop r13; ret; 
94187788431896: or byte ptr [rbx + 0x5d], bl; pop r12; pop r13; ret; 
94187788431915: ret; 
94187788431912: and byte ptr [rax - 0x7d], cl; ret; 
94187788431946: ret; 
94187788431944: xor eax, eax; ret; 
94187788431940: nop dword ptr [rax]; xor eax, eax; ret; 
94187788431979: ret; 
94187788431978: pop rbx; ret; 
94187788431975: push qword ptr [rsi + rax + 0x5b]; ret; 
94187788431974: clc; push qword ptr [rsi + rax + 0x5b]; ret; 
94187788431972: inc dword ptr [rbx + 0x674fff8]; pop rbx; ret; 
94187788431971: std; inc dword ptr [rbx + 0x674fff8]; pop rbx; ret; 
94187788431970: iretd; std; inc dword ptr [rbx + 0x674fff8]; pop rbx; ret; 
94187788431969: mov ebx, 0x83fffdcf; clc; push qword ptr [rsi + rax + 0x5b]; ret; 
94187788432040: ret; 
94187788432038: add byte ptr [rax], al; ret; 
94187788432037: add byte ptr [rax], r8b; ret; 
94187788432035: nop dword ptr [rax + rax]; ret; 
94187788432157: ret; 
94187788432154: add byte ptr [rcx - 0x77], cl; ret; 
94187788432228: ret; 
94187788432225: adc byte ptr [rax - 0x7d], cl; ret; 
94187788432220: test dword ptr [rbp + rcx*4 + 0x4c], 0x83481024; ret; 
94187788432546: ret; 
94187788432543: add byte ptr [rax - 0x7d], cl; ret; 
94187788432541: add byte ptr [rax], al; add byte ptr [rax - 0x7d], cl; ret; 
94187788432539: add byte ptr [rax], al; add byte ptr [rax], al; add byte ptr [rax - 0x7d], cl; ret; 
94187788432763: ret; 
94187788432762: pop rdi; ret; 
94187788432761: pop r15; ret; 
94187788432760: pop rsi; pop r15; ret; 
94187788432759: pop r14; pop r15; ret; 
94187788432758: pop rbp; pop r14; pop r15; ret; 
94187788432757: pop r13; pop r14; pop r15; ret; 
94187788432756: pop rsp; pop r13; pop r14; pop r15; ret; 
94187788432755: pop r12; pop r13; pop r14; pop r15; ret; 
94187788432802: ret; 
94187788432905: ret; 
94187788433521: ret; 
94187788433520: pop rsi; ret; 
94187788433519: pop r14; ret; 
94187788433518: pop rbp; pop r14; ret; 
94187788433517: pop r13; pop r14; ret; 
94187788433516: pop rsp; pop r13; pop r14; ret; 
94187788433515: pop r12; pop r13; pop r14; ret; 
94187788433514: pop rbp; pop r12; pop r13; pop r14; ret; 
94187788433513: call 0x55aa0f0839cb; pop rbp; pop r14; ret; 
94187788433582: ret; 
94187788433581: pop rsi; ret; 
94187788433580: pop r14; ret; 
94187788433579: pop rbp; pop r14; ret; 
94187788433578: pop r13; pop r14; ret; 
94187788433577: pop rsp; pop r13; pop r14; ret; 
94187788433576: pop r12; pop r13; pop r14; ret; 
94187788433575: pop rbp; pop r12; pop r13; pop r14; ret; 
94187788434168: ret; 
94187788434167: pop rbp; ret; 
94187788434166: pop r13; ret; 
94187788434165: pop rsp; pop r13; ret; 
94187788434164: pop r12; pop r13; ret; 
94187788434163: pop rbp; pop r12; pop r13; ret; 
94187788434162: pop rbx; pop rbp; pop r12; pop r13; ret; 
94187788434161: add byte ptr [rbx + 0x5d], bl; pop r12; pop r13; ret; 
94187788434208: ret; 
94187788434494: ret; 
94187788434493: pop rbp; ret; 
94187788434492: pop r13; ret; 
94187788434491: pop rsp; pop r13; ret; 
94187788434490: pop r12; pop r13; ret; 
94187788434489: pop rbp; pop r12; pop r13; ret; 
94187788434488: pop rbx; pop rbp; pop r12; pop r13; ret; 
94187788434487: pop rbx; pop rbp; pop r12; pop r13; ret; 
94187788434744: ret; 
94187788434741: dec dword ptr [rax - 0x77]; ret; 
94187788435026: ret; 
94187788435023: dec dword ptr [rax - 0x39]; ret; 
94187788435232: ret; 
94187788435231: pop rdi; ret; 
94187788435230: pop r15; ret; 
94187788435229: pop rsi; pop r15; ret; 
94187788435228: pop r14; pop r15; ret; 
94187788435227: pop rbp; pop r14; pop r15; ret; 
94187788435226: pop r13; pop r14; pop r15; ret; 
94187788435225: pop rsp; pop r13; pop r14; pop r15; ret; 
94187788435224: pop r12; pop r13; pop r14; pop r15; ret; 
94187788432865: jmp qword ptr [rax]; 
94187788433499: call rax; 
94187788431837: jmp qword ptr [rsi - 0x70]; 
94187788432353: jmp qword ptr [rsi + 0xf]; 
94187788432589: jmp qword ptr [rsi - 0x70]; 
94187788433153: jmp qword ptr [rsi + 0xf]; 
94187788433300: jmp qword ptr [rsi + 0x66]; 
94187788433299: std; jmp qword ptr [rsi + 0x66]; 
94187788433298: salc; std; jmp qword ptr [rsi + 0x66]; 
94187788433297: sti; salc; std; jmp qword ptr [rsi + 0x66]; 
94187788433410: jmp qword ptr [rsi + 0x66]; 
94187788434173: jmp qword ptr [rsi - 0x70]; 
94187788434172: std; jmp qword ptr [rsi - 0x70]; 
94187788434171: sar ebp, cl; jmp qword ptr [rsi - 0x70]; 
94187788434170: xchg eax, edx; sar ebp, cl; jmp qword ptr [rsi - 0x70]; 
94187788434240: jmp qword ptr [rsi + 0x66]; 
94187788434239: std; jmp qword ptr [rsi + 0x66]; 
94187788434582: jmp qword ptr [rsi + 0xf]; 
94187788435040: jmp qword ptr [rsi + 0x66]; 
94187788435039: std; jmp qword ptr [rsi + 0x66]; 
94187788435038: sar ch, 1; jmp qword ptr [rsi + 0x66]; 
94187788435412: jmp qword ptr [rsi + 0x66]; 
94187788433535: call qword ptr [rax + 0x18]; 
94187788433533: or al, 0; call qword ptr [rax + 0x18]; 
94187788433530: add eax, 0xc1ec1; call qword ptr [rax + 0x18]; 
94187788433529: lea eax, dword ptr [rip + 0xc1ec1]; call qword ptr [rax + 0x18]; 
94187788433528: lea rax, qword ptr [rip + 0xc1ec1]; call qword ptr [rax + 0x18]; 
94187788433527: add byte ptr [rax - 0x73], cl; add eax, 0xc1ec1; call qword ptr [rax + 0x18]; 
94187788433526: add byte ptr [rax], al; lea rax, qword ptr [rip + 0xc1ec1]; call qword ptr [rax + 0x18]; 
94187788433525: add byte ptr [rax], r8b; lea rax, qword ptr [rip + 0xc1ec1]; call qword ptr [rax + 0x18]; 
94187788433523: nop dword ptr [rax + rax]; lea rax, qword ptr [rip + 0xc1ec1]; call qword ptr [rax + 0x18]; 
94187788433522: nop word ptr [rax + rax]; lea rax, qword ptr [rip + 0xc1ec1]; call qword ptr [rax + 0x18]; 
94187788431491: ret 0xb60f; 
94187788434080: ret 0x8948; 
94187788434123: ret 0x3fe8; 
94187788435244: ret 0xfffd; 
94187788435243: int1; ret 0xfffd; 
94187788431598: call qword ptr [rax + 0x48d08948]; 
94187788431597: std; call qword ptr [rax + 0x48d08948]; 
94187788433246: call qword ptr [rax + 0x780d8d48]; 
94187788433790: call qword ptr [rax - 0x22bc418]; 
94187788435262: call qword ptr [rax + 0x48078b49]; 
94187788619788: ret; 
94187788619785: dec dword ptr [rax - 0x77]; ret; 
94187788619784: sti; dec dword ptr [rax - 0x77]; ret; 
94187788619933: ret; 
94187788619932: pop rdi; ret; 
94187788619931: pop r15; ret; 
94187788619930: pop rsi; pop r15; ret; 
94187788619929: pop r14; pop r15; ret; 
94187788619928: pop rbp; pop r14; pop r15; ret; 
94187788619927: pop r13; pop r14; pop r15; ret; 
94187788619926: pop rsp; pop r13; pop r14; pop r15; ret; 
94187788619925: pop r12; pop r13; pop r14; pop r15; ret; 
94187788620190: ret; 
94187788620189: pop rsp; ret; 
94187788620188: pop r12; ret; 
94187788620187: pop rbp; pop r12; ret; 
94187788620186: pop rbx; pop rbp; pop r12; ret; 
94187788620185: xor byte ptr [rbx + 0x5d], bl; pop r12; ret; 
94187788620183: add esp, 0x30; pop rbx; pop rbp; pop r12; ret; 
94187788620182: add rsp, 0x30; pop rbx; pop rbp; pop r12; ret; 
94187788620586: ret; 
94187788620585: pop rdi; ret; 
94187788620584: pop r15; ret; 
94187788620583: pop rsi; pop r15; ret; 
94187788620582: pop r14; pop r15; ret; 
94187788620581: pop rbp; pop r14; pop r15; ret; 
94187788620580: pop r13; pop r14; pop r15; ret; 
94187788620579: pop rsp; pop r13; pop r14; pop r15; ret; 
94187788620578: pop r12; pop r13; pop r14; pop r15; ret; 
94187788621516: ret; 
94187788621515: pop rbp; ret; 
94187788621514: pop r13; ret; 
94187788621513: pop rsp; pop r13; ret; 
94187788621512: pop r12; pop r13; ret; 
94187788621511: pop rbp; pop r12; pop r13; ret; 
94187788621510: pop rbx; pop rbp; pop r12; pop r13; ret; 
94187788621509: or byte ptr [rbx + 0x5d], bl; pop r12; pop r13; ret; 
94187788621647: ret; 
94187788621646: pop rbp; ret; 
94187788621645: pop r13; ret; 
94187788621644: pop rsp; pop r13; ret; 
94187788621643: pop r12; pop r13; ret; 
94187788621642: pop rbp; pop r12; pop r13; ret; 
94187788621641: pop rbx; pop rbp; pop r12; pop r13; ret; 
94187788621640: or byte ptr [rbx + 0x5d], bl; pop r12; pop r13; ret; 
94187788622115: ret; 
94187788622112: sub byte ptr [rax + 1], cl; ret; 
94187788622145: ret; 
94187788622142: ror dword ptr [rax + 1], 1; ret; 
94187788622140: sal byte ptr [rcx + rdx*8 + 0x48], 1; ret; 
94187788622278: ret; 
94187788622275: sub byte ptr [rax - 0x7d], cl; ret; 
94187788622274: push rbp; sub byte ptr [rax - 0x7d], cl; ret; 
94187788622271: adc byte ptr [rax - 0x75], cl; push rbp; sub byte ptr [rax - 0x7d], cl; ret; 
94187788622270: push rbx; adc byte ptr [rax - 0x75], cl; push rbp; sub byte ptr [rax - 0x7d], cl; ret; 
94187788622598: ret; 
94187788622595: sub byte ptr [rax - 0x7d], cl; ret; 
94187788622594: push rbp; sub byte ptr [rax - 0x7d], cl; ret; 
94187788622591: adc byte ptr [rax - 0x75], cl; push rbp; sub byte ptr [rax - 0x7d], cl; ret; 
94187788622590: push rbx; adc byte ptr [rax - 0x75], cl; push rbp; sub byte ptr [rax - 0x7d], cl; ret; 
94187788622630: ret; 
94187788622647: ret; 
94187788622644: add byte ptr [rax + 0x39], cl; ret; 
94187788622642: add byte ptr [rax], al; add byte ptr [rax + 0x39], cl; ret; 
94187788622640: mov bl, ah; add byte ptr [rax], al; add byte ptr [rax + 0x39], cl; ret; 
94187788622868: ret; 
94187788622867: pop rdi; ret; 
94187788622866: pop r15; ret; 
94187788622865: pop rsi; pop r15; ret; 
94187788622864: pop r14; pop r15; ret; 
94187788622863: pop rbp; pop r14; pop r15; ret; 
94187788622862: pop r13; pop r14; pop r15; ret; 
94187788622861: pop rsp; pop r13; pop r14; pop r15; ret; 
94187788622860: pop r12; pop r13; pop r14; pop r15; ret; 
94187788622991: ret; 
94187788620205: jmp qword ptr [rsi - 0x70]; 
94187788620204: cli; jmp qword ptr [rsi - 0x70]; 
94187788620203: cld; cli; jmp qword ptr [rsi - 0x70]; 
94187788621273: jmp qword ptr [rsi + 0xf]; 
94187788621337: jmp qword ptr [rsi + 0xf]; 
94187788621732: jmp qword ptr [rsi + 0x66]; 
94187788621765: jmp qword ptr [rsi + 0x2e]; 
94187788621809: jmp qword ptr [rsi + 0x66]; 
94187788622725: jmp qword ptr [rsi + 0x2e]; 
94187788622825: jmp qword ptr [rsi + 0xf]; 
94187788623433: jmp qword ptr [rsi + 0xf]; 
94187788623432: cli; jmp qword ptr [rsi + 0xf]; 
94187788622269: call qword ptr [rbx + 0x10]; 
94187788622266: add esp, 1; call qword ptr [rbx + 0x10]; 
94187788622265: add r12, 1; call qword ptr [rbx + 0x10]; 
94187788622264: out dx, eax; add r12, 1; call qword ptr [rbx + 0x10]; 
94187788622263: mov edi, ebp; add r12, 1; call qword ptr [rbx + 0x10]; 
94187788622262: mov rdi, r13; add r12, 1; call qword ptr [rbx + 0x10]; 
94187788622260: mov esi, eax; mov rdi, r13; add r12, 1; call qword ptr [rbx + 0x10]; 
94187788622259: mov rsi, rax; mov rdi, r13; add r12, 1; call qword ptr [rbx + 0x10]; 
94187788622257: mov edx, ebx; mov rsi, rax; mov rdi, r13; add r12, 1; call qword ptr [rbx + 0x10]; 
94187788622256: mov rdx, rbx; mov rsi, rax; mov rdi, r13; add r12, 1; call qword ptr [rbx + 0x10]; 
94187788622589: call qword ptr [rbx + 0x10]; 
94187788622586: add esp, 1; call qword ptr [rbx + 0x10]; 
94187788622585: add r12, 1; call qword ptr [rbx + 0x10]; 
94187788622584: out dx, eax; add r12, 1; call qword ptr [rbx + 0x10]; 
94187788622583: mov edi, ebp; add r12, 1; call qword ptr [rbx + 0x10]; 
94187788622582: mov rdi, r13; add r12, 1; call qword ptr [rbx + 0x10]; 
94187788622580: mov esi, eax; mov rdi, r13; add r12, 1; call qword ptr [rbx + 0x10]; 
94187788622579: mov rsi, rax; mov rdi, r13; add r12, 1; call qword ptr [rbx + 0x10]; 
94187788622577: mov edx, ebx; mov rsi, rax; mov rdi, r13; add r12, 1; call qword ptr [rbx + 0x10]; 
94187788622576: mov rdx, rbx; mov rsi, rax; mov rdi, r13; add r12, 1; call qword ptr [rbx + 0x10]; 
94187788619889: ret 0x5d5b; 
94187788619886: or byte ptr [rax - 0x77], cl; ret 0x5d5b; 
94187788619885: or byte ptr [rax - 0x77], cl; ret 0x5d5b; 
94187788619882: sbb byte ptr [rbp + rcx*4 + 0x42], cl; or byte ptr [rax - 0x77], cl; ret 0x5d5b; 
94187788620698: ret 0x97f; 
94187788620807: ret 0x894c; 
94187788620804: dec dword ptr [rax - 0x77]; ret 0x894c; 
94187788620843: ret 0xfe8; 
94187788622295: ret 0xc641; 
94187788622302: ret 0x4d01; 
94187788622299: or cl, byte ptr [rcx - 0x7d]; ret 0x4d01; 
94187788622295: ret 0xc641; 
94187788622627: ret 0x8948; 
94187788622624: dec byte ptr [rax - 0x77]; ret 0x8948; 
94187788621134: call qword ptr [rax + 0x48f8894d]; 
94187788621131: imul edi, ebp, -1; call qword ptr [rax + 0x48f8894d]; 
94187788624259: ret; 
94187788624258: pop rdi; ret; 
94187788624257: pop r15; ret; 
94187788624256: pop rsi; pop r15; ret; 
94187788624255: pop r14; pop r15; ret; 
94187788624254: pop rbp; pop r14; pop r15; ret; 
94187788624253: pop r13; pop r14; pop r15; ret; 
94187788624252: pop rsp; pop r13; pop r14; pop r15; ret; 
94187788624251: pop r12; pop r13; pop r14; pop r15; ret; 
94187788624985: ret; 
94187788624984: pop rbp; ret; 
94187788624983: pop rbx; pop rbp; ret; 
94187788624982: or byte ptr [rbx + 0x5d], bl; ret; 
94187788624980: add esp, 8; pop rbx; pop rbp; ret; 
94187788624979: add rsp, 8; pop rbx; pop rbp; ret; 
94187788624978: ror byte ptr [rax - 0x7d], 0xc4; or byte ptr [rbx + 0x5d], bl; ret; 
94187788624977: xor eax, eax; add rsp, 8; pop rbx; pop rbp; ret; 
94187788624976: add byte ptr [rcx], dh; ror byte ptr [rax - 0x7d], 0xc4; or byte ptr [rbx + 0x5d], bl; ret; 
94187788625360: ret; 
94187788625358: xor eax, eax; ret; 
94187788625474: ret; 
94187788625473: pop rbx; ret; 
94187788625467: mov eax, 0xffffffff; pop rbx; ret; 
94187788625466: mov rax, -1; pop rbx; ret; 
94187788625464: add byte ptr [rax], dl; mov rax, -1; pop rbx; ret; 
94187788625462: add byte ptr [rax], al; add byte ptr [rax], dl; mov rax, -1; pop rbx; ret; 
94187788625483: ret; 
94187788625482: pop rbx; ret; 
94187788625480: xor eax, eax; pop rbx; ret; 
94187788625478: add byte ptr [rax], al; xor eax, eax; pop rbx; ret; 
94187788625477: add byte ptr [rax], r8b; xor eax, eax; pop rbx; ret; 
94187788625475: nop dword ptr [rax + rax]; xor eax, eax; pop rbx; ret; 
94187788625474: ret; 
94187788625625: ret; 
94187788625624: pop rsp; ret; 
94187788625623: pop r12; ret; 
94187788625622: pop rbp; pop r12; ret; 
94187788625621: pop rbx; pop rbp; pop r12; ret; 
94187788625620: fcomp dword ptr [rbx + 0x5d]; pop r12; ret; 
94187788625619: mov eax, ebx; pop rbx; pop rbp; pop r12; ret; 
94187788625618: mov rax, rbx; pop rbx; pop rbp; pop r12; ret; 
94187788625617: fisttp dword ptr [rax - 0x77]; fcomp dword ptr [rbx + 0x5d]; pop r12; ret; 
94187788625683: ret; 
94187788625682: pop rsp; ret; 
94187788625681: pop r12; ret; 
94187788625680: pop rbp; pop r12; ret; 
94187788625679: pop rbx; pop rbp; pop r12; ret; 
94187788625678: add byte ptr [rbx + 0x5d], bl; pop r12; ret; 
94187788625677: add byte ptr [rax], al; pop rbx; pop rbp; pop r12; ret; 
94187788625676: add byte ptr [rax], al; add byte ptr [rbx + 0x5d], bl; pop r12; ret; 
94187788625710: ret; 
94187788625709: pop rsp; ret; 
94187788625708: pop r12; ret; 
94187788625707: pop rbp; pop r12; ret; 
94187788625706: pop rbx; pop rbp; pop r12; ret; 
94187788625705: fcomp dword ptr [rbx + 0x5d]; pop r12; ret; 
94187788625704: mov eax, ebx; pop rbx; pop rbp; pop r12; ret; 
94187788625703: mov rax, rbx; pop rbx; pop rbp; pop r12; ret; 
94187788625702: add byte ptr [rax - 0x77], cl; fcomp dword ptr [rbx + 0x5d]; pop r12; ret; 
94187788625860: ret; 
94187788625859: pop rsp; ret; 
94187788625858: pop r12; ret; 
94187788625857: pop rbp; pop r12; ret; 
94187788625856: pop rbx; pop rbp; pop r12; ret; 
94187788625855: fcomp dword ptr [rbx + 0x5d]; pop r12; ret; 
94187788625854: mov eax, ebx; pop rbx; pop rbp; pop r12; ret; 
94187788625853: mov rax, rbx; pop rbx; pop rbp; pop r12; ret; 
94187788625852: fisttp dword ptr [rax - 0x77]; fcomp dword ptr [rbx + 0x5d]; pop r12; ret; 
94187788626192: ret; 
94187788626191: pop rbp; ret; 
94187788626190: pop r13; ret; 
94187788626189: pop rsp; pop r13; ret; 
94187788626188: pop r12; pop r13; ret; 
94187788626187: pop rbp; pop r12; pop r13; ret; 
94187788626186: pop rbx; pop rbp; pop r12; pop r13; ret; 
94187788626185: add byte ptr [rbx + 0x5d], bl; pop r12; pop r13; ret; 
94187788626523: ret; 
94187788626522: pop rsi; ret; 
94187788626521: pop r14; ret; 
94187788626520: pop rbp; pop r14; ret; 
94187788626519: pop r13; pop r14; ret; 
94187788626518: pop rsp; pop r13; pop r14; ret; 
94187788626517: pop r12; pop r13; pop r14; ret; 
94187788626516: pop rbp; pop r12; pop r13; pop r14; ret; 
94187788627133: ret; 
94187788627132: pop rdi; ret; 
94187788627131: pop r15; ret; 
94187788627130: pop rsi; pop r15; ret; 
94187788627129: pop r14; pop r15; ret; 
94187788627128: pop rbp; pop r14; pop r15; ret; 
94187788627127: pop r13; pop r14; pop r15; ret; 
94187788627126: pop rsp; pop r13; pop r14; pop r15; ret; 
94187788627125: pop r12; pop r13; pop r14; pop r15; ret; 
94187788627145: ret; 
94187788624306: call qword ptr [rax]; 
94187788624304: mov edi, ebx; call qword ptr [rax]; 
94187788624303: mov rdi, rbx; call qword ptr [rax]; 
94187788624301: mov esi, edi; mov rdi, rbx; call qword ptr [rax]; 
94187788624300: mov rsi, r15; mov rdi, rbx; call qword ptr [rax]; 
94187788624299: add byte ptr [rcx + rcx*4 - 2], cl; mov rdi, rbx; call qword ptr [rax]; 
94187788624298: or al, 0; mov rsi, r15; mov rdi, rbx; call qword ptr [rax]; 
94187788624297: mov ah, 0xc; add byte ptr [rcx + rcx*4 - 2], cl; mov rdi, rbx; call qword ptr [rax]; 
94187788624295: add eax, 0xcb4d4; mov rsi, r15; mov rdi, rbx; call qword ptr [rax]; 
94187788624294: lea eax, dword ptr [rip + 0xcb4d4]; mov rsi, r15; mov rdi, rbx; call qword ptr [rax]; 
94187788624293: lea rax, qword ptr [rip + 0xcb4d4]; mov rsi, r15; mov rdi, rbx; call qword ptr [rax]; 
94187788624292: adc byte ptr [rax - 0x73], cl; add eax, 0xcb4d4; mov rsi, r15; mov rdi, rbx; call qword ptr [rax]; 
94187788624291: and al, 0x10; lea rax, qword ptr [rip + 0xcb4d4]; mov rsi, r15; mov rdi, rbx; call qword ptr [rax]; 
94187788624289: mov edi, dword ptr [rsp + 0x10]; lea rax, qword ptr [rip + 0xcb4d4]; mov rsi, r15; mov rdi, rbx; call qword ptr [rax]; 
94187788624288: mov r15, qword ptr [rsp + 0x10]; lea rax, qword ptr [rip + 0xcb4d4]; mov rsi, r15; mov rdi, rbx; call qword ptr [rax]; 
94187788624573: call qword ptr [rax]; 
94187788624571: mov edi, ebx; call qword ptr [rax]; 
94187788624570: mov rdi, rbx; call qword ptr [rax]; 
94187788624568: mov esi, edi; mov rdi, rbx; call qword ptr [rax]; 
94187788624567: mov rsi, r15; mov rdi, rbx; call qword ptr [rax]; 
94187788624566: add byte ptr [rcx + rcx*4 - 2], cl; mov rdi, rbx; call qword ptr [rax]; 
94187788624565: or al, 0; mov rsi, r15; mov rdi, rbx; call qword ptr [rax]; 
94187788624564: mov bl, 0xc; add byte ptr [rcx + rcx*4 - 2], cl; mov rdi, rbx; call qword ptr [rax]; 
94187788624563: leave; mov bl, 0xc; add byte ptr [rcx + rcx*4 - 2], cl; mov rdi, rbx; call qword ptr [rax]; 
94187788624562: add eax, 0xcb3c9; mov rsi, r15; mov rdi, rbx; call qword ptr [rax]; 
94187788624561: lea eax, dword ptr [rip + 0xcb3c9]; mov rsi, r15; mov rdi, rbx; call qword ptr [rax]; 
94187788624560: lea rax, qword ptr [rip + 0xcb3c9]; mov rsi, r15; mov rdi, rbx; call qword ptr [rax]; 
94187788624559: nop; lea rax, qword ptr [rip + 0xcb3c9]; mov rsi, r15; mov rdi, rbx; call qword ptr [rax]; 
94187788624558: nop; lea rax, qword ptr [rip + 0xcb3c9]; mov rsi, r15; mov rdi, rbx; call qword ptr [rax]; 
94187788624557: adc byte ptr [rsi - 0x70], ah; lea rax, qword ptr [rip + 0xcb3c9]; mov rsi, r15; mov rdi, rbx; call qword ptr [rax]; 
94187788624209: jmp qword ptr [rsi + 0xf]; 
94187788624285: jmp qword ptr [rsi - 0x70]; 
94187788624609: jmp qword ptr [rsi + 0xf]; 
94187788624829: jmp qword ptr [rsi - 0x70]; 
94187788624828: cli; jmp qword ptr [rsi - 0x70]; 
94187788624826: shr dl, cl; cli; jmp qword ptr [rsi - 0x70]; 
94187788625301: jmp qword ptr [rsi + 0x2e]; 
94187788625929: jmp qword ptr [rsi + 0xf]; 
94187788626241: jmp qword ptr [rsi + 0xf]; 
94187788626557: jmp qword ptr [rsi - 0x70]; 
94187788626897: jmp qword ptr [rsi + 0x66]; 
94187788627478: jmp qword ptr [rsi + 0xf]; 
94187788627685: jmp qword ptr [rsi + 0x2e]; 
94187788627734: jmp qword ptr [rsi + 0xf]; 
94187788627769: jmp qword ptr [rsi + 0xf]; 
94187788625446: call qword ptr [rax + 0x28]; 
94187788625444: mov edi, eax; call qword ptr [rax + 0x28]; 
94187788625443: mov rdi, rax; call qword ptr [rax + 0x28]; 
94187788625438: xor eax, 0x69218; mov rdi, rax; call qword ptr [rax + 0x28]; 
94187788625437: lea esi, dword ptr [rip + 0x69218]; mov rdi, rax; call qword ptr [rax + 0x28]; 
94187788625436: lea rsi, qword ptr [rip + 0x69218]; mov rdi, rax; call qword ptr [rax + 0x28]; 
94187788625435: add byte ptr [rax - 0x73], cl; xor eax, 0x69218; mov rdi, rax; call qword ptr [rax + 0x28]; 
94187788625434: add byte ptr [rax], al; lea rsi, qword ptr [rip + 0x69218]; mov rdi, rax; call qword ptr [rax + 0x28]; 
94187788625433: add byte ptr [rax], al; add byte ptr [rax - 0x73], cl; xor eax, 0x69218; mov rdi, rax; call qword ptr [rax + 0x28]; 
94187788625432: sbb dword ptr [rax], eax; add byte ptr [rax], al; lea rsi, qword ptr [rip + 0x69218]; mov rdi, rax; call qword ptr [rax + 0x28]; 
94187788625431: mov edx, 0x19; lea rsi, qword ptr [rip + 0x69218]; mov rdi, rax; call qword ptr [rax + 0x28]; 
94187788625430: cmp dword ptr [rdx + 0x19], edi; lea rsi, qword ptr [rip + 0x69218]; mov rdi, rax; call qword ptr [rax + 0x28]; 
94187788625428: add byte ptr [rbp + 0x39], dh; mov edx, 0x19; lea rsi, qword ptr [rip + 0x69218]; mov rdi, rax; call qword ptr [rax + 0x28]; 
94187788626085: call qword ptr [rcx + 0x20]; 
94187788626083: mov edx, eax; call qword ptr [rcx + 0x20]; 
94187788626082: mov rdx, rax; call qword ptr [rcx + 0x20]; 
94187788626079: cmovg eax, esp; mov rdx, rax; call qword ptr [rcx + 0x20]; 
94187788626078: cmovg rax, r12; mov rdx, rax; call qword ptr [rcx + 0x20]; 
94187788626077: iretd; cmovg rax, r12; mov rdx, rax; call qword ptr [rcx + 0x20]; 
94187788626076: mov edi, ecx; cmovg rax, r12; mov rdx, rax; call qword ptr [rcx + 0x20]; 
94187788626075: mov rdi, rcx; cmovg rax, r12; mov rdx, rax; call qword ptr [rcx + 0x20]; 
94187788626074: out dx, al; mov rdi, rcx; cmovg rax, r12; mov rdx, rax; call qword ptr [rcx + 0x20]; 
94187788626073: mov esi, ebp; mov rdi, rcx; cmovg rax, r12; mov rdx, rax; call qword ptr [rcx + 0x20]; 
94187788626072: mov rsi, rbp; mov rdi, rcx; cmovg rax, r12; mov rdx, rax; call qword ptr [rcx + 0x20]; 
94187788627890: call qword ptr [rbp + 0x40]; 
94187788625814: ret 0x8949; 
94187788625811: dec dword ptr [rax - 0x77]; ret 0x8949; 
94187788625810: sti; dec dword ptr [rax - 0x77]; ret 0x8949; 
94187788625809: and eax, 0x8948fffb; ret 0x8949; 
94187788625808: cmp al, 0x25; sti; dec dword ptr [rax - 0x77]; ret 0x8949; 
94187788625806: add al, ch; cmp al, 0x25; sti; dec dword ptr [rax - 0x77]; ret 0x8949; 
94187788626084: ret 0x51ff; 
94187788626668: ret 0x12b; 
94187788587012: ret; 
94187788587010: add cl, ch; ret; 
94187788587008: add eax, dword ptr [rax]; add cl, ch; ret; 
94187788587292: ret; 
94187788587291: pop rdi; ret; 
94187788587290: pop r15; ret; 
94187788587289: pop rsi; pop r15; ret; 
94187788587288: pop r14; pop r15; ret; 
94187788587287: pop rbp; pop r14; pop r15; ret; 
94187788587286: pop r13; pop r14; pop r15; ret; 
94187788587285: pop rsp; pop r13; pop r14; pop r15; ret; 
94187788587284: pop r12; pop r13; pop r14; pop r15; ret; 
94187788587433: ret; 
94187788589705: ret; 
94187788589702: adc byte ptr [rax - 0x77], cl; ret; 
94187788589846: ret; 
94187788589851: ret; 
94187788589848: dec dword ptr [rax - 0x77]; ret; 
94187788589846: ret; 
94187788590113: ret; 
94187788590112: pop rdi; ret; 
94187788590111: pop r15; ret; 
94187788590110: pop rsi; pop r15; ret; 
94187788590109: pop r14; pop r15; ret; 
94187788590108: pop rbp; pop r14; pop r15; ret; 
94187788590107: pop r13; pop r14; pop r15; ret; 
94187788590106: pop rsp; pop r13; pop r14; pop r15; ret; 
94187788590105: pop r12; pop r13; pop r14; pop r15; ret; 
94187788589701: call qword ptr [rax]; 
94187788589700: out dx, eax; call qword ptr [rax]; 
94187788589699: mov edi, ebp; call qword ptr [rax]; 
94187788589698: mov rdi, rbp; call qword ptr [rax]; 
94187788589697: or byte ptr [rax - 0x77], cl; out dx, eax; call qword ptr [rax]; 
94187788589696: jo 0x55a9cdae5a8a; mov rdi, rbp; call qword ptr [rax]; 
94187788589695: mov esi, dword ptr [rax + 8]; mov rdi, rbp; call qword ptr [rax]; 
94187788589694: mov rsi, qword ptr [rax + 8]; mov rdi, rbp; call qword ptr [rax]; 
94187788589693: fimul dword ptr [rax - 0x75]; jo 0x55a9cdae5a8a; mov rdi, rbp; call qword ptr [rax]; 
94187788589692: mov edx, ebx; mov rsi, qword ptr [rax + 8]; mov rdi, rbp; call qword ptr [rax]; 
94187788589691: mov rdx, rbx; mov rsi, qword ptr [rax + 8]; mov rdi, rbp; call qword ptr [rax]; 
94187788589690: cmovs ecx, dword ptr [rcx + 0x708b48da]; or byte ptr [rax - 0x77], cl; out dx, eax; call qword ptr [rax]; 
94187788589688: sal byte ptr [rdi + rcx + 0x48], 0x89; fimul dword ptr [rax - 0x75]; jo 0x55a9cdae5a8a; mov rdi, rbp; call qword ptr [rax]; 
94187788587465: jmp qword ptr [rsi + 0xf]; 
94187788587589: jmp qword ptr [rsi + 0x2e]; 
94187788587686: jmp qword ptr [rsi + 0xf]; 
94187788587749: jmp qword ptr [rsi + 0x2e]; 
94187788587781: jmp qword ptr [rsi + 0x2e]; 
94187788589613: jmp qword ptr [rsi - 0x70]; 
94187788590894: jmp qword ptr [rsi + 0x41]; 
94187788587486: call qword ptr [rax + 8]; 
94187788587484: add byte ptr [rax], al; call qword ptr [rax + 8]; 
94187788587482: add al, 0; add byte ptr [rax], al; call qword ptr [rax + 8]; 
94187788587481: mov esi, 4; call qword ptr [rax + 8]; 
94187788587480: sar byte ptr [rsi + 4], cl; call qword ptr [rax + 8]; 
94187788587479: xor edx, edx; mov esi, 4; call qword ptr [rax + 8]; 
94187788587478: add byte ptr [rcx], dh; sar byte ptr [rsi + 4], cl; call qword ptr [rax + 8]; 
94187788587477: or al, 0; xor edx, edx; mov esi, 4; call qword ptr [rax + 8]; 
94187788587474: add eax, 0xc8249; xor edx, edx; mov esi, 4; call qword ptr [rax + 8]; 
94187788587473: lea eax, dword ptr [rip + 0xc8249]; xor edx, edx; mov esi, 4; call qword ptr [rax + 8]; 
94187788587472: lea rax, qword ptr [rip + 0xc8249]; xor edx, edx; mov esi, 4; call qword ptr [rax + 8]; 
94187788587471: add byte ptr [rax - 0x73], cl; add eax, 0xc8249; xor edx, edx; mov esi, 4; call qword ptr [rax + 8]; 
94187788587470: add byte ptr [rax], al; lea rax, qword ptr [rip + 0xc8249]; xor edx, edx; mov esi, 4; call qword ptr [rax + 8]; 
94187788587469: add byte ptr [rax], r8b; lea rax, qword ptr [rip + 0xc8249]; xor edx, edx; mov esi, 4; call qword ptr [rax + 8]; 
94187788587467: nop dword ptr [rax + rax]; lea rax, qword ptr [rip + 0xc8249]; xor edx, edx; mov esi, 4; call qword ptr [rax + 8]; 
94187788587466: nop word ptr [rax + rax]; lea rax, qword ptr [rip + 0xc8249]; xor edx, edx; mov esi, 4; call qword ptr [rax + 8]; 
94187788588625: call qword ptr [rax + 8]; 
94187788588623: add byte ptr [rax], al; call qword ptr [rax + 8]; 
94187788588621: add al, 0; add byte ptr [rax], al; call qword ptr [rax + 8]; 
94187788588620: mov esi, 4; call qword ptr [rax + 8]; 
94187788588619: sar byte ptr [rsi + 4], cl; call qword ptr [rax + 8]; 
94187788588618: xor edx, edx; mov esi, 4; call qword ptr [rax + 8]; 
94187788588617: add byte ptr [rcx], dh; sar byte ptr [rsi + 4], cl; call qword ptr [rax + 8]; 
94187788588616: or al, 0; xor edx, edx; mov esi, 4; call qword ptr [rax + 8]; 
94187788588613: add eax, 0xc7dd6; xor edx, edx; mov esi, 4; call qword ptr [rax + 8]; 
94187788588612: lea eax, dword ptr [rip + 0xc7dd6]; xor edx, edx; mov esi, 4; call qword ptr [rax + 8]; 
94187788588611: lea rax, qword ptr [rip + 0xc7dd6]; xor edx, edx; mov esi, 4; call qword ptr [rax + 8]; 
94187788588610: sbb cl, byte ptr [rax - 0x73]; add eax, 0xc7dd6; xor edx, edx; mov esi, 4; call qword ptr [rax + 8]; 
94187788588608: add dword ptr [rdx + rbx + 0x48], esi; lea eax, dword ptr [rip + 0xc7dd6]; xor edx, edx; mov esi, 4; call qword ptr [rax + 8]; 
94187788587388: ret 0x12b; 
94187788587402: ret 0; 
94187788588139: ret 0xf08; 
94187788588137: add dh, dh; ret 0xf08; 
94187788588135: add byte ptr [rax], al; add dh, dh; ret 0xf08; 
94187788589062: ret 0x12b; 
94187788589128: ret 0xfff8; 
94187788589151: ret 0x12b; 
94187788589766: ret 0x8148; 
94187788589765: lahf; ret 0x8148; 
94187788589763: add byte ptr [rdi], cl; lahf; ret 0x8148; 
94187788589761: add dword ptr [rax], eax; add byte ptr [rdi], cl; lahf; ret 0x8148; 
94187788589778: ret 0xd75; 
94187788587502: call qword ptr [rax + 0xfc08548]; 
94187788587838: call qword ptr [rax - 0x4858418]; 
94187788628504: ret; 
94187788628503: pop rsi; ret; 
94187788628502: pop r14; ret; 
94187788628501: pop rbp; pop r14; ret; 
94187788628500: pop r13; pop r14; ret; 
94187788628499: pop rsp; pop r13; pop r14; ret; 
94187788628498: pop r12; pop r13; pop r14; ret; 
94187788628497: pop rbp; pop r12; pop r13; pop r14; ret; 
94187788629296: ret; 
94187788629295: pop rbx; ret; 
94187788629292: add byte ptr [rdi + 9], bh; pop rbx; ret; 
94187788629290: add dword ptr [rax], eax; add byte ptr [rdi + 9], bh; pop rbx; ret; 
94187788629390: ret; 
94187788629389: pop rbx; ret; 
94187788629385: add eax, 0x5bbf0000; ret; 
94187788629384: sbb dword ptr [rip + 0x5bbf0000], eax; ret; 
94187788629382: and byte ptr [rbx + 0x519], 0xbf; pop rbx; ret; 
94187788629405: ret; 
94187788629404: pop rbx; ret; 
94187788629402: add byte ptr [rax], al; pop rbx; ret; 
94187788629399: mov eax, 0x198; pop rbx; ret; 
94187788629398: or byte ptr [rax + 0x198], bh; pop rbx; ret; 
94187788629397: add byte ptr [rax], cl; mov eax, 0x198; pop rbx; ret; 
94187788629396: add byte ptr [rax], al; or byte ptr [rax + 0x198], bh; pop rbx; ret; 
94187788629395: add byte ptr [rax], al; add byte ptr [rax], cl; mov eax, 0x198; pop rbx; ret; 
94187788629419: ret; 
94187788629418: pop rbx; ret; 
94187788629435: ret; 
94187788629433: xor eax, eax; ret; 
94187788629477: ret; 
94187788629475: xor eax, eax; ret; 
94187788629474: xor byte ptr [rcx], 0xc0; ret; 
94187788629471: or byte ptr [rax + 0x78], 0x80; xor eax, eax; ret; 
94187788629676: ret; 
94187788629675: pop rbp; ret; 
94187788629674: pop rbx; pop rbp; ret; 
94187788629673: or byte ptr [rbx + 0x5d], bl; ret; 
94187788629671: add esp, 8; pop rbx; pop rbp; ret; 
94187788629670: add rsp, 8; pop rbx; pop rbp; ret; 
94187788629668: add byte ptr [rax], ah; add rsp, 8; pop rbx; pop rbp; ret; 
94187788629666: add eax, 0x48200000; add esp, 8; pop rbx; pop rbp; ret; 
94187788629665: sbb dword ptr [rip + 0x48200000], eax; add esp, 8; pop rbx; pop rbp; ret; 
94187788629685: ret; 
94187788629684: pop rbp; ret; 
94187788629683: pop rbx; pop rbp; ret; 
94187788629681: xor eax, eax; pop rbx; pop rbp; ret; 
94187788629678: add esp, 8; xor eax, eax; pop rbx; pop rbp; ret; 
94187788629677: add rsp, 8; xor eax, eax; pop rbx; pop rbp; ret; 
94187788629676: ret; 
94187788630061: ret; 
94187788630058: dec dword ptr [rax - 0x77]; ret; 
94187788630057: sti; dec dword ptr [rax - 0x77]; ret; 
94187788630122: ret; 
94187788630121: pop rsi; ret; 
94187788630120: pop r14; ret; 
94187788630119: pop rbp; pop r14; ret; 
94187788630118: pop r13; pop r14; ret; 
94187788630117: pop rsp; pop r13; pop r14; ret; 
94187788630116: pop r12; pop r13; pop r14; ret; 
94187788630115: pop rbp; pop r12; pop r13; pop r14; ret; 
94187788630277: ret; 
94187788630276: pop rsi; ret; 
94187788630275: pop r14; ret; 
94187788630274: pop rbp; pop r14; ret; 
94187788630273: pop r13; pop r14; ret; 
94187788630272: pop rsp; pop r13; pop r14; ret; 
94187788630271: pop r12; pop r13; pop r14; ret; 
94187788630270: pop rbp; pop r12; pop r13; pop r14; ret; 
94187788630372: ret; 
94187788630370: xor eax, eax; ret; 
94187788630367: mov byte ptr [rsi + 3], al; xor eax, eax; ret; 
94187788630366: adc byte ptr [rax - 0x3fcefcba], cl; ret; 
94187788630364: or eax, 0x10; mov byte ptr [rsi + 3], al; xor eax, eax; ret; 
94187788630361: and eax, 0xffffff8f; or eax, 0x10; mov byte ptr [rsi + 3], al; xor eax, eax; ret; 
94187788630360: sbb byte ptr [rbx - 0x377c7020], al; adc byte ptr [rax - 0x3fcefcba], cl; ret; 
94187788630359: call 0x55a95d8f7c74; or eax, 0x10; mov byte ptr [rsi + 3], al; xor eax, eax; ret; 
94187788630382: ret; 
94187788630380: xor eax, eax; ret; 
94187788630379: xor eax, eax; ret; 
94187788630376: or byte ptr [rsi + 3], 0x40; xor eax, eax; ret; 
94187788630373: nop dword ptr [rax]; or byte ptr [rsi + 3], 0x40; xor eax, eax; ret; 
94187788630372: ret; 
94187788630435: ret; 
94187788630433: xor eax, eax; ret; 
94187788630430: mov dword ptr [rsi + 8], eax; xor eax, eax; ret; 
94187788630429: mov qword ptr [rsi + 8], rax; xor eax, eax; ret; 
94187788630426: mov eax, dword ptr [rdx + 0x20]; mov qword ptr [rsi + 8], rax; xor eax, eax; ret; 
94187788630425: mov rax, qword ptr [rdx + 0x20]; mov qword ptr [rsi + 8], rax; xor eax, eax; ret; 
94187788630422: mov byte ptr [rsi + 3], al; mov rax, qword ptr [rdx + 0x20]; mov qword ptr [rsi + 8], rax; xor eax, eax; ret; 
94187788630446: ret; 
94187788630444: xor eax, eax; ret; 
94187788630443: xor eax, eax; ret; 
94187788630440: or byte ptr [rsi + 3], 0x40; xor eax, eax; ret; 
94187788630436: nop dword ptr [rax]; or byte ptr [rsi + 3], 0x40; xor eax, eax; ret; 
94187788630435: ret; 
94187788630507: ret; 
94187788630505: xor eax, eax; ret; 
94187788630502: mov byte ptr [rsi + 3], al; xor eax, eax; ret; 
94187788630501: adc byte ptr [rax - 0x3fcefcba], cl; ret; 
94187788630499: or eax, 0x10; mov byte ptr [rsi + 3], al; xor eax, eax; ret; 
94187788630496: and eax, 0xffffff8f; or eax, 0x10; mov byte ptr [rsi + 3], al; xor eax, eax; ret; 
94187788630495: sbb byte ptr [rbx - 0x377c7020], al; adc byte ptr [rax - 0x3fcefcba], cl; ret; 
94187788630494: call 0x55a95d8f7cfb; or eax, 0x10; mov byte ptr [rsi + 3], al; xor eax, eax; ret; 
94187788630711: ret; 
94187788630709: xor eax, eax; ret; 
94187788630706: mov byte ptr [rsi + 3], al; xor eax, eax; ret; 
94187788630705: adc byte ptr [rax - 0x3fcefcba], cl; ret; 
94187788630703: or eax, 0x10; mov byte ptr [rsi + 3], al; xor eax, eax; ret; 
94187788630700: and eax, 0xffffff8f; or eax, 0x10; mov byte ptr [rsi + 3], al; xor eax, eax; ret; 
94187788630699: add eax, dword ptr [rbx - 0x377c7020]; adc byte ptr [rax - 0x3fcefcba], cl; ret; 
94187788630698: add r8d, dword ptr [rbx - 0x377c7020]; adc byte ptr [rax - 0x3fcefcba], cl; ret; 
94187788630697: mov dh, 0x46; add eax, dword ptr [rbx - 0x377c7020]; adc byte ptr [rax - 0x3fcefcba], cl; ret; 
94187788630781: ret; 
94187788630779: xor eax, eax; ret; 
94187788630776: mov byte ptr [rsi + 3], al; xor eax, eax; ret; 
94187788630775: adc byte ptr [rax - 0x3fcefcba], cl; ret; 
94187788630773: or eax, 0x10; mov byte ptr [rsi + 3], al; xor eax, eax; ret; 
94187788630770: and eax, 0xffffff8f; or eax, 0x10; mov byte ptr [rsi + 3], al; xor eax, eax; ret; 
94187788630769: add eax, dword ptr [rbx - 0x377c7020]; adc byte ptr [rax - 0x3fcefcba], cl; ret; 
94187788630768: add r8d, dword ptr [rbx - 0x377c7020]; adc byte ptr [rax - 0x3fcefcba], cl; ret; 
94187788630767: mov dh, 0x46; add eax, dword ptr [rbx - 0x377c7020]; adc byte ptr [rax - 0x3fcefcba], cl; ret; 
94187788630833: ret; 
94187788630831: mov dword ptr [rsi], edx; ret; 
94187788630829: xor eax, eax; mov dword ptr [rsi], edx; ret; 
94187788630826: mov dword ptr [rsi + 8], eax; xor eax, eax; mov dword ptr [rsi], edx; ret; 
94187788630825: mov qword ptr [rsi + 8], rax; xor eax, eax; mov dword ptr [rsi], edx; ret; 
94187788630823: add byte ptr [rax], dl; mov qword ptr [rsi + 8], rax; xor eax, eax; mov dword ptr [rsi], edx; ret; 
94187788630885: ret; 
94187788630883: xor eax, eax; ret; 
94187788630880: mov dword ptr [rsi + 8], eax; xor eax, eax; ret; 
94187788630879: mov qword ptr [rsi + 8], rax; xor eax, eax; ret; 
94187788630877: add byte ptr [rax], al; mov qword ptr [rsi + 8], rax; xor eax, eax; ret; 
94187788630873: mov eax, dword ptr [rcx + 0x80]; mov qword ptr [rsi + 8], rax; xor eax, eax; ret; 
94187788630872: mov rax, qword ptr [rcx + 0x80]; mov qword ptr [rsi + 8], rax; xor eax, eax; ret; 
94187788630869: mov byte ptr [rsi + 3], al; mov rax, qword ptr [rcx + 0x80]; mov qword ptr [rsi + 8], rax; xor eax, eax; ret; 
94187788630920: ret; 
94187788630918: mov dword ptr [rsi], edx; ret; 
94187788630916: xor eax, eax; mov dword ptr [rsi], edx; ret; 
94187788630913: mov dword ptr [rsi + 8], eax; xor eax, eax; mov dword ptr [rsi], edx; ret; 
94187788630912: mov qword ptr [rsi + 8], rax; xor eax, eax; mov dword ptr [rsi], edx; ret; 
94187788630910: add byte ptr [rax], dl; mov qword ptr [rsi + 8], rax; xor eax, eax; mov dword ptr [rsi], edx; ret; 
94187788630977: ret; 
94187788630975: xor eax, eax; ret; 
94187788630972: mov dword ptr [rsi + 8], eax; xor eax, eax; ret; 
94187788630971: mov qword ptr [rsi + 8], rax; xor eax, eax; ret; 
94187788630969: add byte ptr [rax], al; mov qword ptr [rsi + 8], rax; xor eax, eax; ret; 
94187788630965: mov eax, dword ptr [rcx + 0x80]; mov qword ptr [rsi + 8], rax; xor eax, eax; ret; 
94187788630964: mov rax, qword ptr [rcx + 0x80]; mov qword ptr [rsi + 8], rax; xor eax, eax; ret; 
94187788630961: mov byte ptr [rsi + 3], al; mov rax, qword ptr [rcx + 0x80]; mov qword ptr [rsi + 8], rax; xor eax, eax; ret; 
94187788631044: ret; 
94187788631042: xor eax, eax; ret; 
94187788631039: mov dword ptr [rsi + 8], eax; xor eax, eax; ret; 
94187788631038: mov qword ptr [rsi + 8], rax; xor eax, eax; ret; 
94187788631036: add byte ptr [rax], al; mov qword ptr [rsi + 8], rax; xor eax, eax; ret; 
94187788631032: mov eax, dword ptr [rcx + 0x90]; mov qword ptr [rsi + 8], rax; xor eax, eax; ret; 
94187788631031: mov rax, qword ptr [rcx + 0x90]; mov qword ptr [rsi + 8], rax; xor eax, eax; ret; 
94187788631028: mov byte ptr [rsi + 3], al; mov rax, qword ptr [rcx + 0x90]; mov qword ptr [rsi + 8], rax; xor eax, eax; ret; 
94187788631088: ret; 
94187788631086: add byte ptr [rax], al; ret; 
94187788631082: mov dword ptr [rdi + 0x408], eax; ret; 
94187788631081: mov qword ptr [rdi + 0x408], rax; ret; 
94187788631080: out dx, eax; mov qword ptr [rdi + 0x408], rax; ret; 
94187788631079: add bh, ch; mov qword ptr [rdi + 0x408], rax; ret; 
94187788631078: add byte ptr [rax], al; out dx, eax; mov qword ptr [rdi + 0x408], rax; ret; 
94187788631077: add eax, 0x48ef0000; mov dword ptr [rdi + 0x408], eax; ret; 
94187788631076: adc eax, 0xef000005; mov qword ptr [rdi + 0x408], rax; ret; 
94187788631075: cmpsd dword ptr [rsi], dword ptr [rdi]; adc eax, 0xef000005; mov qword ptr [rdi + 0x408], rax; ret; 
94187788631074: and byte ptr [rdi + 0x515], 0xef; mov qword ptr [rdi + 0x408], rax; ret; 
94187788631073: or byte ptr [rax + 0x515a7], al; add bh, ch; mov qword ptr [rdi + 0x408], rax; ret; 
94187788631072: or byte ptr [rax + 0x515a7], r8b; add bh, ch; mov qword ptr [rdi + 0x408], rax; ret; 
94187788631071: mov eax, dword ptr [rsi + 8]; and byte ptr [rdi + 0x515], 0xef; mov qword ptr [rdi + 0x408], rax; ret; 
94187788631070: mov rax, qword ptr [rsi + 8]; and byte ptr [rdi + 0x515], 0xef; mov qword ptr [rdi + 0x408], rax; ret; 
94187788631069: add byte ptr [rax - 0x75], cl; or byte ptr [rax + 0x515a7], r8b; add bh, ch; mov qword ptr [rdi + 0x408], rax; ret; 
94187788631068: add byte ptr [rax], al; mov rax, qword ptr [rsi + 8]; and byte ptr [rdi + 0x515], 0xef; mov qword ptr [rdi + 0x408], rax; ret; 
94187788631164: ret; 
94187788631162: xor eax, eax; ret; 
94187788631159: mov dword ptr [rsi + 8], eax; xor eax, eax; ret; 
94187788631158: mov qword ptr [rsi + 8], rax; xor eax, eax; ret; 
94187788631157: mov qword ptr [rsi + 8], rax; xor eax, eax; ret; 
94187788631156: mov qword ptr [rsi + 8], rax; xor eax, eax; ret; 
94187788631155: mov eax, dword ptr [rcx + 0x48]; mov qword ptr [rsi + 8], rax; xor eax, eax; ret; 
94187788631154: mov rax, qword ptr [rcx + 0x48]; mov qword ptr [rsi + 8], rax; xor eax, eax; ret; 
94187788631153: add ecx, dword ptr [rax - 0x75]; mov qword ptr [rsi + 8], rax; xor eax, eax; ret; 
94187788631152: add r9d, dword ptr [rax - 0x75]; mov qword ptr [rsi + 8], rax; xor eax, eax; ret; 
94187788631151: mov byte ptr [rsi + 3], al; mov rax, qword ptr [rcx + 0x48]; mov qword ptr [rsi + 8], rax; xor eax, eax; ret; 
94187788631150: adc byte ptr [rax - 0x74b7fcba], cl; mov qword ptr [rsi + 8], rax; xor eax, eax; ret; 
94187788631231: ret; 
94187788631229: xor eax, eax; ret; 
94187788631226: mov byte ptr [rsi + 3], al; xor eax, eax; ret; 
94187788631225: adc byte ptr [rax - 0x3fcefcba], cl; ret; 
94187788631223: or eax, 0x10; mov byte ptr [rsi + 3], al; xor eax, eax; ret; 
94187788631220: and eax, 0xffffff8f; or eax, 0x10; mov byte ptr [rsi + 3], al; xor eax, eax; ret; 
94187788631219: sbb byte ptr [rbx - 0x377c7020], al; adc byte ptr [rax - 0x3fcefcba], cl; ret; 
94187788631218: call 0x55a95d8f7fcf; or eax, 0x10; mov byte ptr [rsi + 3], al; xor eax, eax; ret; 
94187788631238: ret; 
94187788631236: xor eax, eax; ret; 
94187788631235: xor eax, eax; ret; 
94187788631232: or byte ptr [rsi + 3], 0x40; xor eax, eax; ret; 
94187788631231: ret; 
94187788631293: ret; 
94187788631291: xor eax, eax; ret; 
94187788631289: mov dword ptr [rsi], eax; xor eax, eax; ret; 
94187788631287: add byte ptr [rax], dl; mov dword ptr [rsi], eax; xor eax, eax; ret; 
94187788631285: add dword ptr [rax], eax; add byte ptr [rax], dl; mov dword ptr [rsi], eax; xor eax, eax; ret; 
94187788631284: or eax, 0x10000001; mov dword ptr [rsi], eax; xor eax, eax; ret; 
94187788631279: and eax, 0x80000000; or eax, 0x10000001; mov dword ptr [rsi], eax; xor eax, eax; ret; 
94187788631352: ret; 
94187788631350: xor eax, eax; ret; 
94187788631347: mov dword ptr [rsi + 8], eax; xor eax, eax; ret; 
94187788631346: mov qword ptr [rsi + 8], rax; xor eax, eax; ret; 
94187788631344: add byte ptr [rax], al; mov qword ptr [rsi + 8], rax; xor eax, eax; ret; 
94187788631342: sbb byte ptr [rbx], al; add byte ptr [rax], al; mov qword ptr [rsi + 8], rax; xor eax, eax; ret; 
94187788631340: mov eax, dword ptr [rdi + 0x318]; mov qword ptr [rsi + 8], rax; xor eax, eax; ret; 
94187788631339: mov rax, qword ptr [rdi + 0x318]; mov qword ptr [rsi + 8], rax; xor eax, eax; ret; 
94187788631336: mov byte ptr [rsi + 3], al; mov rax, qword ptr [rdi + 0x318]; mov qword ptr [rsi + 8], rax; xor eax, eax; ret; 
94187788631366: ret; 
94187788631364: xor eax, eax; ret; 
94187788631363: xor eax, eax; ret; 
94187788631360: or byte ptr [rsi + 3], 0x40; xor eax, eax; ret; 
94187788631358: add byte ptr [rax], al; or byte ptr [rsi + 3], 0x40; xor eax, eax; ret; 
94187788631356: add byte ptr [rax], al; add byte ptr [rax], al; or byte ptr [rsi + 3], 0x40; xor eax, eax; ret; 
94187788631355: add byte ptr [rax], 0; add byte ptr [rax], al; or byte ptr [rsi + 3], 0x40; xor eax, eax; ret; 
94187788631353: nop dword ptr [rax]; or byte ptr [rsi + 3], 0x40; xor eax, eax; ret; 
94187788631352: ret; 
94187788631463: ret; 
94187788631461: xor eax, eax; ret; 
94187788631458: mov byte ptr [rsi + 3], al; xor eax, eax; ret; 
94187788631457: adc byte ptr [rax - 0x3fcefcba], cl; ret; 
94187788631455: or eax, 0x10; mov byte ptr [rsi + 3], al; xor eax, eax; ret; 
94187788631452: and eax, 0xffffff8f; or eax, 0x10; mov byte ptr [rsi + 3], al; xor eax, eax; ret; 
94187788631451: sbb byte ptr [rbx - 0x377c7020], al; adc byte ptr [rax - 0x3fcefcba], cl; ret; 
94187788631450: call 0x55a95d8f80b7; or eax, 0x10; mov byte ptr [rsi + 3], al; xor eax, eax; ret; 
94187788631550: ret; 
94187788631548: xor eax, eax; ret; 
94187788631545: mov dword ptr [rsi + 8], eax; xor eax, eax; ret; 
94187788631544: mov qword ptr [rsi + 8], rax; xor eax, eax; ret; 
94187788631541: mov eax, dword ptr [rdx + 0x10]; mov qword ptr [rsi + 8], rax; xor eax, eax; ret; 
94187788631540: mov rax, qword ptr [rdx + 0x10]; mov qword ptr [rsi + 8], rax; xor eax, eax; ret; 
94187788631537: mov byte ptr [rsi + 3], al; mov rax, qword ptr [rdx + 0x10]; mov qword ptr [rsi + 8], rax; xor eax, eax; ret; 
94187788631558: ret; 
94187788631556: xor eax, eax; ret; 
94187788631555: xor eax, eax; ret; 
94187788631552: or byte ptr [rsi + 3], 0x40; xor eax, eax; ret; 
94187788631551: nop; or byte ptr [rsi + 3], 0x40; xor eax, eax; ret; 
94187788631550: ret; 
94187788631595: ret; 
94187788631593: xor eax, eax; ret; 
94187788631590: mov dword ptr [rsi + 8], eax; xor eax, eax; ret; 
94187788631589: mov qword ptr [rsi + 8], rax; xor eax, eax; ret; 
94187788631584: add eax, 0x67aa0; mov qword ptr [rsi + 8], rax; xor eax, eax; ret; 
94187788631583: lea eax, dword ptr [rip + 0x67aa0]; mov qword ptr [rsi + 8], rax; xor eax, eax; ret; 
94187788631582: lea rax, qword ptr [rip + 0x67aa0]; mov qword ptr [rsi + 8], rax; xor eax, eax; ret; 
94187788631580: mov dword ptr [rsi], eax; lea rax, qword ptr [rip + 0x67aa0]; mov qword ptr [rsi + 8], rax; xor eax, eax; ret; 
94187788631661: ret; 
94187788631659: xor eax, eax; ret; 
94187788631656: mov dword ptr [rsi + 8], eax; xor eax, eax; ret; 
94187788631655: mov qword ptr [rsi + 8], rax; xor eax, eax; ret; 
94187788631653: add byte ptr [rax], al; mov qword ptr [rsi + 8], rax; xor eax, eax; ret; 
94187788631651: push 0x48000002; mov dword ptr [rsi + 8], eax; xor eax, eax; ret; 
94187788631649: mov eax, dword ptr [rcx + 0x268]; mov qword ptr [rsi + 8], rax; xor eax, eax; ret; 
94187788631648: mov rax, qword ptr [rcx + 0x268]; mov qword ptr [rsi + 8], rax; xor eax, eax; ret; 
94187788631645: mov byte ptr [rsi + 3], al; mov rax, qword ptr [rcx + 0x268]; mov qword ptr [rsi + 8], rax; xor eax, eax; ret; 
94187788631670: ret; 
94187788631668: xor eax, eax; ret; 
94187788631667: xor eax, eax; ret; 
94187788631664: or byte ptr [rsi + 3], 0x40; xor eax, eax; ret; 
94187788631663: nop; or byte ptr [rsi + 3], 0x40; xor eax, eax; ret; 
94187788631662: nop; or byte ptr [rsi + 3], 0x40; xor eax, eax; ret; 
94187788631661: ret; 
94187788631799: ret; 
94187788631798: pop rbx; ret; 
94187788631795: add esp, 0x20; pop rbx; ret; 
94187788631794: add rsp, 0x20; pop rbx; ret; 
94187788631793: adc al, 0x48; add esp, 0x20; pop rbx; ret; 
94187788631791: add byte ptr [rbp + 0x14], dh; add rsp, 0x20; pop rbx; ret; 
94187788631789: add byte ptr [rax], al; add byte ptr [rbp + 0x14], dh; add rsp, 0x20; pop rbx; ret; 
94187788631963: ret; 
94187788631962: pop rbx; ret; 
94187788631959: add esp, 0x30; pop rbx; ret; 
94187788631958: add rsp, 0x30; pop rbx; ret; 
94187788631955: add byte ptr [rbp + 0x10], dh; add rsp, 0x30; pop rbx; ret; 
94187788631953: add byte ptr [rax], al; add byte ptr [rbp + 0x10], dh; add rsp, 0x30; pop rbx; ret; 
94187788628467: call rsp; 
94187788629013: call rsp; 
94187788629064: call rsp; 
94187788628390: jmp qword ptr [rsi + 0xf]; 
94187788628389: cli; jmp qword ptr [rsi + 0xf]; 
94187788628388: fdiv st(2), st(0); jmp qword ptr [rsi + 0xf]; 
94187788628609: jmp qword ptr [rsi + 0xf]; 
94187788628608: sti; jmp qword ptr [rsi + 0xf]; 
94187788628606: inc byte ptr [rdi]; sti; jmp qword ptr [rsi + 0xf]; 
94187788629713: jmp qword ptr [rsi + 0xf]; 
94187788629777: jmp qword ptr [rsi + 0xf]; 
94187788630306: jmp qword ptr [rsi + 0x2e]; 
94187788628786: ret 0xb60f; 
94187788628783: add dword ptr [rax + 0x29], ecx; ret 0xb60f; 
94187788628973: ret 0xfffd; 
94187788628970: add cl, byte ptr [rax - 9]; ret 0xfffd; 
94187788628969: push rbp; add cl, byte ptr [rax - 9]; ret 0xfffd; 
94187788628966: xor byte ptr [rax - 0x73], cl; push rbp; add cl, byte ptr [rax - 9]; ret 0xfffd; 
94187788628964: add al, 0x74; xor byte ptr [rax - 0x73], cl; push rbp; add cl, byte ptr [rax - 9]; ret 0xfffd; 
94187788630340: ret 0x68b; 
94187788630590: ret 0x8141; 
94187788631199: ret 0x68b; 
94187788631272: ret 0x8948; 
94187788631309: ret 0x68b; 
94187788631307: xor al, 0x89; ret 0x68b; 
94187788631437: ret 0x68b; 
94187788631618: ret 0x68b; 
94187788631724: ret 0x4ee8; 
94187788629070: call qword ptr [rax - 0x172076b8]; 
94187788816597: ret; 
94187788816594: dec dword ptr [rax - 0x77]; ret; 
94187788816593: clc; dec dword ptr [rax - 0x77]; ret; 
94187788816592: cmp edi, eax; dec dword ptr [rax - 0x77]; ret; 
94187788816591: std; cmp edi, eax; dec dword ptr [rax - 0x77]; ret; 
94187788816589: add al, ch; std; cmp edi, eax; dec dword ptr [rax - 0x77]; ret; 
94187788818280: ret; 
94187788818279: pop rdi; ret; 
94187788818278: pop r15; ret; 
94187788818277: pop rsi; pop r15; ret; 
94187788818276: pop r14; pop r15; ret; 
94187788818275: pop rbp; pop r14; pop r15; ret; 
94187788818274: pop r13; pop r14; pop r15; ret; 
94187788818273: pop rsp; pop r13; pop r14; pop r15; ret; 
94187788818272: pop r12; pop r13; pop r14; pop r15; ret; 
94187788819142: ret; 
94187788819141: pop rdi; ret; 
94187788819140: pop r15; ret; 
94187788819139: pop rsi; pop r15; ret; 
94187788819138: pop r14; pop r15; ret; 
94187788819137: pop rbp; pop r14; pop r15; ret; 
94187788819136: pop r13; pop r14; pop r15; ret; 
94187788819135: pop rsp; pop r13; pop r14; pop r15; ret; 
94187788819134: pop r12; pop r13; pop r14; pop r15; ret; 
94187788819175: ret; 
94187788819174: pop rdi; ret; 
94187788819173: pop r15; ret; 
94187788819172: pop rsi; pop r15; ret; 
94187788819171: pop r14; pop r15; ret; 
94187788819170: pop rbp; pop r14; pop r15; ret; 
94187788819169: pop r13; pop r14; pop r15; ret; 
94187788819168: pop rsp; pop r13; pop r14; pop r15; ret; 
94187788819167: pop r12; pop r13; pop r14; pop r15; ret; 
94187788819202: ret; 
94187788819201: pop rdi; ret; 
94187788819200: pop r15; ret; 
94187788819199: pop rsi; pop r15; ret; 
94187788819198: pop r14; pop r15; ret; 
94187788819197: pop rbp; pop r14; pop r15; ret; 
94187788819196: pop r13; pop r14; pop r15; ret; 
94187788819195: pop rsp; pop r13; pop r14; pop r15; ret; 
94187788819194: pop r12; pop r13; pop r14; pop r15; ret; 
94187788819240: ret; 
94187788819239: pop rdi; ret; 
94187788819238: pop r15; ret; 
94187788819237: pop rsi; pop r15; ret; 
94187788819236: pop r14; pop r15; ret; 
94187788819235: pop rbp; pop r14; pop r15; ret; 
94187788819234: pop r13; pop r14; pop r15; ret; 
94187788819233: pop rsp; pop r13; pop r14; pop r15; ret; 
94187788819232: pop r12; pop r13; pop r14; pop r15; ret; 
94187788820159: ret; 
94187788820158: pop rdi; ret; 
94187788820157: pop r15; ret; 
94187788820156: pop rsi; pop r15; ret; 
94187788820155: pop r14; pop r15; ret; 
94187788820154: pop rbp; pop r14; pop r15; ret; 
94187788820153: pop r13; pop r14; pop r15; ret; 
94187788820152: pop rsp; pop r13; pop r14; pop r15; ret; 
94187788820151: pop r12; pop r13; pop r14; pop r15; ret; 
94187788820382: ret; 
94187788820381: pop rdi; ret; 
94187788820380: pop r15; ret; 
94187788820379: pop rsi; pop r15; ret; 
94187788820378: pop r14; pop r15; ret; 
94187788820377: pop rbp; pop r14; pop r15; ret; 
94187788820376: pop r13; pop r14; pop r15; ret; 
94187788820375: pop rsp; pop r13; pop r14; pop r15; ret; 
94187788820374: pop r12; pop r13; pop r14; pop r15; ret; 
94187788817286: jmp qword ptr [rsi + 0xf]; 
94187788817389: jmp qword ptr [rsi - 0x70]; 
94187788817417: jmp qword ptr [rsi + 0xf]; 
94187788817697: jmp qword ptr [rsi + 0xf]; 
94187788817729: jmp qword ptr [rsi + 0xf]; 
94187788817745: jmp qword ptr [rsi + 0x66]; 
94187788817853: jmp qword ptr [rsi - 0x70]; 
94187788817923: jmp qword ptr [rsi + 0x66]; 
94187788817921: idiv edi; jmp qword ptr [rsi + 0x66]; 
94187788817920: insb byte ptr [rdi], dx; idiv edi; jmp qword ptr [rsi + 0x66]; 
94187788818513: jmp qword ptr [rsi + 0xf]; 
94187788818504: call qword ptr [rbp + 0x40]; 
94187788818499: add eax, 0x41fb0000; call qword ptr [rbp + 0x40]; 
94187788816990: ret 0x4816; 
94187788816987: add byte ptr [rax - 0x7d], cl; ret 0x4816; 
94187788816985: add byte ptr [rax], al; add byte ptr [rax - 0x7d], cl; ret 0x4816; 
94187788816983: add al, byte ptr [rax]; add byte ptr [rax], al; add byte ptr [rax - 0x7d], cl; ret 0x4816; 
94187788816981: add al, 0xc7; add al, byte ptr [rax]; add byte ptr [rax], al; add byte ptr [rax - 0x7d], cl; ret 0x4816; 
94187788816980: add al, 0xc7; add al, byte ptr [rax]; add byte ptr [rax], al; add byte ptr [rax - 0x7d], cl; ret 0x4816; 
94187788817097: ret 0x8b48; 
94187788817094: adc dword ptr [rax - 0x77], ecx; ret 0x8b48; 
94187788817176: ret 0x8948; 
94187788817528: ret 0x2d76; 
94187788818463: ret 0xfffe; 
94187788818460: dec dword ptr [rax - 0x39]; ret 0xfffe; 
94187788818689: ret 0x12b; 
94187788819256: ret 0x8b48; 
94187788819450: ret 0x12b; 
94187788819796: ret 0x8348; 
94187788819795: xchg eax, esp; ret 0x8348; 
94187788819793: or byte ptr [rdi], cl; xchg eax, esp; ret 0x8348; 
94187788819791: add byte ptr [rax], al; or byte ptr [rdi], cl; xchg eax, esp; ret 0x8348; 
94187788819799: ret 0xe801; 
94187788819796: ret 0x8348; 
94187788812859: ret; 
94187788812858: pop rsp; ret; 
94187788812857: pop r12; ret; 
94187788812856: pop rbp; pop r12; ret; 
94187788812855: pop rbx; pop rbp; pop r12; ret; 
94187788812854: rcr byte ptr [rbx + 0x5d], 0x41; pop rsp; ret; 
94187788812853: mov eax, eax; pop rbx; pop rbp; pop r12; ret; 
94187788812852: mov rax, r8; pop rbx; pop rbp; pop r12; ret; 
94187788812851: adc byte ptr [rcx + rcx*4 - 0x40], cl; pop rbx; pop rbp; pop r12; ret; 
94187788814554: ret; 
94187788814882: ret; 
94187788814881: pop rsi; ret; 
94187788814880: pop r14; ret; 
94187788814879: pop rbp; pop r14; ret; 
94187788814878: pop r13; pop r14; ret; 
94187788814877: pop rsp; pop r13; pop r14; ret; 
94187788814876: pop r12; pop r13; pop r14; ret; 
94187788814875: pop rbp; pop r12; pop r13; pop r14; ret; 
94187788815652: ret; 
94187788815651: pop rsp; ret; 
94187788815650: pop r12; ret; 
94187788815649: pop rbp; pop r12; ret; 
94187788815648: pop rbx; pop rbp; pop r12; ret; 
94187788815647: add byte ptr [rbx + 0x5d], bl; pop r12; ret; 
94187788815646: add byte ptr [rax], al; pop rbx; pop rbp; pop r12; ret; 
94187788815645: add byte ptr [rax], r8b; pop rbx; pop rbp; pop r12; ret; 
94187788815643: nop dword ptr [rax + rax]; pop rbx; pop rbp; pop r12; ret; 
94187788815642: nop word ptr [rax + rax]; pop rbx; pop rbp; pop r12; ret; 
94187788816033: ret; 
94187788816032: pop rdi; ret; 
94187788816031: pop r15; ret; 
94187788816030: pop rsi; pop r15; ret; 
94187788816029: pop r14; pop r15; ret; 
94187788816028: pop rbp; pop r14; pop r15; ret; 
94187788816027: pop r13; pop r14; pop r15; ret; 
94187788816026: pop rsp; pop r13; pop r14; pop r15; ret; 
94187788816025: pop r12; pop r13; pop r14; pop r15; ret; 
94187788816057: ret; 
94187788816130: ret; 
94187788816127: add byte ptr [rax - 0x77], cl; ret; 
94187788816125: add dword ptr [rax], eax; add byte ptr [rax - 0x77], cl; ret; 
94187788816120: test dword ptr [rcx - 1], 0x10096; add byte ptr [rax - 0x77], cl; ret; 
94187788812289: jmp qword ptr [rsi + 0xf]; 
94187788812353: jmp qword ptr [rsi + 0xf]; 
94187788812389: jmp qword ptr [rsi + 0x2e]; 
94187788812749: jmp qword ptr [rsi - 0x70]; 
94187788812777: jmp qword ptr [rsi + 0xf]; 
94187788813161: jmp qword ptr [rsi + 0xf]; 
94187788813159: in eax, 0xff; jmp qword ptr [rsi + 0xf]; 
94187788813233: jmp qword ptr [rsi + 0xf]; 
94187788813457: jmp qword ptr [rsi + 0xf]; 
94187788814157: jmp qword ptr [rsi - 0x70]; 
94187788814169: jmp qword ptr [rsi + 0xf]; 
94187788814246: jmp qword ptr [rsi + 0xf]; 
94187788815641: jmp qword ptr [rsi + 0xf]; 
94187788815718: jmp qword ptr [rsi + 0xf]; 
94187788816065: jmp qword ptr [rsi + 0xf]; 
94187788812532: ret 0x870f; 
94187788812529: or dword ptr [rax + 0x39], ecx; ret 0x870f; 
94187788812702: ret 0x2948; 
94187788812705: ret 0x8d4c; 
94187788812702: ret 0x2948; 
94187788813716: ret 0x7440; 
94187788813714: sub dh, dh; ret 0x7440; 
94187788813713: sub sil, r14b; ret 0x7440; 
94187788814407: ret 0x53e8; 
94187788814404: fisttp word ptr [rax + 0x29]; ret 0x53e8; 
94187788815079: ret 0x12b; 
94187788815098: ret 0; 
94187788815095: ror byte ptr [rdi], 0x85; ret 0; 
94187788815092: mov cl, byte ptr [rax - 0x7b]; ror byte ptr [rdi], 0x85; ret 0; 
94187788812590: call qword ptr [rax + 0x450b60f]; 
94187788812588: out 0xff, eax; call qword ptr [rax + 0x450b60f]; 
94187788812587: int1; out 0xff, eax; call qword ptr [rax + 0x450b60f]; 
94187788814110: call qword ptr [rax + 0x48038b48]; 
94187788816122: call qword ptr [rsi + 0x100]; 
ERROR: Failed to disassemble given code!
94187788796257: ret; 
94187788796256: pop rbp; ret; 
94187788796255: pop r13; ret; 
94187788796254: pop rsp; pop r13; ret; 
94187788796253: pop r12; pop r13; ret; 
94187788796252: pop rbp; pop r12; pop r13; ret; 
94187788796251: pop rbx; pop rbp; pop r12; pop r13; ret; 
94187788796250: call 0x55aa29f2deba; pop r13; ret; 
94187788796304: ret; 
94187788796408: ret; 
94187788796405: add esp, 8; ret; 
94187788796404: add rsp, 8; ret; 
94187788796402: xor eax, eax; add rsp, 8; ret; 
94187788796399: mov dword ptr [rax + 0x18], ecx; xor eax, eax; add rsp, 8; ret; 
94187788796398: mov qword ptr [rax + 0x18], rcx; xor eax, eax; add rsp, 8; ret; 
94187788796396: add byte ptr [rax], al; mov qword ptr [rax + 0x18], rcx; xor eax, eax; add rsp, 8; ret; 
94187788796393: or eax, 0x562; mov qword ptr [rax + 0x18], rcx; xor eax, eax; add rsp, 8; ret; 
94187788796392: lea ecx, dword ptr [rip + 0x562]; mov qword ptr [rax + 0x18], rcx; xor eax, eax; add rsp, 8; ret; 
94187788796391: lea rcx, qword ptr [rip + 0x562]; mov qword ptr [rax + 0x18], rcx; xor eax, eax; add rsp, 8; ret; 
94187788797432: ret; 
94187788797431: pop rdi; ret; 
94187788797430: pop r15; ret; 
94187788797429: pop rsi; pop r15; ret; 
94187788797428: pop r14; pop r15; ret; 
94187788797427: pop rbp; pop r14; pop r15; ret; 
94187788797426: pop r13; pop r14; pop r15; ret; 
94187788797425: pop rsp; pop r13; pop r14; pop r15; ret; 
94187788797424: pop r12; pop r13; pop r14; pop r15; ret; 
94187788797877: ret; 
94187788797876: pop rdi; ret; 
94187788797875: pop r15; ret; 
94187788797874: pop rsi; pop r15; ret; 
94187788797873: pop r14; pop r15; ret; 
94187788797872: pop rbp; pop r14; pop r15; ret; 
94187788797871: pop r13; pop r14; pop r15; ret; 
94187788797870: pop rsp; pop r13; pop r14; pop r15; ret; 
94187788797869: pop r12; pop r13; pop r14; pop r15; ret; 
94187788797920: ret; 
94187788797919: pop rdi; ret; 
94187788797918: pop r15; ret; 
94187788797917: pop rsi; pop r15; ret; 
94187788797916: pop r14; pop r15; ret; 
94187788797915: pop rbp; pop r14; pop r15; ret; 
94187788797914: pop r13; pop r14; pop r15; ret; 
94187788797913: pop rsp; pop r13; pop r14; pop r15; ret; 
94187788797912: pop r12; pop r13; pop r14; pop r15; ret; 
94187788798405: ret; 
94187788798403: xor eax, eax; ret; 
94187788798400: mov dword ptr [rdx + 0x30], eax; xor eax, eax; ret; 
94187788798399: mov qword ptr [rdx + 0x30], rax; xor eax, eax; ret; 
94187788798396: mov dword ptr [rax + 8], ecx; mov qword ptr [rdx + 0x30], rax; xor eax, eax; ret; 
94187788798395: mov qword ptr [rax + 8], rcx; mov qword ptr [rdx + 0x30], rax; xor eax, eax; ret; 
94187788798392: mov ecx, dword ptr [rdx + 0x30]; mov qword ptr [rax + 8], rcx; mov qword ptr [rdx + 0x30], rax; xor eax, eax; ret; 
94187788798391: mov rcx, qword ptr [rdx + 0x30]; mov qword ptr [rax + 8], rcx; mov qword ptr [rdx + 0x30], rax; xor eax, eax; ret; 
94187788798423: ret; 
94187788798417: mov eax, 0xfffffffe; ret; 
94187788798416: mov rax, -2; ret; 
94187788798414: add byte ptr [rax], al; mov rax, -2; ret; 
94187788798412: add byte ptr [rax], al; add byte ptr [rax], al; mov rax, -2; ret; 
94187788798410: test byte ptr [rax], al; add byte ptr [rax], al; add byte ptr [rax], al; mov rax, -2; ret; 
94187788798408: nop dword ptr [rax + rax]; mov rax, -2; ret; 
94187788798407: nop dword ptr cs:[rax + rax]; mov rax, -2; ret; 
94187788798406: nop word ptr cs:[rax + rax]; mov rax, -2; ret; 
94187788798405: ret; 
94187788798467: ret; 
94187788798465: add byte ptr [rax], al; ret; 
94187788798461: mov dword ptr [rdi + 0x158], esi; ret; 
94187788798460: mov qword ptr [rdi + 0x158], rsi; ret; 
94187788798458: xor eax, eax; mov qword ptr [rdi + 0x158], rsi; ret; 
94187788798456: mov dword ptr [rsi], eax; xor eax, eax; mov qword ptr [rdi + 0x158], rsi; ret; 
94187788798455: mov qword ptr [rsi], rax; xor eax, eax; mov qword ptr [rdi + 0x158], rsi; ret; 
94187788798453: add byte ptr [rax], al; mov qword ptr [rsi], rax; xor eax, eax; mov qword ptr [rdi + 0x158], rsi; ret; 
94187788798479: ret; 
94187788798473: mov eax, 0xfffffffe; ret; 
94187788798472: mov rax, -2; ret; 
94187788798468: nop dword ptr [rax]; mov rax, -2; ret; 
94187788798467: ret; 
94187788798574: ret; 
94187788798573: pop rsp; ret; 
94187788798572: pop r12; ret; 
94187788798571: pop rbp; pop r12; ret; 
94187788798570: pop rbx; pop rbp; pop r12; ret; 
94187788798569: mov edx, 0x5c415d5b; ret; 
94187788798739: ret; 
94187788798738: pop rdi; ret; 
94187788798737: pop r15; ret; 
94187788798736: pop rsi; pop r15; ret; 
94187788798735: pop r14; pop r15; ret; 
94187788798734: pop rbp; pop r14; pop r15; ret; 
94187788798733: pop r13; pop r14; pop r15; ret; 
94187788798732: pop rsp; pop r13; pop r14; pop r15; ret; 
94187788798731: pop r12; pop r13; pop r14; pop r15; ret; 
94187788799142: ret; 
94187788799141: pop rbp; ret; 
94187788799140: pop rbx; pop rbp; ret; 
94187788799139: or byte ptr [rbx + 0x5d], bl; ret; 
94187788799137: add esp, 8; pop rbx; pop rbp; ret; 
94187788799136: add rsp, 8; pop rbx; pop rbp; ret; 
94187788799135: ror byte ptr [rax - 0x7d], 0xc4; or byte ptr [rbx + 0x5d], bl; ret; 
94187788799134: xor eax, eax; add rsp, 8; pop rbx; pop rbp; ret; 
94187788799133: add dword ptr [rcx], esi; ror byte ptr [rax - 0x7d], 0xc4; or byte ptr [rbx + 0x5d], bl; ret; 
94187788799196: ret; 
94187788799340: ret; 
94187788799339: pop rsp; ret; 
94187788799338: pop r12; ret; 
94187788799337: pop rbp; pop r12; ret; 
94187788799336: pop rbx; pop rbp; pop r12; ret; 
94187788799335: rcr byte ptr [rbx + 0x5d], 0x41; pop rsp; ret; 
94187788799334: xor eax, eax; pop rbx; pop rbp; pop r12; ret; 
94187788799333: add dword ptr [rcx], esi; rcr byte ptr [rbx + 0x5d], 0x41; pop rsp; ret; 
94187788799532: ret; 
94187788799531: pop rsp; ret; 
94187788799530: pop r12; ret; 
94187788799529: pop rbp; pop r12; ret; 
94187788799528: pop rbx; pop rbp; pop r12; ret; 
94187788799527: rcr byte ptr [rbx + 0x5d], 0x41; pop rsp; ret; 
94187788799526: xor eax, eax; pop rbx; pop rbp; pop r12; ret; 
94187788799525: add dword ptr [rcx], esi; rcr byte ptr [rbx + 0x5d], 0x41; pop rsp; ret; 
94187788799633: ret; 
94187788799632: pop rbx; ret; 
94187788799630: add byte ptr [rax], al; pop rbx; ret; 
94187788799628: add byte ptr [rax], al; add byte ptr [rax], al; pop rbx; ret; 
94187788799626: test byte ptr [rax], al; add byte ptr [rax], al; add byte ptr [rax], al; pop rbx; ret; 
94187788799624: nop dword ptr [rax + rax]; pop rbx; ret; 
94187788799623: nop word ptr [rax + rax]; pop rbx; ret; 
94187788799839: ret; 
94187788799838: pop rsp; ret; 
94187788799837: pop r12; ret; 
94187788799836: pop rbp; pop r12; ret; 
94187788799835: rcr byte ptr [rbp + 0x41], 0x5c; ret; 
94187788799834: mov eax, eax; pop rbp; pop r12; ret; 
94187788799833: mov rax, r8; pop rbp; pop r12; ret; 
94187788799832: pop rbx; mov rax, r8; pop rbp; pop r12; ret; 
94187788799831: add byte ptr [rbx + 0x4c], bl; mov eax, eax; pop rbp; pop r12; ret; 
94187788799830: add byte ptr [r11 + 0x4c], r11b; mov eax, eax; pop rbp; pop r12; ret; 
94187788799901: ret; 
94187788799898: add byte ptr [rcx + 0x21], cl; ret; 
94187788799896: add byte ptr [rax], al; add byte ptr [rcx + 0x21], cl; ret; 
94187788799894: or byte ptr [rax], al; add byte ptr [rax], al; add byte ptr [rcx + 0x21], cl; ret; 
94187788799893: or byte ptr [r8], al; add byte ptr [rax], al; add byte ptr [rcx + 0x21], cl; ret; 
94187788797553: jmp qword ptr [rsi + 0xf]; 
94187788797773: jmp qword ptr [rsi - 0x70]; 
94187788799622: jmp qword ptr [rsi + 0xf]; 
94187788799621: clc; jmp qword ptr [rsi + 0xf]; 
94187788799620: jp 0x55a9cdb18e7e; jmp qword ptr [rsi + 0xf]; 
94187788799619: fnstcw word ptr [rdx - 8]; jmp qword ptr [rsi + 0xf]; 
94187788799616: cvtdq2ps xmm5, xmm1; fnstcw word ptr [rdx - 8]; jmp qword ptr [rsi + 0xf]; 
94187788796181: ret 0x8b48; 
94187788796658: ret 0xf01; 
94187788796655: add byte ptr [rax - 0x7d], cl; ret 0xf01; 
94187788796653: add byte ptr [rax], al; add byte ptr [rax - 0x7d], cl; ret 0xf01; 
94187788796651: add byte ptr [rax], al; add byte ptr [rax], al; add byte ptr [rax - 0x7d], cl; ret 0xf01; 
94187788796729: ret 0x4801; 
94187788796786: ret 0xf01; 
94187788796783: add byte ptr [rax - 0x7d], cl; ret 0xf01; 
94187788796781: add byte ptr [rax], al; add byte ptr [rax - 0x7d], cl; ret 0xf01; 
94187788796779: add byte ptr [rax], al; add byte ptr [rax], al; add byte ptr [rax - 0x7d], cl; ret 0xf01; 
94187788797042: ret 0xf01; 
94187788797039: add byte ptr [rax - 0x7d], cl; ret 0xf01; 
94187788797113: ret 0x4801; 
94187788797221: ret 0x3c01; 
94187788797218: dec dword ptr [rax - 0x7d]; ret 0x3c01; 
94187788797234: ret 0xf01; 
94187788797231: add byte ptr [rax - 0x7d], cl; ret 0xf01; 
94187788797811: ret 0x8548; 
94187788797843: ret 0x38b; 
94187788797945: ret 0x8349; 
94187788797941: sub byte ptr [rbx + rcx*4 + 0x34], cl; ret 0x8349; 
94187788797940: push rdi; sub byte ptr [rbx + rcx*4 + 0x34], cl; ret 0x8349; 
94187788797937: fimul dword ptr [rax - 0x75]; push rdi; sub byte ptr [rbx + rcx*4 + 0x34], cl; ret 0x8349; 
94187788797962: ret 0xf884; 
94187788797960: add al, ch; ret 0xf884; 
94187788797958: add byte ptr [rax], al; add al, ch; ret 0xf884; 
94187788797957: add byte ptr [rax], al; add al, ch; ret 0xf884; 
94187788798333: ret 0xd231; 
94187788798348: ret 0x26e9; 
94187788798578: ret 0xe083; 
94187788798591: ret 0x48f2; 
94187788798596: ret 0xff2; 
94187788798591: ret 0x48f2; 
94187788798716: ret 0x4804; 
94187788798713: sub cl, byte ptr [rax - 0x7d]; ret 0x4804; 
94187788799066: ret 0x4808; 
94187788799063: or cl, byte ptr [rax - 0x7d]; ret 0x4808; 
94187788799922: ret 0x8b48; 
94187788799929: ret 0xf475; 
94187788799926: or byte ptr [rcx + 0x39], cl; ret 0xf475; 
94187788799925: or byte ptr [rcx + 0x39], cl; ret 0xf475; 
94187788799922: ret 0x8b48; 
94187788797006: call qword ptr [rax + 0x1c18348]; 
94187788797614: call qword ptr [rax + 0x8478b48]; 
94187788800103: ret; 
94187788800202: ret; 
94187788800201: pop rsp; ret; 
94187788800200: pop r12; ret; 
94187788800198: mov eax, eax; pop r12; ret; 
94187788800197: mov rax, r8; pop r12; ret; 
94187788800196: pop rbp; mov rax, r8; pop r12; ret; 
94187788800195: pop rbx; pop rbp; mov rax, r8; pop r12; ret; 
94187788800194: rcr byte ptr [rbx + 0x5d], 0x4c; mov eax, eax; pop r12; ret; 
94187788801953: ret; 
94187788801952: pop rdi; ret; 
94187788801951: pop r15; ret; 
94187788801950: pop rsi; pop r15; ret; 
94187788801949: pop r14; pop r15; ret; 
94187788801948: pop rbp; pop r14; pop r15; ret; 
94187788801947: pop r13; pop r14; pop r15; ret; 
94187788801946: pop rsp; pop r13; pop r14; pop r15; ret; 
94187788801945: pop r12; pop r13; pop r14; pop r15; ret; 
94187788801984: ret; 
94187788801983: pop rdi; ret; 
94187788801982: pop r15; ret; 
94187788801981: pop rsi; pop r15; ret; 
94187788801980: pop r14; pop r15; ret; 
94187788801979: pop rbp; pop r14; pop r15; ret; 
94187788801978: pop r13; pop r14; pop r15; ret; 
94187788801977: pop rsp; pop r13; pop r14; pop r15; ret; 
94187788801976: pop r12; pop r13; pop r14; pop r15; ret; 
94187788802011: ret; 
94187788802008: dec dword ptr [rax - 0x77]; ret; 
94187788802007: clc; dec dword ptr [rax - 0x77]; ret; 
94187788802243: ret; 
94187788802242: pop rbp; ret; 
94187788802241: pop rbx; pop rbp; ret; 
94187788802240: or byte ptr [rbx + 0x5d], bl; ret; 
94187788802238: add esp, 8; pop rbx; pop rbp; ret; 
94187788802237: add rsp, 8; pop rbx; pop rbp; ret; 
94187788802234: adc byte ptr [rbp + 0xb], dh; add rsp, 8; pop rbx; pop rbp; ret; 
94187788802404: ret; 
94187788802516: ret; 
94187788802515: pop rbp; ret; 
94187788802514: pop rbx; pop rbp; ret; 
94187788802513: or byte ptr [rbx + 0x5d], bl; ret; 
94187788802511: add esp, 8; pop rbx; pop rbp; ret; 
94187788802510: add rsp, 8; pop rbx; pop rbp; ret; 
94187788802507: sal byte ptr [rbp + 0x77], 0x48; add esp, 8; pop rbx; pop rbp; ret; 
94187788803002: ret; 
94187788803001: pop rbp; ret; 
94187788803000: pop r13; ret; 
94187788802999: pop rsp; pop r13; ret; 
94187788802998: pop r12; pop r13; ret; 
94187788802997: pop rbp; pop r12; pop r13; ret; 
94187788802996: pop rbx; pop rbp; pop r12; pop r13; ret; 
94187788802995: sbb byte ptr [rbx + 0x5d], bl; pop r12; pop r13; ret; 
94187788803355: ret; 
94187788803353: mov dword ptr [rsi], eax; ret; 
94187788803352: mov qword ptr [rsi], r8; ret; 
94187788803351: pop rbx; mov qword ptr [rsi], r8; ret; 
94187788803349: mov dword ptr [rdi], ebx; pop rbx; mov qword ptr [rsi], r8; ret; 
94187788803348: mov qword ptr [rdi], rbx; pop rbx; mov qword ptr [rsi], r8; ret; 
94187788803345: sub ebx, 1; mov qword ptr [rdi], rbx; pop rbx; mov qword ptr [rsi], r8; ret; 
94187788803344: sub rbx, 1; mov qword ptr [rdi], rbx; pop rbx; mov qword ptr [rsi], r8; ret; 
94187788803460: ret; 
94187788803457: fmul dword ptr [rax + 0x39]; ret; 
94187788803465: ret; 
94187788803460: ret; 
94187788803481: ret; 
94187788803480: sti; ret; 
94187788803479: sti; ret; 
94187788803478: sti; ret; 
94187788803477: lea eax, dword ptr [rax + rax*2 - 5]; ret; 
94187788803476: lea rax, qword ptr [rax + rax*2 - 5]; ret; 
94187788803475: ror byte ptr [rax - 0x73], 0x44; sti; ret; 
94187788803474: xchg eax, ebp; ror byte ptr [rax - 0x73], 0x44; sti; ret; 
94187788803473: setne al; lea rax, qword ptr [rax + rax*2 - 5]; ret; 
94187788803472: fimul dword ptr [rdi]; xchg eax, ebp; ror byte ptr [rax - 0x73], 0x44; sti; ret; 
94187788803471: cmp edx, ebx; setne al; lea rax, qword ptr [rax + rax*2 - 5]; ret; 
94187788803470: cmp rdx, r11; setne al; lea rax, qword ptr [rax + rax*2 - 5]; ret; 
94187788803469: pop rbx; cmp rdx, r11; setne al; lea rax, qword ptr [rax + rax*2 - 5]; ret; 
94187788803509: ret; 
94187788803507: mov dword ptr [rsi], eax; ret; 
94187788803506: mov qword ptr [rsi], r8; ret; 
94187788803505: pop rbx; mov qword ptr [rsi], r8; ret; 
94187788803503: mov dword ptr [rdi], ebx; pop rbx; mov qword ptr [rsi], r8; ret; 
94187788803502: mov qword ptr [rdi], rbx; pop rbx; mov qword ptr [rsi], r8; ret; 
94187788803500: sub ebx, edx; mov qword ptr [rdi], rbx; pop rbx; mov qword ptr [rsi], r8; ret; 
94187788803499: sub rbx, rdx; mov qword ptr [rdi], rbx; pop rbx; mov qword ptr [rsi], r8; ret; 
94187788803518: ret; 
94187788803517: pop rbx; ret; 
94187788803511: mov eax, 0xffffffff; pop rbx; ret; 
94187788803510: mov rax, -1; pop rbx; ret; 
94187788803509: ret; 
94187788803528: ret; 
94187788803589: ret; 
94187788803588: pop rbx; ret; 
94187788803586: xor eax, eax; pop rbx; ret; 
94187788803583: call qword ptr [rax + 0x10]; xor eax, eax; pop rbx; ret; 
94187788803581: mov edi, eax; call qword ptr [rax + 0x10]; xor eax, eax; pop rbx; ret; 
94187788803580: mov rdi, rax; call qword ptr [rax + 0x10]; xor eax, eax; pop rbx; ret; 
94187788803648: ret; 
94187788803645: or byte ptr [rax - 0x77], cl; ret; 
94187788803718: ret; 
94187788803717: pop rsi; ret; 
94187788803716: pop r14; ret; 
94187788803715: pop rbp; pop r14; ret; 
94187788803714: pop r13; pop r14; ret; 
94187788803713: pop rsp; pop r13; pop r14; ret; 
94187788803712: pop r12; pop r13; pop r14; ret; 
94187788803711: pop rbp; pop r12; pop r13; pop r14; ret; 
94187788804075: ret; 
94187788804074: pop rdi; ret; 
94187788804073: pop r15; ret; 
94187788804072: pop rsi; pop r15; ret; 
94187788804071: pop r14; pop r15; ret; 
94187788804070: pop rbp; pop r14; pop r15; ret; 
94187788804069: pop r13; pop r14; pop r15; ret; 
94187788804068: pop rsp; pop r13; pop r14; pop r15; ret; 
94187788804067: pop r12; pop r13; pop r14; pop r15; ret; 
94187788802938: call qword ptr [rax]; 
94187788802937: out dx, eax; call qword ptr [rax]; 
94187788802936: mov edi, ebp; call qword ptr [rax]; 
94187788802935: mov rdi, rbp; call qword ptr [rax]; 
94187788802934: add byte ptr [rax - 0x77], cl; out dx, eax; call qword ptr [rax]; 
94187788802933: or dword ptr [rax], eax; mov rdi, rbp; call qword ptr [rax]; 
94187788802932: sti; or dword ptr [rax], eax; mov rdi, rbp; call qword ptr [rax]; 
94187788802931: or ebx, edi; or dword ptr [rax], eax; mov rdi, rbp; call qword ptr [rax]; 
94187788802930: add eax, 0x9fb09; mov rdi, rbp; call qword ptr [rax]; 
94187788802929: lea eax, dword ptr [rip + 0x9fb09]; mov rdi, rbp; call qword ptr [rax]; 
94187788802928: lea rax, qword ptr [rip + 0x9fb09]; mov rdi, rbp; call qword ptr [rax]; 
94187788802927: lea rax, qword ptr [rip + 0x9fb09]; mov rdi, rbp; call qword ptr [rax]; 
94187788802926: push rax; lea rax, qword ptr [rip + 0x9fb09]; mov rdi, rbp; call qword ptr [rax]; 
94187788802925: mov byte ptr [rax + 0x48], dl; lea rax, qword ptr [rip + 0x9fb09]; mov rdi, rbp; call qword ptr [rax]; 
94187788802923: or edx, ecx; mov byte ptr [rax + 0x48], dl; lea rax, qword ptr [rip + 0x9fb09]; mov rdi, rbp; call qword ptr [rax]; 
94187788800240: jmp qword ptr [rsi + 0x66]; 
94187788800713: jmp qword ptr [rsi + 0xf]; 
94187788800749: jmp qword ptr [rsi - 0x70]; 
94187788800973: jmp qword ptr [rsi - 0x70]; 
94187788802145: jmp qword ptr [rsi + 0xf]; 
94187788802179: jmp qword ptr [rsi + 0x66]; 
94187788802361: jmp qword ptr [rsi + 0xf]; 
94187788802393: jmp qword ptr [rsi + 0xf]; 
94187788803097: jmp qword ptr [rsi + 0xf]; 
94187788803300: jmp qword ptr [rsi + 0x66]; 
94187788803299: clc; jmp qword ptr [rsi + 0x66]; 
94187788803298: xor eax, edi; jmp qword ptr [rsi + 0x66]; 
94187788803297: stosd dword ptr [rdi], eax; xor eax, edi; jmp qword ptr [rsi + 0x66]; 
94187788803292: mov ecx, 0xe8fffffe; stosd dword ptr [rdi], eax; xor eax, edi; jmp qword ptr [rsi + 0x66]; 
94187788803290: add cl, ch; mov ecx, 0xe8fffffe; stosd dword ptr [rdi], eax; xor eax, edi; jmp qword ptr [rsi + 0x66]; 
94187788803583: call qword ptr [rax + 0x10]; 
94187788803581: mov edi, eax; call qword ptr [rax + 0x10]; 
94187788803580: mov rdi, rax; call qword ptr [rax + 0x10]; 
94187788803577: mov eax, dword ptr [rax + 8]; mov rdi, rax; call qword ptr [rax + 0x10]; 
94187788803576: mov rax, qword ptr [rax + 8]; mov rdi, rax; call qword ptr [rax + 0x10]; 
94187788803574: add byte ptr [rax], dl; mov rax, qword ptr [rax + 8]; mov rdi, rax; call qword ptr [rax + 0x10]; 
94187788803572: add byte ptr [rax], al; add byte ptr [rax], dl; mov rax, qword ptr [rax + 8]; mov rdi, rax; call qword ptr [rax + 0x10]; 
94187788803702: call qword ptr [rax + 0x18]; 
94187788803699: mov edx, dword ptr [rax + 0x10]; call qword ptr [rax + 0x18]; 
94187788803698: mov rdx, qword ptr [rax + 0x10]; call qword ptr [rax + 0x18]; 
94187788803695: mov dword ptr [rbx + 0x20], edx; mov rdx, qword ptr [rax + 0x10]; call qword ptr [rax + 0x18]; 
94187788803694: mov qword ptr [rbx + 0x20], rdx; mov rdx, qword ptr [rax + 0x10]; call qword ptr [rax + 0x18]; 
94187788803691: mov edx, dword ptr [rbp]; mov qword ptr [rbx + 0x20], rdx; mov rdx, qword ptr [rax + 0x10]; call qword ptr [rax + 0x18]; 
94187788803690: mov rdx, qword ptr [r13]; mov qword ptr [rbx + 0x20], rdx; mov rdx, qword ptr [rax + 0x10]; call qword ptr [rax + 0x18]; 
94187788803687: mov dword ptr [rbx + 0x18], edx; mov rdx, qword ptr [r13]; mov qword ptr [rbx + 0x20], rdx; mov rdx, qword ptr [rax + 0x10]; call qword ptr [rax + 0x18]; 
94187788803686: mov qword ptr [rbx + 0x18], rdx; mov rdx, qword ptr [r13]; mov qword ptr [rbx + 0x20], rdx; mov rdx, qword ptr [rax + 0x10]; call qword ptr [rax + 0x18]; 
94187788800622: ret 0xff2; 
94187788800626: ret 0x8348; 
94187788800625: pop rcx; ret 0x8348; 
94187788800622: ret 0xff2; 
94187788800722: ret 0xe083; 
94187788800719: add byte ptr [rax - 0x77], cl; ret 0xe083; 
94187788800735: ret 0x48f2; 
94187788800740: ret 0xff2; 
94187788800735: ret 0x48f2; 
94187788800754: ret 0xe083; 
94187788800767: ret 0x48f2; 
94187788800772: ret 0xff2; 
94187788800767: ret 0x48f2; 
94187788800859: ret 0x8348; 
94187788801089: ret 0xff2; 
94187788801088: pop rcx; ret 0xff2; 
94187788801245: ret 0xf41; 
94187788803449: ret 0xdc75; 
94187788803490: ret 0x294c; 
94187788802334: call qword ptr [rax + 0x310d8d48]; 
94187788802333: cld; call qword ptr [rax + 0x310d8d48]; 
94187788802331: adc ecx, eax; cld; call qword ptr [rax + 0x310d8d48]; 
94187788604129: ret; 
94187788604127: add ecx, ebp; ret; 
94187788604126: rol byte ptr [rcx], 0xe9; ret; 
94187788604123: or byte ptr [rax - 0x7d], 0xc0; add ecx, ebp; ret; 
94187788604121: add byte ptr [rax], al; or byte ptr [rax - 0x7d], 0xc0; add ecx, ebp; ret; 
94187788604119: adc al, 5; add byte ptr [rax], al; or byte ptr [rax - 0x7d], 0xc0; add ecx, ebp; ret; 
94187788604521: ret; 
94187788605531: ret; 
94187788605530: pop rbp; ret; 
94187788605529: pop r13; ret; 
94187788605528: pop rsp; pop r13; ret; 
94187788605527: pop r12; pop r13; ret; 
94187788605526: pop rbp; pop r12; pop r13; ret; 
94187788605525: pop rbx; pop rbp; pop r12; pop r13; ret; 
94187788605524: add byte ptr [rbx + 0x5d], bl; pop r12; pop r13; ret; 
94187788605844: ret; 
94187788605843: pop rbp; ret; 
94187788605842: pop r13; ret; 
94187788605841: pop rsp; pop r13; ret; 
94187788605840: pop r12; pop r13; ret; 
94187788605839: add byte ptr [rcx + 0x5c], al; pop r13; ret; 
94187788605838: add byte ptr [rax], al; pop r12; pop r13; ret; 
94187788605837: add eax, 0x5c410000; pop r13; ret; 
94187788605836: sub byte ptr [rip + 0x5c410000], al; pop r13; ret; 
94187788605835: cwde; sub byte ptr [rip + 0x5c410000], al; pop r13; ret; 
94187788605834: mov dword ptr [rax + 0x528], ebx; pop r12; pop r13; ret; 
94187788605833: mov qword ptr [r8 + 0x528], r11; pop r12; pop r13; ret; 
94187788605832: pop rbp; mov qword ptr [r8 + 0x528], r11; pop r12; pop r13; ret; 
94187788605831: add byte ptr [rbp + 0x4d], bl; mov dword ptr [rax + 0x528], ebx; pop r12; pop r13; ret; 
94187788606260: ret; 
94187788606259: pop rbp; ret; 
94187788606258: pop r13; ret; 
94187788606257: add byte ptr [rcx + 0x5d], al; ret; 
94187788606256: add byte ptr [rax], al; pop r13; ret; 
94187788606255: add byte ptr [rax], al; add byte ptr [rcx + 0x5d], al; ret; 
94187788606254: add byte ptr [rax], al; add byte ptr [rax], al; pop r13; ret; 
94187788606253: add byte ptr [rax], al; add byte ptr [rax], al; add byte ptr [rcx + 0x5d], al; ret; 
94187788606252: add byte ptr [rax], al; add byte ptr [rax], al; add byte ptr [rax], al; pop r13; ret; 
94187788606251: add eax, 0; add byte ptr [rax], al; pop r13; ret; 
94187788606250: and byte ptr [rip], al; add byte ptr [rax], al; pop r13; ret; 
94187788606404: ret; 
94187788607072: ret; 
94187788607071: pop rbp; ret; 
94187788607070: pop rbx; pop rbp; ret; 
94187788607068: xor eax, eax; pop rbx; pop rbp; ret; 
94187788607320: ret; 
94187788607317: nop dword ptr [rax]; ret; 
94187788607330: ret; 
94187788607328: xor eax, eax; ret; 
94187788607326: add byte ptr [rax], al; xor eax, eax; ret; 
94187788607324: add byte ptr [rax], al; add byte ptr [rax], al; xor eax, eax; ret; 
94187788607323: add byte ptr [rax], 0; add byte ptr [rax], al; xor eax, eax; ret; 
94187788607321: nop dword ptr [rax]; xor eax, eax; ret; 
94187788607320: ret; 
94187788603521: jmp rdx; 
94187788603519: add edx, esp; jmp rdx; 
94187788603518: add rdx, r12; jmp rdx; 
94187788603517: xchg eax, esp; add rdx, r12; jmp rdx; 
94187788603516: adc al, 0x94; add rdx, r12; jmp rdx; 
94187788603514: movsxd rdx, dword ptr [r12 + rdx*4]; add rdx, r12; jmp rdx; 
94187788603513: add byte ptr [rcx + 0x63], cl; adc al, 0x94; add rdx, r12; jmp rdx; 
94187788603512: add byte ptr [rax], al; movsxd rdx, dword ptr [r12 + rdx*4]; add rdx, r12; jmp rdx; 
94187788603509: xchg dword ptr [rbp + 6], eax; add byte ptr [rax], al; movsxd rdx, dword ptr [r12 + rdx*4]; add rdx, r12; jmp rdx; 
94187788603746: jmp rcx; 
94187788603745: stc; jmp rcx; 
94187788603744: add ecx, edi; jmp rcx; 
94187788603743: add rcx, r15; jmp rcx; 
94187788603741: or al, 0x8f; add rcx, r15; jmp rcx; 
94187788603739: movsxd rcx, dword ptr [r15 + rcx*4]; add rcx, r15; jmp rcx; 
94187788603738: leave; movsxd rcx, dword ptr [r15 + rcx*4]; add rcx, r15; jmp rcx; 
94187788603737: mov dh, 0xc9; movsxd rcx, dword ptr [r15 + rcx*4]; add rcx, r15; jmp rcx; 
94187788603736: movzx ecx, cl; movsxd rcx, dword ptr [r15 + rcx*4]; add rcx, r15; jmp rcx; 
94187788603735: add byte ptr [rdi], cl; mov dh, 0xc9; movsxd rcx, dword ptr [r15 + rcx*4]; add rcx, r15; jmp rcx; 
94187788605215: jmp rsi; 
94187788605213: add esi, edi; jmp rsi; 
94187788605212: add rsi, rdi; jmp rsi; 
94187788605211: mov bh, 0x48; add esi, edi; jmp rsi; 
94187788605210: xor al, 0xb7; add rsi, rdi; jmp rsi; 
94187788605208: movsxd rsi, dword ptr [rdi + rsi*4]; add rsi, rdi; jmp rsi; 
94187788605207: test byte ptr [rax + 0x63], 0x34; mov bh, 0x48; add esi, edi; jmp rsi; 
94187788605206: mov esi, esi; movsxd rsi, dword ptr [rdi + rsi*4]; add rsi, rdi; jmp rsi; 
94187788605205: add byte ptr [rcx + 0x346348f6], cl; mov bh, 0x48; add esi, edi; jmp rsi; 
94187788605203: rol byte ptr [rsi], cl; add byte ptr [rcx + 0x346348f6], cl; mov bh, 0x48; add esi, edi; jmp rsi; 
94187788605201: cmp eax, 0x6d27a; mov esi, esi; movsxd rsi, dword ptr [rdi + rsi*4]; add rsi, rdi; jmp rsi; 
94187788605200: lea edi, dword ptr [rip + 0x6d27a]; mov esi, esi; movsxd rsi, dword ptr [rdi + rsi*4]; add rsi, rdi; jmp rsi; 
94187788605199: lea rdi, qword ptr [rip + 0x6d27a]; mov esi, esi; movsxd rsi, dword ptr [rdi + rsi*4]; add rsi, rdi; jmp rsi; 
94187788606866: jmp rcx; 
94187788606864: add ecx, ebx; jmp rcx; 
94187788606863: add rcx, r11; jmp rcx; 
94187788606862: mov ecx, dword ptr [rcx + rax - 0x27]; jmp rcx; 
94187788606861: or al, 0x8b; add rcx, r11; jmp rcx; 
94187788606859: movsxd rcx, dword ptr [r11 + rcx*4]; add rcx, r11; jmp rcx; 
94187788606858: leave; movsxd rcx, dword ptr [r11 + rcx*4]; add rcx, r11; jmp rcx; 
94187788606857: mov dh, 0xc9; movsxd rcx, dword ptr [r11 + rcx*4]; add rcx, r11; jmp rcx; 
94187788606856: movzx ecx, cl; movsxd rcx, dword ptr [r11 + rcx*4]; add rcx, r11; jmp rcx; 
94187788606850: and byte ptr [rax + 0x78771ff9], al; movzx ecx, cl; movsxd rcx, dword ptr [r11 + rcx*4]; add rcx, r11; jmp rcx; 
94187788607026: jmp rcx; 
94187788607024: add ecx, edx; jmp rcx; 
94187788607023: add rcx, r10; jmp rcx; 
94187788607022: mov cl, byte ptr [rcx + rax - 0x2f]; jmp rcx; 
94187788607021: or al, 0x8a; add rcx, r10; jmp rcx; 
94187788607019: movsxd rcx, dword ptr [r10 + rcx*4]; add rcx, r10; jmp rcx; 
94187788607018: leave; movsxd rcx, dword ptr [r10 + rcx*4]; add rcx, r10; jmp rcx; 
94187788607017: mov dh, 0xc9; movsxd rcx, dword ptr [r10 + rcx*4]; add rcx, r10; jmp rcx; 
94187788607016: movzx ecx, cl; movsxd rcx, dword ptr [r10 + rcx*4]; add rcx, r10; jmp rcx; 
94187788607015: sbb byte ptr [rdi], cl; mov dh, 0xc9; movsxd rcx, dword ptr [r10 + rcx*4]; add rcx, r10; jmp rcx; 
94187788607010: and byte ptr [rax + 0x18771ff9], al; movzx ecx, cl; movsxd rcx, dword ptr [r10 + rcx*4]; add rcx, r10; jmp rcx; 
94187788603445: jmp qword ptr [rsi + 0x2e]; 
94187788603469: jmp qword ptr [rsi - 0x70]; 
94187788603541: jmp qword ptr [rsi + 0x2e]; 
94187788603590: jmp qword ptr [rsi + 0xf]; 
94187788603617: jmp qword ptr [rsi + 0xf]; 
94187788603614: xabort -1; jmp qword ptr [rsi + 0xf]; 
94187788603612: add ecx, ebp; xabort -1; jmp qword ptr [rsi + 0xf]; 
94187788603611: rol byte ptr [rcx], 0xe9; xabort -1; jmp qword ptr [rsi + 0xf]; 
94187788603608: dec dword ptr [rax - 0x7d]; rol byte ptr [rcx], 0xe9; xabort -1; jmp qword ptr [rsi + 0xf]; 
94187788603685: jmp qword ptr [rsi + 0x2e]; 
94187788603814: jmp qword ptr [rsi + 0xf]; 
94187788604537: jmp qword ptr [rsi - 0x7f]; 
94187788604742: jmp qword ptr [rsi + 0xf]; 
94187788604975: jmp qword ptr [rsi - 0x7f]; 
94187788606422: jmp qword ptr [rsi + 0xf]; 
94187788606453: jmp qword ptr [rsi + 0x2e]; 
94187788607206: jmp qword ptr [rsi + 0xf]; 
94187788603492: ret 0x8348; 
94187788603489: add byte ptr [rax - 0x77], cl; ret 0x8348; 
94187788603487: add eax, 0x89480000; ret 0x8348; 
94187788603641: ret 0x4802; 
94187788603638: add dword ptr [rax - 0x7d], ecx; ret 0x4802; 
94187788603637: add qword ptr [rax - 0x7d], rcx; ret 0x4802; 
94187788603634: add dword ptr [rax - 0x73], ecx; add qword ptr [rax - 0x7d], rcx; ret 0x4802; 
94187788604846: ret 0x4802; 
94187788604843: add dword ptr [rax - 0x7d], ecx; ret 0x4802; 
94187788604842: add qword ptr [rax - 0x7d], rcx; ret 0x4802; 
94187788604839: add dword ptr [rax - 0x73], ecx; add qword ptr [rax - 0x7d], rcx; ret 0x4802; 
94187788606050: ret 0xfffc; 
94187788606044: add byte ptr [rax - 0x7bf0c507], al; ret 0xfffc; 
94187788606042: add dword ptr [rax], eax; add byte ptr [rax - 0x7bf0c507], al; ret 0xfffc; 
94187788606040: test byte ptr [rbx], bh; add dword ptr [rax], eax; add byte ptr [rax - 0x7bf0c507], al; ret 0xfffc; 
94187788606035: mov ecx, 0xf5ff980; test byte ptr [rbx], bh; add dword ptr [rax], eax; add byte ptr [rax - 0x7bf0c507], al; ret 0xfffc; 
94187788607201: ret 0x7ee9; 
94187788607198: or byte ptr [rax - 0x77], cl; ret 0x7ee9; 
94187788607195: or byte ptr [rdi], 0xb6; or byte ptr [rax - 0x77], cl; ret 0x7ee9; 
94187788607189: add byte ptr [rax + 0x74c63948], al; or byte ptr [rdi], 0xb6; or byte ptr [rax - 0x77], cl; ret 0x7ee9; 
94187788607183: add byte ptr [rax + 0x5148f], al; add byte ptr [rax + 0x74c63948], al; or byte ptr [rdi], 0xb6; or byte ptr [rax - 0x77], cl; ret 0x7ee9; 
94187788604638: call qword ptr [rax - 0x67ef675]; 
94187788599892: ret; 
94187788599891: pop rdi; ret; 
94187788599890: pop r15; ret; 
94187788599889: pop rsi; pop r15; ret; 
94187788599888: pop r14; pop r15; ret; 
94187788599887: pop rbp; pop r14; pop r15; ret; 
94187788599886: pop r13; pop r14; pop r15; ret; 
94187788599885: pop rsp; pop r13; pop r14; pop r15; ret; 
94187788599884: pop r12; pop r13; pop r14; pop r15; ret; 
94187788600278: ret; 
94187788600277: pop rdi; ret; 
94187788600276: pop r15; ret; 
94187788600275: pop rsi; pop r15; ret; 
94187788600274: pop r14; pop r15; ret; 
94187788600273: pop rbp; pop r14; pop r15; ret; 
94187788600272: pop r13; pop r14; pop r15; ret; 
94187788600271: pop rsp; pop r13; pop r14; pop r15; ret; 
94187788600270: pop r12; pop r13; pop r14; pop r15; ret; 
94187788600300: ret; 
94187788601176: ret; 
94187788601175: pop rbp; ret; 
94187788601174: pop r13; ret; 
94187788601173: pop rsp; pop r13; ret; 
94187788601172: pop r12; pop r13; ret; 
94187788601171: pop rbp; pop r12; pop r13; ret; 
94187788601170: pop rbx; pop rbp; pop r12; pop r13; ret; 
94187788601169: sub byte ptr [rbx + 0x5d], bl; pop r12; pop r13; ret; 
94187788601802: ret; 
94187788601801: pop rdi; ret; 
94187788601800: pop r15; ret; 
94187788601799: pop rsi; pop r15; ret; 
94187788601798: pop r14; pop r15; ret; 
94187788601797: pop rbp; pop r14; pop r15; ret; 
94187788601796: pop r13; pop r14; pop r15; ret; 
94187788601795: pop rsp; pop r13; pop r14; pop r15; ret; 
94187788601794: pop r12; pop r13; pop r14; pop r15; ret; 
94187788601793: inc dword ptr [rcx + 0x5c]; pop r13; pop r14; pop r15; ret; 
94187788601857: ret; 
94187788601856: pop rdi; ret; 
94187788601855: pop r15; ret; 
94187788601854: pop rsi; pop r15; ret; 
94187788601853: pop r14; pop r15; ret; 
94187788601852: pop rbp; pop r14; pop r15; ret; 
94187788601851: pop r13; pop r14; pop r15; ret; 
94187788601850: pop rsp; pop r13; pop r14; pop r15; ret; 
94187788601849: pop r12; pop r13; pop r14; pop r15; ret; 
94187788603181: ret; 
94187788603180: pop rdi; ret; 
94187788603179: pop r15; ret; 
94187788603178: pop rsi; pop r15; ret; 
94187788603177: pop r14; pop r15; ret; 
94187788603176: pop rbp; pop r14; pop r15; ret; 
94187788603175: pop r13; pop r14; pop r15; ret; 
94187788603174: pop rsp; pop r13; pop r14; pop r15; ret; 
94187788603173: pop r12; pop r13; pop r14; pop r15; ret; 
94187788601711: jmp rsi; 
94187788602767: jmp rcx; 
94187788602765: add ecx, ebp; jmp rcx; 
94187788602764: add rcx, rbp; jmp rcx; 
94187788602762: lea eax, dword ptr [rax]; add rcx, rbp; jmp rcx; 
94187788602761: lea r8, qword ptr [rax]; add rcx, rbp; jmp rcx; 
94187788602759: movsxd rcx, dword ptr [rbp + rcx*4]; add rcx, rbp; jmp rcx; 
94187788602758: add byte ptr [rax + 0x63], cl; lea r8, qword ptr [rax]; add rcx, rbp; jmp rcx; 
94187788602757: add byte ptr [rax], al; movsxd rcx, dword ptr [rbp + rcx*4]; add rcx, rbp; jmp rcx; 
94187788602754: xchg dword ptr [rsi + rax], ebp; add byte ptr [rax + 0x63], cl; lea r8, qword ptr [rax]; add rcx, rbp; jmp rcx; 
94187788602942: jmp rcx; 
94187788602940: add ecx, ebx; jmp rcx; 
94187788602939: add rcx, rbx; jmp rcx; 
94187788602937: or al, 0x8b; add rcx, rbx; jmp rcx; 
94187788602935: movsxd rcx, dword ptr [rbx + rcx*4]; add rcx, rbx; jmp rcx; 
94187788602934: add byte ptr [rax + 0x63], cl; or al, 0x8b; add rcx, rbx; jmp rcx; 
94187788602933: add byte ptr [rax], al; movsxd rcx, dword ptr [rbx + rcx*4]; add rcx, rbx; jmp rcx; 
94187788602930: xchg dword ptr [rsi + 7], edx; add byte ptr [rax], al; movsxd rcx, dword ptr [rbx + rcx*4]; add rcx, rbx; jmp rcx; 
94187788602990: jmp rcx; 
94187788602988: add ecx, ebx; jmp rcx; 
94187788602987: add rcx, r11; jmp rcx; 
94187788602986: mov ecx, dword ptr [rcx + rax - 0x27]; jmp rcx; 
94187788602985: or al, 0x8b; add rcx, r11; jmp rcx; 
94187788602983: movsxd rcx, dword ptr [r11 + rcx*4]; add rcx, r11; jmp rcx; 
94187788602982: add byte ptr [rcx + 0x63], cl; or al, 0x8b; add rcx, r11; jmp rcx; 
94187788602981: add byte ptr [rax], al; movsxd rcx, dword ptr [r11 + rcx*4]; add rcx, r11; jmp rcx; 
94187788602979: sbb byte ptr [rdi], al; add byte ptr [rax], al; movsxd rcx, dword ptr [r11 + rcx*4]; add rcx, r11; jmp rcx; 
94187788599569: jmp qword ptr [rsi + 0xf]; 
94187788599601: jmp qword ptr [rsi + 0xf]; 
94187788599933: jmp qword ptr [rsi - 0x70]; 
94187788600013: jmp qword ptr [rsi - 0x70]; 
94187788600341: jmp qword ptr [rsi + 0x2e]; 
94187788600902: jmp qword ptr [rsi + 0xf]; 
94187788600989: jmp qword ptr [rsi - 0x70]; 
94187788601024: jmp qword ptr [rsi + 0x66]; 
94187788601350: jmp qword ptr [rsi + 0xf]; 
94187788601497: jmp qword ptr [rsi + 0xf]; 
94187788601521: jmp qword ptr [rsi + 0xf]; 
94187788601588: jmp qword ptr [rsi + 0x2e]; 
94187788601587: sti; jmp qword ptr [rsi + 0x2e]; 
94187788601586: sti; jmp qword ptr [rsi + 0x2e]; 
94187788601585: wait; sti; jmp qword ptr [rsi + 0x2e]; 
94187788602353: jmp qword ptr [rsi + 0xf]; 
94187788602465: jmp qword ptr [rsi + 0xf]; 
94187788602517: jmp qword ptr [rsi + 0x2e]; 
94187788602550: jmp qword ptr [rsi + 0xf]; 
94187788602582: jmp qword ptr [rsi + 0xf]; 
94187788602614: jmp qword ptr [rsi + 0xf]; 
94187788602646: jmp qword ptr [rsi + 0xf]; 
94187788602709: jmp qword ptr [rsi + 0x2e]; 
94187788602829: jmp qword ptr [rsi - 0x70]; 
94187788603045: jmp qword ptr [rsi + 0x2e]; 
94187788603205: jmp qword ptr [rsi + 0x2e]; 
94187788603241: jmp qword ptr [rsi + 0xf]; 
94187788603297: jmp qword ptr [rsi + 0xf]; 
94187788603349: jmp qword ptr [rsi + 0x2e]; 
94187788599463: call qword ptr [rbx + 0x20]; 
94187788599461: add byte ptr [rax], al; call qword ptr [rbx + 0x20]; 
94187788599459: add byte ptr [rax], al; add byte ptr [rax], al; call qword ptr [rbx + 0x20]; 
94187788599457: mov dword ptr [rax], 0; call qword ptr [rbx + 0x20]; 
94187788599455: mov edi, eax; mov dword ptr [rax], 0; call qword ptr [rbx + 0x20]; 
94187788599454: mov r15, rax; mov dword ptr [rax], 0; call qword ptr [rbx + 0x20]; 
94187788599452: mov edi, ebx; mov r15, rax; mov dword ptr [rax], 0; call qword ptr [rbx + 0x20]; 
94187788599451: mov rdi, rbx; mov r15, rax; mov dword ptr [rax], 0; call qword ptr [rbx + 0x20]; 
94187788599450: test byte ptr [rax - 0x77], 0xdf; mov r15, rax; mov dword ptr [rax], 0; call qword ptr [rbx + 0x20]; 
94187788599449: mov esi, esi; mov rdi, rbx; mov r15, rax; mov dword ptr [rax], 0; call qword ptr [rbx + 0x20]; 
94187788599448: mov rsi, r14; mov rdi, rbx; mov r15, rax; mov dword ptr [rax], 0; call qword ptr [rbx + 0x20]; 
94187788601320: call qword ptr [rax + 8]; 
94187788601318: mov edi, esp; call qword ptr [rax + 8]; 
94187788601317: mov rdi, r12; call qword ptr [rax + 8]; 
94187788601316: add byte ptr [rcx + rcx*4 - 0x19], cl; call qword ptr [rax + 8]; 
94187788601315: add byte ptr [rax], al; mov rdi, r12; call qword ptr [rax + 8]; 
94187788601314: and byte ptr [rax], al; add byte ptr [rcx + rcx*4 - 0x19], cl; call qword ptr [rax + 8]; 
94187788601313: add dword ptr [rax], esp; add byte ptr [rax], al; mov rdi, r12; call qword ptr [rax + 8]; 
94187788601312: mov esi, 0x2001; mov rdi, r12; call qword ptr [rax + 8]; 
94187788601311: sar byte ptr [rsi + 0x2001], cl; mov rdi, r12; call qword ptr [rax + 8]; 
94187788601310: xor edx, edx; mov esi, 0x2001; mov rdi, r12; call qword ptr [rax + 8]; 
94187788601309: add byte ptr [rcx], dh; sar byte ptr [rsi + 0x2001], cl; mov rdi, r12; call qword ptr [rax + 8]; 
94187788601308: or al, 0; xor edx, edx; mov esi, 0x2001; mov rdi, r12; call qword ptr [rax + 8]; 
94187788601307: or al, 0; xor edx, edx; mov esi, 0x2001; mov rdi, r12; call qword ptr [rax + 8]; 
94187788601306: or al, 0; xor edx, edx; mov esi, 0x2001; mov rdi, r12; call qword ptr [rax + 8]; 
94187788601305: add eax, 0xc4c42; xor edx, edx; mov esi, 0x2001; mov rdi, r12; call qword ptr [rax + 8]; 
94187788601304: lea eax, dword ptr [rip + 0xc4c42]; xor edx, edx; mov esi, 0x2001; mov rdi, r12; call qword ptr [rax + 8]; 
94187788601303: lea rax, qword ptr [rip + 0xc4c42]; xor edx, edx; mov esi, 0x2001; mov rdi, r12; call qword ptr [rax + 8]; 
94187788603135: ret 0x8948; 
94187788603171: ret 0x415d; 
94187788602158: call qword ptr [rax - 0xbf72b4]; 
94187788595831: ret; 
94187788595830: pop rbp; ret; 
94187788595829: pop r13; ret; 
94187788595828: pop rsp; pop r13; ret; 
94187788595827: pop r12; pop r13; ret; 
94187788595826: pop rbp; pop r12; pop r13; ret; 
94187788595825: pop rbx; pop rbp; pop r12; pop r13; ret; 
94187788595824: sub byte ptr [rbx + 0x5d], bl; pop r12; pop r13; ret; 
94187788597033: ret; 
94187788597032: movsb byte ptr [rdi], byte ptr [rsi]; ret; 
94187788597030: fucompi st(0); movsb byte ptr [rdi], byte ptr [rsi]; ret; 
94187788597027: dec dword ptr [rax - 0x77]; fucompi st(0); movsb byte ptr [rdi], byte ptr [rsi]; ret; 
94187788597026: cld; dec dword ptr [rax - 0x77]; fucompi st(0); movsb byte ptr [rdi], byte ptr [rsi]; ret; 
94187788597313: ret; 
94187788597312: pop rsi; ret; 
94187788597311: pop r14; ret; 
94187788597310: pop rbp; pop r14; ret; 
94187788597309: pop r13; pop r14; ret; 
94187788597308: pop rsp; pop r13; pop r14; ret; 
94187788597307: pop r12; pop r13; pop r14; ret; 
94187788597306: pop rbp; pop r12; pop r13; pop r14; ret; 
94187788597872: ret; 
94187788597871: pop rsp; ret; 
94187788597870: pop r12; ret; 
94187788597869: pop rbp; pop r12; ret; 
94187788597868: pop rbx; pop rbp; pop r12; ret; 
94187788597867: and byte ptr [rbx + 0x5d], bl; pop r12; ret; 
94187788597865: add esp, 0x20; pop rbx; pop rbp; pop r12; ret; 
94187788597864: add rsp, 0x20; pop rbx; pop rbp; pop r12; ret; 
94187788598328: ret; 
94187788598327: pop rdi; ret; 
94187788598326: pop r15; ret; 
94187788598325: pop rsi; pop r15; ret; 
94187788598324: pop r14; pop r15; ret; 
94187788598323: pop rbp; pop r14; pop r15; ret; 
94187788598322: pop r13; pop r14; pop r15; ret; 
94187788598321: pop rsp; pop r13; pop r14; pop r15; ret; 
94187788598320: pop r12; pop r13; pop r14; pop r15; ret; 
94187788598995: ret; 
94187788595305: jmp qword ptr [rsi + 0xf]; 
94187788595652: jmp qword ptr [rsi + 0x66]; 
94187788596194: jmp qword ptr [rsi + 0xf]; 
94187788596417: jmp qword ptr [rsi + 0xf]; 
94187788597169: jmp qword ptr [rsi + 0xf]; 
94187788597201: jmp qword ptr [rsi + 0xf]; 
94187788598034: jmp qword ptr [rsi + 0x66]; 
94187788598033: sti; jmp qword ptr [rsi + 0x66]; 
94187788598032: push rbx; sti; jmp qword ptr [rsi + 0x66]; 
94187788598857: jmp qword ptr [rsi + 0xf]; 
94187788599017: jmp qword ptr [rsi + 0xf]; 
94187788599049: jmp qword ptr [rsi + 0xf]; 
94187788596906: call qword ptr [rbx + 0x20]; 
94187788596904: mov edi, ebx; call qword ptr [rbx + 0x20]; 
94187788596903: mov rdi, rbx; call qword ptr [rbx + 0x20]; 
94187788596902: mov rdi, rbx; call qword ptr [rbx + 0x20]; 
94187788596901: mov edx, esi; mov rdi, rbx; call qword ptr [rbx + 0x20]; 
94187788596900: mov rdx, r14; mov rdi, rbx; call qword ptr [rbx + 0x20]; 
94187788596899: or byte ptr [rcx + rcx*4 - 0xe], cl; mov rdi, rbx; call qword ptr [rbx + 0x20]; 
94187788596898: and al, 8; mov rdx, r14; mov rdi, rbx; call qword ptr [rbx + 0x20]; 
94187788596896: mov esi, dword ptr [rsp + 8]; mov rdx, r14; mov rdi, rbx; call qword ptr [rbx + 0x20]; 
94187788596895: mov rsi, qword ptr [r12 + 8]; mov rdx, r14; mov rdi, rbx; call qword ptr [rbx + 0x20]; 
94187788596893: add byte ptr [rax], al; mov rsi, qword ptr [r12 + 8]; mov rdx, r14; mov rdi, rbx; call qword ptr [rbx + 0x20]; 
94187788596891: mov ecx, 0x49000001; mov esi, dword ptr [rsp + 8]; mov rdx, r14; mov rdi, rbx; call qword ptr [rbx + 0x20]; 
94187788596890: test byte ptr [rcx + 0x49000001], bh; mov esi, dword ptr [rsp + 8]; mov rdx, r14; mov rdi, rbx; call qword ptr [rbx + 0x20]; 
94187788598799: call qword ptr [rbp + 0x20]; 
94187788598797: and al, 8; call qword ptr [rbp + 0x20]; 
94187788598796: and al, 8; call qword ptr [rbp + 0x20]; 
94187788598795: mov dword ptr [rsp + 8], ecx; call qword ptr [rbp + 0x20]; 
94187788598794: mov qword ptr [rsp + 8], rcx; call qword ptr [rbp + 0x20]; 
94187788598792: mov edx, ecx; mov qword ptr [rsp + 8], rcx; call qword ptr [rbp + 0x20]; 
94187788598791: mov rdx, rcx; mov qword ptr [rsp + 8], rcx; call qword ptr [rbp + 0x20]; 
94187788598790: int1; mov rdx, rcx; mov qword ptr [rsp + 8], rcx; call qword ptr [rbp + 0x20]; 
94187788598789: sub ecx, esi; mov rdx, rcx; mov qword ptr [rsp + 8], rcx; call qword ptr [rbp + 0x20]; 
94187788598788: sub rcx, r14; mov rdx, rcx; mov qword ptr [rsp + 8], rcx; call qword ptr [rbp + 0x20]; 
94187788598787: out dx, eax; sub rcx, r14; mov rdx, rcx; mov qword ptr [rsp + 8], rcx; call qword ptr [rbp + 0x20]; 
94187788598786: mov edi, ebp; sub rcx, r14; mov rdx, rcx; mov qword ptr [rsp + 8], rcx; call qword ptr [rbp + 0x20]; 
94187788598785: mov rdi, rbp; sub rcx, r14; mov rdx, rcx; mov qword ptr [rsp + 8], rcx; call qword ptr [rbp + 0x20]; 
94187788598784: test byte ptr [rax - 0x77], 0xef; sub rcx, r14; mov rdx, rcx; mov qword ptr [rsp + 8], rcx; call qword ptr [rbp + 0x20]; 
94187788595941: ret 0x8948; 
94187788595965: ret 0x8948; 
94187788595962: adc cl, byte ptr [rax + 0x29]; ret 0x8948; 
94187788595975: ret 0xf748; 
94187788595972: add byte ptr [rax - 0x77], cl; ret 0xf748; 
94187788595970: add al, 0; add byte ptr [rax - 0x77], cl; ret 0xf748; 
94187788595965: ret 0x8948; 
94187788596041: ret 0x8948; 
94187788596038: add byte ptr [rax + 0x29], cl; ret 0x8948; 
94187788596036: add eax, 0x29480000; ret 0x8948; 
94187788596349: ret 0xfffd; 
94187788596945: ret 0x8949; 
94187788596942: or byte ptr [rax - 0x77], cl; ret 0x8949; 
94187788598176: ret 0xe86c; 
94187788597070: call qword ptr [rax + 0x50738b48]; 
94187788598894: call qword ptr [rax - 0x171076b8]; 
94187788598990: call qword ptr [rax - 0x3cf272b8]; 
94187788583156: ret; 
94187788583155: pop rbp; ret; 
94187788583154: pop r13; ret; 
94187788583153: pop rsp; pop r13; ret; 
94187788583152: pop r12; pop r13; ret; 
94187788583151: pop rbp; pop r12; pop r13; ret; 
94187788583150: pop rbx; pop rbp; pop r12; pop r13; ret; 
94187788583149: sbb byte ptr [rbx + 0x5d], bl; pop r12; pop r13; ret; 
94187788583644: ret; 
94187788583643: pop rsp; ret; 
94187788583642: pop r12; ret; 
94187788583641: pop rbp; pop r12; ret; 
94187788583640: pop rbx; pop rbp; pop r12; ret; 
94187788583639: add byte ptr [rbx + 0x5d], bl; pop r12; ret; 
94187788583638: add byte ptr [rbx + 0x5d], bl; pop r12; ret; 
94187788583636: nop dword ptr [rax]; pop rbx; pop rbp; pop r12; ret; 
94187788583739: ret; 
94187788583738: pop rsp; ret; 
94187788583737: pop r12; ret; 
94187788583736: pop rbp; pop r12; ret; 
94187788583735: pop rbx; pop rbp; pop r12; ret; 
94187788583734: rcr byte ptr [rbx + 0x5d], 0x41; pop rsp; ret; 
94187788583733: xor eax, eax; pop rbx; pop rbp; pop r12; ret; 
94187788583732: and byte ptr [rcx], dh; rcr byte ptr [rbx + 0x5d], 0x41; pop rsp; ret; 
94187788583985: ret; 
94187788584023: ret; 
94187788584022: pop rbp; ret; 
94187788584021: pop r13; ret; 
94187788584020: pop rsp; pop r13; ret; 
94187788584019: pop r12; pop r13; ret; 
94187788584018: pop rbp; pop r12; pop r13; ret; 
94187788584017: pop rbx; pop rbp; pop r12; pop r13; ret; 
94187788584016: or byte ptr [rbx + 0x5d], bl; pop r12; pop r13; ret; 
94187788584684: ret; 
94187788584683: pop rdi; ret; 
94187788584682: pop r15; ret; 
94187788584681: pop rsi; pop r15; ret; 
94187788584680: pop r14; pop r15; ret; 
94187788584679: pop rbp; pop r14; pop r15; ret; 
94187788584678: pop r13; pop r14; pop r15; ret; 
94187788584677: pop rsp; pop r13; pop r14; pop r15; ret; 
94187788584676: pop r12; pop r13; pop r14; pop r15; ret; 
94187788585224: ret; 
94187788585263: ret; 
94187788585494: ret; 
94187788585493: pop rdi; ret; 
94187788585492: pop r15; ret; 
94187788585491: pop rsi; pop r15; ret; 
94187788585490: pop r14; pop r15; ret; 
94187788585489: pop rbp; pop r14; pop r15; ret; 
94187788585488: pop r13; pop r14; pop r15; ret; 
94187788585487: pop rsp; pop r13; pop r14; pop r15; ret; 
94187788585486: pop r12; pop r13; pop r14; pop r15; ret; 
94187788585846: ret; 
94187788585845: pop rbx; ret; 
94187788585842: sal byte ptr [rbp + 0x2b], 0x5b; ret; 
94187788585839: or byte ptr [rax - 0x7b], cl; sal byte ptr [rbp + 0x2b], 0x5b; ret; 
94187788585838: push rax; or byte ptr [rax - 0x7b], cl; sal byte ptr [rbp + 0x2b], 0x5b; ret; 
94187788585836: add bh, bh; push rax; or byte ptr [rax - 0x7b], cl; sal byte ptr [rbp + 0x2b], 0x5b; ret; 
94187788585955: ret; 
94187788585952: dec dword ptr [rax - 0x77]; ret; 
94187788585951: sti; dec dword ptr [rax - 0x77]; ret; 
94187788585950: mov bl, bh; dec dword ptr [rax - 0x77]; ret; 
94187788585945: add byte ptr [rbx - 0x778017d0], cl; sti; dec dword ptr [rax - 0x77]; ret; 
94187788585942: mov cl, byte ptr [rdx + 0xd]; add byte ptr [rbx - 0x778017d0], cl; sti; dec dword ptr [rax - 0x77]; ret; 
94187788586005: ret; 
94187788586004: pop rdi; ret; 
94187788586003: pop r15; ret; 
94187788586002: pop rsi; pop r15; ret; 
94187788586001: pop r14; pop r15; ret; 
94187788586000: pop rbp; pop r14; pop r15; ret; 
94187788585999: pop r13; pop r14; pop r15; ret; 
94187788585998: pop rsp; pop r13; pop r14; pop r15; ret; 
94187788585997: pop r12; pop r13; pop r14; pop r15; ret; 
94187788582972: call rax; 
94187788582970: jnp 0x55a9cdae4044; call rax; 
94187788582969: mov edi, dword ptr [rbx + 8]; call rax; 
94187788582968: mov rdi, qword ptr [rbx + 8]; call rax; 
94187788582965: sal byte ptr [rsi + rax + 0x48], 0x8b; jnp 0x55a9cdae4044; call rax; 
94187788582962: add ecx, dword ptr [rax - 0x7b]; sal byte ptr [rsi + rax + 0x48], 0x8b; jnp 0x55a9cdae4044; call rax; 
94187788582959: add byte ptr [rax - 0x75], cl; add ecx, dword ptr [rax - 0x7b]; sal byte ptr [rsi + rax + 0x48], 0x8b; jnp 0x55a9cdae4044; call rax; 
94187788583932: call rax; 
94187788583930: jnp 0x55a9cdae4404; call rax; 
94187788583929: mov edi, dword ptr [rbx + 8]; call rax; 
94187788583928: mov rdi, qword ptr [rbx + 8]; call rax; 
94187788583925: sal byte ptr [rsi + rax + 0x48], 0x8b; jnp 0x55a9cdae4404; call rax; 
94187788583922: add ecx, dword ptr [rax - 0x7b]; sal byte ptr [rsi + rax + 0x48], 0x8b; jnp 0x55a9cdae4404; call rax; 
94187788583919: add byte ptr [rax - 0x75], cl; add ecx, dword ptr [rax - 0x7b]; sal byte ptr [rsi + rax + 0x48], 0x8b; jnp 0x55a9cdae4404; call rax; 
94187788583475: jmp qword ptr [rsi + 0x66]; 
94187788583474: sti; jmp qword ptr [rsi + 0x66]; 
94187788583689: jmp qword ptr [rsi + 0xf]; 
94187788584097: jmp qword ptr [rsi + 0xf]; 
94187788584230: jmp qword ptr [rsi + 0xf]; 
94187788584432: jmp qword ptr [rsi + 0x66]; 
94187788584430: idiv edi; jmp qword ptr [rsi + 0x66]; 
94187788584781: jmp qword ptr [rsi - 0x70]; 
94187788584918: jmp qword ptr [rsi + 0xf]; 
94187788585072: jmp qword ptr [rsi + 0x66]; 
94187788586325: jmp qword ptr [rsi + 0x2e]; 
94187788586829: jmp qword ptr [rsi - 0x70]; 
94187788584318: call qword ptr [rbp + 0x30]; 
94187788584315: add dword ptr [rbp + 0x12], esi; call qword ptr [rbp + 0x30]; 
94187788584313: and al, 8; add dword ptr [rbp + 0x12], esi; call qword ptr [rbp + 0x30]; 
94187788584312: and al, 8; add dword ptr [rbp + 0x12], esi; call qword ptr [rbp + 0x30]; 
94187788584336: call qword ptr [rbp + 0x38]; 
94187788584333: nop dword ptr [rax]; call qword ptr [rbp + 0x38]; 
94187788585254: call qword ptr [rbp + 0x20]; 
94187788585837: call qword ptr [rax + 8]; 
94187788585835: add byte ptr [rax], al; call qword ptr [rax + 8]; 
94187788585833: add dword ptr [rax], esp; add byte ptr [rax], al; call qword ptr [rax + 8]; 
94187788585832: mov esi, 0x2001; call qword ptr [rax + 8]; 
94187788585831: sar byte ptr [rsi + 0x2001], cl; call qword ptr [rax + 8]; 
94187788585830: xor edx, edx; mov esi, 0x2001; call qword ptr [rax + 8]; 
94187788585829: add byte ptr [rcx], dh; sar byte ptr [rsi + 0x2001], cl; call qword ptr [rax + 8]; 
94187788585828: or al, 0; xor edx, edx; mov esi, 0x2001; call qword ptr [rax + 8]; 
94187788585827: mov byte ptr [rax + rax], cl; xor edx, edx; mov esi, 0x2001; call qword ptr [rax + 8]; 
94187788585826: mov edx, 0x31000c88; sar byte ptr [rsi + 0x2001], cl; call qword ptr [rax + 8]; 
94187788585825: add eax, 0xc88ba; xor edx, edx; mov esi, 0x2001; call qword ptr [rax + 8]; 
94187788585824: lea eax, dword ptr [rip + 0xc88ba]; xor edx, edx; mov esi, 0x2001; call qword ptr [rax + 8]; 
94187788585823: lea rax, qword ptr [rip + 0xc88ba]; xor edx, edx; mov esi, 0x2001; call qword ptr [rax + 8]; 
94187788585820: or byte ptr [rsi + rdx + 0x48], dh; lea eax, dword ptr [rip + 0xc88ba]; xor edx, edx; mov esi, 0x2001; call qword ptr [rax + 8]; 
94187788583228: ret 0; 
94187788583222: inc dword ptr [rbx - 0x7bf00008]; ret 0; 
94187788583221: sti; inc dword ptr [rbx - 0x7bf00008]; ret 0; 
94187788583220: test bl, bh; inc dword ptr [rbx - 0x7bf00008]; ret 0; 
94187788584290: ret 0xe283; 
94187788585548: ret 0x12b; 
94187788584350: call qword ptr [rax - 0x3fce2dcf]; 
94187788585902: call qword ptr [rax + 0x56415741]; 
94187788585900: idiv bh; call qword ptr [rax + 0x56415741]; 
94187788585899: xchg eax, ecx; idiv bh; call qword ptr [rax + 0x56415741]; 
94187788585896: neg byte ptr [rbx - 0x17]; xchg eax, ecx; idiv bh; call qword ptr [rax + 0x56415741]; 
94187788585894: add byte ptr [rcx], dh; neg byte ptr [rbx - 0x17]; xchg eax, ecx; idiv bh; call qword ptr [rax + 0x56415741]; 
94187788607641: ret; 
94187788607640: pop rdi; ret; 
94187788607639: pop r15; ret; 
94187788607638: pop rsi; pop r15; ret; 
94187788607637: pop r14; pop r15; ret; 
94187788607636: pop rbp; pop r14; pop r15; ret; 
94187788607635: pop r13; pop r14; pop r15; ret; 
94187788607634: pop rsp; pop r13; pop r14; pop r15; ret; 
94187788607633: pop r12; pop r13; pop r14; pop r15; ret; 
94187788609420: ret; 
94187788609418: add byte ptr [rax], al; ret; 
94187788609416: add byte ptr [rax], al; add byte ptr [rax], al; ret; 
94187788609414: add byte ptr [rax], al; add byte ptr [rax], al; add byte ptr [rax], al; ret; 
94187788609413: add eax, 0; add byte ptr [rax], al; ret; 
94187788609412: and byte ptr [rip], al; add byte ptr [rax], al; ret; 
94187788609411: xchg dword ptr [rax], esp; add eax, 0; add byte ptr [rax], al; ret; 
94187788609410: mov dword ptr [rdi + 0x520], 0; ret; 
94187788609409: mov qword ptr [rdi + 0x520], 0; ret; 
94187788609408: ror byte ptr [rax - 0x39], 0x87; and byte ptr [rip], al; add byte ptr [rax], al; ret; 
94187788609407: xor eax, eax; mov qword ptr [rdi + 0x520], 0; ret; 
94187788609406: add dh, byte ptr [rcx]; ror byte ptr [rax - 0x39], 0x87; and byte ptr [rip], al; add byte ptr [rax], al; ret; 
94187788609405: mov dword ptr [rdx], eax; xor eax, eax; mov qword ptr [rdi + 0x520], 0; ret; 
94187788609404: mov qword ptr [rdx], rax; xor eax, eax; mov qword ptr [rdi + 0x520], 0; ret; 
94187788609403: cwde; mov qword ptr [rdx], rax; xor eax, eax; mov qword ptr [rdi + 0x520], 0; ret; 
94187788609402: cdqe; mov qword ptr [rdx], rax; xor eax, eax; mov qword ptr [rdi + 0x520], 0; ret; 
94187788609543: ret; 
94187788609537: mov eax, 0xffffffff; ret; 
94187788609536: mov rax, -1; ret; 
94187788609585: ret; 
94187788609583: add byte ptr [rax], al; ret; 
94187788609579: mov dword ptr [rdi + 0x520], ecx; ret; 
94187788609578: mov qword ptr [rdi + 0x520], r9; ret; 
94187788609572: mov eax, 0xfffffffe; mov qword ptr [rdi + 0x520], r9; ret; 
94187788609571: mov rax, -2; mov qword ptr [rdi + 0x520], r9; ret; 
94187788609569: mov dword ptr [rsi], ecx; mov rax, -2; mov qword ptr [rdi + 0x520], r9; ret; 
94187788609568: mov qword ptr [rsi], rcx; mov rax, -2; mov qword ptr [rdi + 0x520], r9; ret; 
94187788609567: leave; mov qword ptr [rsi], rcx; mov rax, -2; mov qword ptr [rdi + 0x520], r9; ret; 
94187788609566: mov ecx, ecx; mov qword ptr [rsi], rcx; mov rax, -2; mov qword ptr [rdi + 0x520], r9; ret; 
94187788609565: mov r9d, r9d; mov qword ptr [rsi], rcx; mov rax, -2; mov qword ptr [rdi + 0x520], r9; ret; 
94187788610382: ret; 
94187788610381: pop rdi; ret; 
94187788610380: pop r15; ret; 
94187788610379: pop rsi; pop r15; ret; 
94187788610378: pop r14; pop r15; ret; 
94187788610377: pop rbp; pop r14; pop r15; ret; 
94187788610376: pop r13; pop r14; pop r15; ret; 
94187788610375: pop rsp; pop r13; pop r14; pop r15; ret; 
94187788610374: pop r12; pop r13; pop r14; pop r15; ret; 
94187788611058: ret; 
94187788611057: pop rdi; ret; 
94187788611056: pop r15; ret; 
94187788611055: pop rsi; pop r15; ret; 
94187788611054: pop r14; pop r15; ret; 
94187788611053: pop rbp; pop r14; pop r15; ret; 
94187788611052: pop r13; pop r14; pop r15; ret; 
94187788611051: pop rsp; pop r13; pop r14; pop r15; ret; 
94187788611050: pop r12; pop r13; pop r14; pop r15; ret; 
94187788611497: ret; 
94187788611496: pop rdi; ret; 
94187788611495: pop r15; ret; 
94187788611494: pop rsi; pop r15; ret; 
94187788611493: pop r14; pop r15; ret; 
94187788611492: pop rbp; pop r14; pop r15; ret; 
94187788611491: pop r13; pop r14; pop r15; ret; 
94187788611490: pop rsp; pop r13; pop r14; pop r15; ret; 
94187788611489: pop r12; pop r13; pop r14; pop r15; ret; 
94187788611533: ret; 
94187788611532: pop rdi; ret; 
94187788611531: pop r15; ret; 
94187788611530: pop rsi; pop r15; ret; 
94187788611529: pop r14; pop r15; ret; 
94187788611528: pop rbp; pop r14; pop r15; ret; 
94187788611527: pop r13; pop r14; pop r15; ret; 
94187788611526: pop rsp; pop r13; pop r14; pop r15; ret; 
94187788611525: pop r12; pop r13; pop r14; pop r15; ret; 
94187788607493: jmp rax; 
94187788607492: clc; jmp rax; 
94187788607491: add eax, edi; jmp rax; 
94187788607490: add rax, r15; jmp rax; 
94187788607489: xchg dword ptr [rcx + rax - 8], ecx; jmp rax; 
94187788607488: add al, 0x87; add rax, r15; jmp rax; 
94187788607709: jmp rax; 
94187788607707: add eax, edx; jmp rax; 
94187788607706: add rax, rdx; jmp rax; 
94187788607704: add al, 0x82; add rax, rdx; jmp rax; 
94187788607702: movsxd rax, dword ptr [rdx + rax*4]; add rax, rdx; jmp rax; 
94187788607700: mov dh, 0xc0; movsxd rax, dword ptr [rdx + rax*4]; add rax, rdx; jmp rax; 
94187788607699: movzx eax, al; movsxd rax, dword ptr [rdx + rax*4]; add rax, rdx; jmp rax; 
94187788607698: add byte ptr [rdi], cl; mov dh, 0xc0; movsxd rax, dword ptr [rdx + rax*4]; add rax, rdx; jmp rax; 
94187788607694: adc eax, 0x6c9f5; movzx eax, al; movsxd rax, dword ptr [rdx + rax*4]; add rax, rdx; jmp rax; 
94187788607693: lea edx, dword ptr [rip + 0x6c9f5]; movzx eax, al; movsxd rax, dword ptr [rdx + rax*4]; add rax, rdx; jmp rax; 
94187788607692: lea rdx, qword ptr [rip + 0x6c9f5]; movzx eax, al; movsxd rax, dword ptr [rdx + rax*4]; add rax, rdx; jmp rax; 
94187788607773: jmp rax; 
94187788607771: add eax, edx; jmp rax; 
94187788607770: add rax, rdx; jmp rax; 
94187788607768: add al, 0x82; add rax, rdx; jmp rax; 
94187788607766: movsxd rax, dword ptr [rdx + rax*4]; add rax, rdx; jmp rax; 
94187788607764: mov dh, 0xc0; movsxd rax, dword ptr [rdx + rax*4]; add rax, rdx; jmp rax; 
94187788607763: movzx eax, al; movsxd rax, dword ptr [rdx + rax*4]; add rax, rdx; jmp rax; 
94187788607762: add byte ptr [rdi], cl; mov dh, 0xc0; movsxd rax, dword ptr [rdx + rax*4]; add rax, rdx; jmp rax; 
94187788607758: adc eax, 0x6ca29; movzx eax, al; movsxd rax, dword ptr [rdx + rax*4]; add rax, rdx; jmp rax; 
94187788607757: lea edx, dword ptr [rip + 0x6ca29]; movzx eax, al; movsxd rax, dword ptr [rdx + rax*4]; add rax, rdx; jmp rax; 
94187788607756: lea rdx, qword ptr [rip + 0x6ca29]; movzx eax, al; movsxd rax, dword ptr [rdx + rax*4]; add rax, rdx; jmp rax; 
94187788607837: jmp rax; 
94187788607835: add eax, edx; jmp rax; 
94187788607834: add rax, rdx; jmp rax; 
94187788607832: add al, 0x82; add rax, rdx; jmp rax; 
94187788607830: movsxd rax, dword ptr [rdx + rax*4]; add rax, rdx; jmp rax; 
94187788607828: mov dh, 0xc0; movsxd rax, dword ptr [rdx + rax*4]; add rax, rdx; jmp rax; 
94187788607827: movzx eax, al; movsxd rax, dword ptr [rdx + rax*4]; add rax, rdx; jmp rax; 
94187788607826: add byte ptr [rdi], cl; mov dh, 0xc0; movsxd rax, dword ptr [rdx + rax*4]; add rax, rdx; jmp rax; 
94187788607822: adc eax, 0x6ca5d; movzx eax, al; movsxd rax, dword ptr [rdx + rax*4]; add rax, rdx; jmp rax; 
94187788607821: lea edx, dword ptr [rip + 0x6ca5d]; movzx eax, al; movsxd rax, dword ptr [rdx + rax*4]; add rax, rdx; jmp rax; 
94187788607820: lea rdx, qword ptr [rip + 0x6ca5d]; movzx eax, al; movsxd rax, dword ptr [rdx + rax*4]; add rax, rdx; jmp rax; 
94187788608148: jmp rax; 
94187788608146: add eax, edx; jmp rax; 
94187788608145: add rax, rdx; jmp rax; 
94187788608143: add al, 0x82; add rax, rdx; jmp rax; 
94187788608141: movsxd rax, dword ptr [rdx + rax*4]; add rax, rdx; jmp rax; 
94187788608139: mov dh, 0xc0; movsxd rax, dword ptr [rdx + rax*4]; add rax, rdx; jmp rax; 
94187788608138: movzx eax, al; movsxd rax, dword ptr [rdx + rax*4]; add rax, rdx; jmp rax; 
94187788608137: add byte ptr [rdi], cl; mov dh, 0xc0; movsxd rax, dword ptr [rdx + rax*4]; add rax, rdx; jmp rax; 
94187788608133: adc eax, 0x6c99a; movzx eax, al; movsxd rax, dword ptr [rdx + rax*4]; add rax, rdx; jmp rax; 
94187788608132: lea edx, dword ptr [rip + 0x6c99a]; movzx eax, al; movsxd rax, dword ptr [rdx + rax*4]; add rax, rdx; jmp rax; 
94187788608131: lea rdx, qword ptr [rip + 0x6c99a]; movzx eax, al; movsxd rax, dword ptr [rdx + rax*4]; add rax, rdx; jmp rax; 
94187788608754: jmp rax; 
94187788608753: clc; jmp rax; 
94187788608752: add eax, edi; jmp rax; 
94187788608751: add rax, rdi; jmp rax; 
94187788608750: xchg dword ptr [rax + 1], ecx; clc; jmp rax; 
94187788608749: add al, 0x87; add rax, rdi; jmp rax; 
94187788608747: movsxd rax, dword ptr [rdi + rax*4]; add rax, rdi; jmp rax; 
94187788608746: add ecx, dword ptr [rax + 0x63]; add al, 0x87; add rax, rdi; jmp rax; 
94187788608745: and al, 3; movsxd rax, dword ptr [rdi + rax*4]; add rax, rdi; jmp rax; 
94187788608744: pop rsp; and al, 3; movsxd rax, dword ptr [rdi + rax*4]; add rax, rdi; jmp rax; 
94187788608743: mov dh, 0x5c; and al, 3; movsxd rax, dword ptr [rdi + rax*4]; add rax, rdi; jmp rax; 
94187788608742: movzx ebx, byte ptr [rsp + 3]; movsxd rax, dword ptr [rdi + rax*4]; add rax, rdi; jmp rax; 
94187788608741: movzx r11d, byte ptr [rsp + 3]; movsxd rax, dword ptr [rdi + rax*4]; add rax, rdi; jmp rax; 
94187788608825: jmp rcx; 
94187788608240: jmp qword ptr [rbx]; 
94187788607894: jmp qword ptr [rsi + 0xf]; 
94187788608113: jmp qword ptr [rsi + 0xf]; 
94187788608173: jmp qword ptr [rsi - 0x70]; 
94187788608422: jmp qword ptr [rsi + 0xf]; 
94187788608537: jmp qword ptr [rsi + 0xf]; 
94187788610313: jmp qword ptr [rsi + 0xf]; 
94187788610660: jmp qword ptr [rsi + 0x66]; 
94187788610659: sti; jmp qword ptr [rsi + 0x66]; 
94187788610658: and bh, bl; jmp qword ptr [rsi + 0x66]; 
94187788610657: sub esp, dword ptr [rdx]; sti; jmp qword ptr [rsi + 0x66]; 
94187788611200: jmp qword ptr [rsi + 0x66]; 
94187788611195: call 0x55a9cdae0769; jmp qword ptr [rsi + 0x66]; 
94187788608571: ret 0xfffd; 
94187788608948: ret 0x830f; 
94187788608945: add dword ptr [rbp + 0x39], ecx; ret 0x830f; 
94187788608944: push rcx; add dword ptr [rbp + 0x39], ecx; ret 0x830f; 
94187788608941: add byte ptr [rbp + rcx*4 + 0x51], cl; add dword ptr [rbp + 0x39], ecx; ret 0x830f; 
94187788608939: add al, byte ptr [rax]; add byte ptr [rbp + rcx*4 + 0x51], cl; add dword ptr [rbp + 0x39], ecx; ret 0x830f; 
94187788608938: push rdx; add al, byte ptr [rax]; add byte ptr [rbp + rcx*4 + 0x51], cl; add dword ptr [rbp + 0x39], ecx; ret 0x830f; 
94187788611140: ret 6; 
94187788611459: ret 0x4801; 
94187788608014: call qword ptr [rax + 0x24548844]; 
94187788608011: sar ebp, -1; call qword ptr [rax + 0x24548844]; 
94187788608009: add ecx, ebp; sar ebp, -1; call qword ptr [rax + 0x24548844]; 
94187788591265: ret; 
94187788591285: ret; 
94187788591283: add cl, ch; ret; 
94187788591281: add al, 0; add cl, ch; ret; 
94187788591279: cmp dword ptr [rax + 4], 0; add cl, ch; ret; 
94187788591276: adc byte ptr [rax - 0x77], cl; cmp dword ptr [rax + 4], 0; add cl, ch; ret; 
94187788591275: adc byte ptr [rax - 0x77], cl; cmp dword ptr [rax + 4], 0; add cl, ch; ret; 
94187788591272: dec dword ptr [rax - 0x75]; adc byte ptr [rax - 0x77], cl; cmp dword ptr [rax + 4], 0; add cl, ch; ret; 
94187788591265: ret; 
94187788591346: ret; 
94187788591344: xor eax, eax; ret; 
94187788591342: mov dword ptr [rax], esi; xor eax, eax; ret; 
94187788591341: mov qword ptr [rax], rsi; xor eax, eax; ret; 
94187788591338: sal byte ptr [rbp + 0xb], cl; mov qword ptr [rax], rsi; xor eax, eax; ret; 
94187788591335: adc byte ptr [rax - 0x7b], cl; sal byte ptr [rbp + 0xb], cl; mov qword ptr [rax], rsi; xor eax, eax; ret; 
94187788591391: ret; 
94187788591390: pop rbx; ret; 
94187788591384: mov eax, 0xffffffff; pop rbx; ret; 
94187788591383: mov rax, -1; pop rbx; ret; 
94187788591378: call 0x55a9cdae5a30; mov rax, -1; pop rbx; ret; 
94187788591376: add byte ptr [rax], al; call 0x55a9cdae5a30; mov rax, -1; pop rbx; ret; 
94187788591373: mov esi, 0x190; call 0x55a9cdae5a30; mov rax, -1; pop rbx; ret; 
94187788591372: fistp qword ptr [rsi + 0x190]; call 0x55a9cdae5a30; mov rax, -1; pop rbx; ret; 
94187788591733: ret; 
94187788591732: pop rbp; ret; 
94187788591731: pop r13; ret; 
94187788591730: pop rsp; pop r13; ret; 
94187788591729: pop r12; pop r13; ret; 
94187788591728: pop rbp; pop r12; pop r13; ret; 
94187788591727: pop rbx; pop rbp; pop r12; pop r13; ret; 
94187788591726: sub byte ptr [rbx + 0x5d], bl; pop r12; pop r13; ret; 
94187788592110: ret; 
94187788592109: pop rbp; ret; 
94187788592108: pop rbx; pop rbp; ret; 
94187788592107: cmp byte ptr [rbx + 0x5d], bl; ret; 
94187788592105: add esp, 0x38; pop rbx; pop rbp; ret; 
94187788592104: add rsp, 0x38; pop rbx; pop rbp; ret; 
94187788592102: add byte ptr [rax], al; add rsp, 0x38; pop rbx; pop rbp; ret; 
94187788592099: test dword ptr [rdi + 0x48000000], edx; add esp, 0x38; pop rbx; pop rbp; ret; 
94187788592360: ret; 
94187788592359: pop rsp; ret; 
94187788592358: pop r12; ret; 
94187788592357: pop rbp; pop r12; ret; 
94187788592356: pop rbx; pop rbp; pop r12; ret; 
94187788592355: add byte ptr [rbx + 0x5d], bl; pop r12; ret; 
94187788592354: add byte ptr [rax], al; pop rbx; pop rbp; pop r12; ret; 
94187788592353: add byte ptr [rax], al; add byte ptr [rbx + 0x5d], bl; pop r12; ret; 
94187788592448: ret; 
94187788592447: movsb byte ptr [rdi], byte ptr [rsi]; ret; 
94187788592482: ret; 
94187788592481: pop rsp; ret; 
94187788592480: pop r12; ret; 
94187788592479: pop rbp; pop r12; ret; 
94187788592478: pop rbx; pop rbp; pop r12; ret; 
94187788592477: or byte ptr [rbx + 0x5d], bl; pop r12; ret; 
94187788592476: or byte ptr [rbx + 0x5d], bl; pop r12; ret; 
94187788592475: add dword ptr [rdx + 8], eax; pop rbx; pop rbp; pop r12; ret; 
94187788592474: add qword ptr [rdx + 8], rax; pop rbx; pop rbp; pop r12; ret; 
94187788592516: ret; 
94187788592515: pop rsp; ret; 
94187788592514: pop r12; ret; 
94187788592513: pop rbp; pop r12; ret; 
94187788592512: lcall ptr [rbp + 0x41]; pop rsp; ret; 
94187788592507: mov eax, 0xffffffff; pop rbp; pop r12; ret; 
94187788592506: mov rax, -1; pop rbp; pop r12; ret; 
94187788592505: pop rbx; mov rax, -1; pop rbp; pop r12; ret; 
94187788592504: lcall ptr [rbx + 0x48]; mov eax, 0xffffffff; pop rbp; pop r12; ret; 
94187788592895: ret; 
94187788592894: pop rbx; ret; 
94187788592892: xor eax, eax; pop rbx; ret; 
94187788592889: add byte ptr [rbp + 4], dh; xor eax, eax; pop rbx; ret; 
94187788592887: add dword ptr [rax], eax; add byte ptr [rbp + 4], dh; xor eax, eax; pop rbx; ret; 
94187788593017: ret; 
94187788593016: pop rbx; ret; 
94187788593014: xor eax, eax; pop rbx; ret; 
94187788593010: or dl, byte ptr [rbx - 0x3fce0005]; pop rbx; ret; 
94187788593009: call 0x55a9cda9fa80; xor eax, eax; pop rbx; ret; 
94187788593008: add al, ch; or dl, byte ptr [rbx - 0x3fce0005]; pop rbx; ret; 
94187788593004: or eax, 0x6f4dd; call 0x55a9cda9fa80; xor eax, eax; pop rbx; ret; 
94187788593003: lea ecx, dword ptr [rip + 0x6f4dd]; call 0x55a9cda9fa80; xor eax, eax; pop rbx; ret; 
94187788593002: lea rcx, qword ptr [rip + 0x6f4dd]; call 0x55a9cda9fa80; xor eax, eax; pop rbx; ret; 
94187788593173: ret; 
94187788593172: pop rbx; ret; 
94187788593166: mov eax, 0xffffffff; pop rbx; ret; 
94187788593165: mov rax, -1; pop rbx; ret; 
94187788593160: call 0x55a9cdae5a30; mov rax, -1; pop rbx; ret; 
94187788593158: add byte ptr [rax], al; call 0x55a9cdae5a30; mov rax, -1; pop rbx; ret; 
94187788593155: mov esi, 0x190; call 0x55a9cdae5a30; mov rax, -1; pop rbx; ret; 
94187788593154: fistp qword ptr [rsi + 0x190]; call 0x55a9cdae5a30; mov rax, -1; pop rbx; ret; 
94187788593199: ret; 
94187788593198: pop rbx; ret; 
94187788593192: mov eax, 0xffffffff; pop rbx; ret; 
94187788593191: mov rax, -1; pop rbx; ret; 
94187788593186: call 0x55a9cdae4240; mov rax, -1; pop rbx; ret; 
94187788593184: add byte ptr [rax], al; call 0x55a9cdae4240; mov rax, -1; pop rbx; ret; 
94187788593181: mov esi, 0x1f4; call 0x55a9cdae4240; mov rax, -1; pop rbx; ret; 
94187788593180: add byte ptr [rsi + 0x1f4], bh; call 0x55a9cdae4240; mov rax, -1; pop rbx; ret; 
94187788593419: ret; 
94187788593418: pop rbp; ret; 
94187788593417: pop rbx; pop rbp; ret; 
94187788593415: mov eax, ebp; pop rbx; pop rbp; ret; 
94187788593414: mov rax, rbp; pop rbx; pop rbp; ret; 
94187788593411: add esp, 8; mov rax, rbp; pop rbx; pop rbp; ret; 
94187788593410: add rsp, 8; mov rax, rbp; pop rbx; pop rbp; ret; 
94187788593561: ret; 
94187788593560: pop rbp; ret; 
94187788593559: pop rbx; pop rbp; ret; 
94187788593557: mov eax, ebp; pop rbx; pop rbp; ret; 
94187788593556: mov rax, rbp; pop rbx; pop rbp; ret; 
94187788593553: add esp, 8; mov rax, rbp; pop rbx; pop rbp; ret; 
94187788593552: add rsp, 8; mov rax, rbp; pop rbx; pop rbp; ret; 
94187788593816: ret; 
94187788591314: jmp qword ptr [rsi + 0x66]; 
94187788591977: jmp qword ptr [rsi + 0xf]; 
94187788591976: sti; jmp qword ptr [rsi + 0xf]; 
94187788592259: jmp qword ptr [rsi + 0x66]; 
94187788592258: sti; jmp qword ptr [rsi + 0x66]; 
94187788592257: push -5; jmp qword ptr [rsi + 0x66]; 
94187788592256: or al, 0x6a; sti; jmp qword ptr [rsi + 0x66]; 
94187788592254: mov bl, 0xe8; or al, 0x6a; sti; jmp qword ptr [rsi + 0x66]; 
94187788592678: jmp qword ptr [rsi + 0xf]; 
94187788593105: jmp qword ptr [rsi + 0xf]; 
94187788593641: jmp qword ptr [rsi + 0xf]; 
94187788593686: jmp qword ptr [rsi + 0xf]; 
94187788593861: jmp qword ptr [rsi + 0x2e]; 
94187788594262: jmp qword ptr [rsi + 0xf]; 
94187788594961: jmp qword ptr [rsi + 0xf]; 
94187788595078: jmp qword ptr [rsi + 0xf]; 
94187788595076: sar bh, cl; jmp qword ptr [rsi + 0xf]; 
94187788595113: jmp qword ptr [rsi + 0xf]; 
94187788594928: call qword ptr [rax + 0x18]; 
94187788594926: mov edi, ebx; call qword ptr [rax + 0x18]; 
94187788594925: mov rdi, rbx; call qword ptr [rax + 0x18]; 
94187788594924: out dx, al; mov rdi, rbx; call qword ptr [rax + 0x18]; 
94187788594923: mov esi, ebp; mov rdi, rbx; call qword ptr [rax + 0x18]; 
94187788594922: mov rsi, rbp; mov rdi, rbx; call qword ptr [rax + 0x18]; 
94187788594921: adc byte ptr [rax - 0x77], cl; out dx, al; mov rdi, rbx; call qword ptr [rax + 0x18]; 
94187788594920: push rax; adc byte ptr [rax - 0x77], cl; out dx, al; mov rdi, rbx; call qword ptr [rax + 0x18]; 
94187788594919: mov edx, dword ptr [rax + 0x10]; mov rsi, rbp; mov rdi, rbx; call qword ptr [rax + 0x18]; 
94187788594918: mov rdx, qword ptr [rax + 0x10]; mov rsi, rbp; mov rdi, rbx; call qword ptr [rax + 0x18]; 
94187788591256: ret 0xfffe; 
94187788591254: add cl, ch; ret 0xfffe; 
94187788591398: ret 0x4c08; 
94187788591395: sbb byte ptr [rax - 0x7d], cl; ret 0x4c08; 
94187788591394: sbb byte ptr [rax - 0x7d], cl; ret 0x4c08; 
94187788592145: ret 0xf66; 
94187788592143: add bl, ch; ret 0xf66; 
94187788592141: add dword ptr [rax], eax; add bl, ch; ret 0xf66; 
94187788592140: lock add dword ptr [rax], eax; add bl, ch; ret 0xf66; 
94187788592139: mov esi, eax; add dword ptr [rax], eax; add bl, ch; ret 0xf66; 
94187788592136: ror byte ptr [rdi], 0x11; mov esi, eax; add dword ptr [rax], eax; add bl, ch; ret 0xf66; 
94187788592339: ret 0xc748; 
94187788592336: dec dword ptr [rax - 0x77]; ret 0xc748; 
94187788592335: std; dec dword ptr [rax - 0x77]; ret 0xc748; 
94187788592334: stosb byte ptr [rdi], al; std; dec dword ptr [rax - 0x77]; ret 0xc748; 
94187788592333: fild qword ptr [rdx - 0x76b70003]; ret 0xc748; 
94187788592331: fucompi st(0); fild qword ptr [rdx - 0x76b70003]; ret 0xc748; 
94187788513497: ret; 
94187788513496: pop rbp; ret; 
94187788513495: pop rbx; pop rbp; ret; 
94187788513494: or byte ptr [rbx + 0x5d], bl; ret; 
94187788513492: add esp, 8; pop rbx; pop rbp; ret; 
94187788513491: add rsp, 8; pop rbx; pop rbp; ret; 
94187788513574: ret; 
94187788513571: dec dword ptr [rax - 0x77]; ret; 
94187788513570: cld; dec dword ptr [rax - 0x77]; ret; 
94187788513568: cmp al, 0xa3; cld; dec dword ptr [rax - 0x77]; ret; 
94187788513566: xor al, ch; cmp al, 0xa3; cld; dec dword ptr [rax - 0x77]; ret; 
94187788513564: add byte ptr [rbx - 0x5cc317d0], cl; cld; dec dword ptr [rax - 0x77]; ret; 
94187788513849: ret; 
94187788513986: ret; 
94187788513985: pop rdi; ret; 
94187788513984: pop r15; ret; 
94187788513983: pop rsi; pop r15; ret; 
94187788513982: pop r14; pop r15; ret; 
94187788513981: pop rbp; pop r14; pop r15; ret; 
94187788513980: pop r13; pop r14; pop r15; ret; 
94187788513979: pop rsp; pop r13; pop r14; pop r15; ret; 
94187788513978: pop r12; pop r13; pop r14; pop r15; ret; 
94187788514542: ret; 
94187788514539: add byte ptr [rax - 0x77], cl; ret; 
94187788514537: add eax, dword ptr [rax]; add byte ptr [rax - 0x77], cl; ret; 
94187788514535: test bh, ah; add eax, dword ptr [rax]; add byte ptr [rax - 0x77], cl; ret; 
94187788514789: ret; 
94187788514788: pop rdi; ret; 
94187788514787: pop r15; ret; 
94187788514786: pop rsi; pop r15; ret; 
94187788514785: pop r14; pop r15; ret; 
94187788514784: pop rbp; pop r14; pop r15; ret; 
94187788514783: pop r13; pop r14; pop r15; ret; 
94187788514782: pop rsp; pop r13; pop r14; pop r15; ret; 
94187788514781: pop r12; pop r13; pop r14; pop r15; ret; 
94187788515610: ret; 
94187788515608: xor eax, eax; ret; 
94187788515606: mov dword ptr [rdi], esi; xor eax, eax; ret; 
94187788515605: mov qword ptr [rdi], rsi; xor eax, eax; ret; 
94187788515602: div byte ptr [rbx + rcx + 0x48]; mov dword ptr [rdi], esi; xor eax, eax; ret; 
94187788515599: add byte ptr [rax - 0x7b], cl; div byte ptr [rbx + rcx + 0x48]; mov dword ptr [rdi], esi; xor eax, eax; ret; 
94187788515651: ret; 
94187788515650: pop rbp; ret; 
94187788515649: pop rbx; pop rbp; ret; 
94187788515648: or byte ptr [rbx + 0x5d], bl; ret; 
94187788515646: add esp, 8; pop rbx; pop rbp; ret; 
94187788515645: add rsp, 8; pop rbx; pop rbp; ret; 
94187788515644: ror byte ptr [rax - 0x7d], 0xc4; or byte ptr [rbx + 0x5d], bl; ret; 
94187788515643: xor eax, eax; add rsp, 8; pop rbx; pop rbp; ret; 
94187788515789: ret; 
94187788515788: pop rbp; ret; 
94187788515787: pop rbx; pop rbp; ret; 
94187788515785: xor eax, eax; pop rbx; pop rbp; ret; 
94187788515782: add esp, 8; xor eax, eax; pop rbx; pop rbp; ret; 
94187788515781: add rsp, 8; xor eax, eax; pop rbx; pop rbp; ret; 
94187788516463: ret; 
94187788516459: test byte ptr [rax - 0x73], 0xd; ret; 
94187788516580: ret; 
94187788516577: dec dword ptr [rax - 0x39]; ret; 
94187788516576: std; dec dword ptr [rax - 0x39]; ret; 
94187788516575: sbb eax, 0xc748fffd; ret; 
94187788516574: sbb eax, 0xc748fffd; ret; 
94187788516628: ret; 
94187788516627: pop rdi; ret; 
94187788516626: pop r15; ret; 
94187788516625: pop rsi; pop r15; ret; 
94187788516624: pop r14; pop r15; ret; 
94187788516623: pop rbp; pop r14; pop r15; ret; 
94187788516622: pop r13; pop r14; pop r15; ret; 
94187788516621: pop rsp; pop r13; pop r14; pop r15; ret; 
94187788516620: pop r12; pop r13; pop r14; pop r15; ret; 
94187788516694: ret; 
94187788516691: dec dword ptr [rax - 0x77]; ret; 
94187788516690: cld; dec dword ptr [rax - 0x77]; ret; 
94187788516689: mov edi, esp; dec dword ptr [rax - 0x77]; ret; 
94187788516742: ret; 
94187788517132: ret; 
94187788517129: add byte ptr [rax - 0x77], cl; ret; 
94187788517240: ret; 
94187788517292: ret; 
94187788517291: pop rsp; ret; 
94187788517290: pop r12; ret; 
94187788517289: pop rbp; pop r12; ret; 
94187788517288: pop rbx; pop rbp; pop r12; ret; 
94187788517287: rcr byte ptr [rbx + 0x5d], 0x41; pop rsp; ret; 
94187788517286: xor eax, eax; pop rbx; pop rbp; pop r12; ret; 
94187788517285: push qword ptr [rcx]; rcr byte ptr [rbx + 0x5d], 0x41; pop rsp; ret; 
94187788517284: cld; push qword ptr [rcx]; rcr byte ptr [rbx + 0x5d], 0x41; pop rsp; ret; 
94187788513444: jmp rax; 
94187788513443: pop rbp; jmp rax; 
94187788513442: pop rbx; pop rbp; jmp rax; 
94187788513440: mov eax, ebp; pop rbx; pop rbp; jmp rax; 
94187788513439: mov rax, rbp; pop rbx; pop rbp; jmp rax; 
94187788513437: mov edi, ebx; mov rax, rbp; pop rbx; pop rbp; jmp rax; 
94187788513436: mov rdi, rbx; mov rax, rbp; pop rbx; pop rbp; jmp rax; 
94187788514165: jmp qword ptr [rsi + 0x2e]; 
94187788514281: jmp qword ptr [rsi + 0xf]; 
94187788515373: jmp qword ptr [rsi - 0x70]; 
94187788515477: jmp qword ptr [rsi + 0x2e]; 
94187788515585: jmp qword ptr [rsi + 0x66]; 
94187788515584: cld; jmp qword ptr [rsi + 0x66]; 
94187788515583: xchg eax, ebp; cld; jmp qword ptr [rsi + 0x66]; 
94187788515801: jmp qword ptr [rsi + 0xf]; 
94187788515841: jmp qword ptr [rsi + 0x66]; 
94187788516422: jmp qword ptr [rsi + 0xf]; 
94187788516419: sar dh, 0xff; jmp qword ptr [rsi + 0xf]; 
94187788516417: sbb cl, ch; sar dh, 0xff; jmp qword ptr [rsi + 0xf]; 
94187788516485: jmp qword ptr [rsi + 0x2e]; 
94187788517076: jmp qword ptr [rsi + 0x66]; 
94187788517075: cld; jmp qword ptr [rsi + 0x66]; 
94187788517185: jmp qword ptr [rsi + 0x66]; 
94187788517184: cld; jmp qword ptr [rsi + 0x66]; 
94187788513696: ret 0x314c; 
94187788513702: ret 0x850f; 
94187788513696: ret 0x314c; 
94187788514106: ret 0xfc9c; 
94187788514101: ror byte ptr [rcx + rcx*4 - 7], 0xe8; ret 0xfc9c; 
94187788514098: sbb byte ptr [rbp + 0x31], al; ror byte ptr [rcx + rcx*4 - 7], 0xe8; ret 0xfc9c; 
94187788804793: ret; 
94187788805504: ret; 
94187788805503: pop rdi; ret; 
94187788805502: pop r15; ret; 
94187788805501: pop rsi; pop r15; ret; 
94187788805500: pop r14; pop r15; ret; 
94187788805499: pop rbp; pop r14; pop r15; ret; 
94187788805498: pop r13; pop r14; pop r15; ret; 
94187788805497: pop rsp; pop r13; pop r14; pop r15; ret; 
94187788805496: pop r12; pop r13; pop r14; pop r15; ret; 
94187788806347: ret; 
94187788806383: ret; 
94187788806382: pop rsi; ret; 
94187788806381: pop r14; ret; 
94187788806380: pop rbp; pop r14; ret; 
94187788806379: pop r13; pop r14; ret; 
94187788806378: pop rsp; pop r13; pop r14; ret; 
94187788806377: pop r12; pop r13; pop r14; ret; 
94187788806376: pop rbp; pop r12; pop r13; pop r14; ret; 
94187788806485: ret; 
94187788806484: pop rbp; ret; 
94187788806483: pop rbx; pop rbp; ret; 
94187788806481: xor eax, eax; pop rbx; pop rbp; ret; 
94187788806478: add esp, 8; xor eax, eax; pop rbx; pop rbp; ret; 
94187788806477: add rsp, 8; xor eax, eax; pop rbx; pop rbp; ret; 
94187788806719: ret; 
94187788806718: pop rbp; ret; 
94187788806717: pop r13; ret; 
94187788806716: pop rsp; pop r13; ret; 
94187788806715: pop r12; pop r13; ret; 
94187788806714: pop rbp; pop r12; pop r13; ret; 
94187788806713: pop rbx; pop rbp; pop r12; pop r13; ret; 
94187788806712: or byte ptr [rbx + 0x5d], bl; pop r12; pop r13; ret; 
94187788807122: ret; 
94187788807121: pop rsp; ret; 
94187788807120: pop r12; ret; 
94187788807119: pop rbp; pop r12; ret; 
94187788807118: pop rbx; pop rbp; pop r12; ret; 
94187788807117: call 0x55aa29f3092d; ret; 
94187788807116: mov eax, ebp; pop rbx; pop rbp; pop r12; ret; 
94187788807115: mov rax, rbp; pop rbx; pop rbp; pop r12; ret; 
94187788807114: add byte ptr [rax - 0x77], cl; call 0x55aa29f3092d; ret; 
94187788807573: jmp rax; 
94187788807572: pop rsi; jmp rax; 
94187788807571: pop r14; jmp rax; 
94187788807570: pop rbp; pop r14; jmp rax; 
94187788807569: pop r13; pop r14; jmp rax; 
94187788807568: pop rsp; pop r13; pop r14; jmp rax; 
94187788807567: pop r12; pop r13; pop r14; jmp rax; 
94187788807566: pop rbp; pop r12; pop r13; pop r14; jmp rax; 
94187788806877: jmp qword ptr [rdi]; 
94187788804345: jmp qword ptr [rsi + 0xf]; 
94187788804454: jmp qword ptr [rsi + 0xf]; 
94187788804573: jmp qword ptr [rsi - 0x70]; 
94187788804757: jmp qword ptr [rsi + 0x2e]; 
94187788804755: idiv edi; jmp qword ptr [rsi + 0x2e]; 
94187788804801: jmp qword ptr [rsi + 0xf]; 
94187788804845: jmp qword ptr [rsi - 0x70]; 
94187788805382: jmp qword ptr [rsi + 0xf]; 
94187788805381: stc; jmp qword ptr [rsi + 0xf]; 
94187788805380: stc; jmp qword ptr [rsi + 0xf]; 
94187788805379: cmp dword ptr [rsi - 7], esp; jmp qword ptr [rsi + 0xf]; 
94187788805377: xor al, ch; cmp dword ptr [rsi - 7], esp; jmp qword ptr [rsi + 0xf]; 
94187788805375: fisttp word ptr [rbx + 0x6639e830]; stc; jmp qword ptr [rsi + 0xf]; 
94187788805372: add byte ptr [rax - 0x77], cl; fisttp word ptr [rbx + 0x6639e830]; stc; jmp qword ptr [rsi + 0xf]; 
94187788805370: mov dh, 3; add byte ptr [rax - 0x77], cl; fisttp word ptr [rbx + 0x6639e830]; stc; jmp qword ptr [rsi + 0xf]; 
94187788805589: jmp qword ptr [rsi + 0x2e]; 
94187788805621: jmp qword ptr [rsi + 0x2e]; 
94187788806633: jmp qword ptr [rsi + 0xf]; 
94187788806758: jmp qword ptr [rsi + 0xf]; 
94187788806841: jmp qword ptr [rsi + 0xf]; 
94187788807042: jmp qword ptr [rsi + 0x66]; 
94187788807157: jmp qword ptr [rsi + 0x2e]; 
94187788808089: jmp qword ptr [rsi + 0xf]; 
94187788808121: jmp qword ptr [rsi + 0xf]; 
94187788804192: call qword ptr [rbp + 0x40]; 
94187788805037: call qword ptr [rbx + 0x38]; 
94187788805035: mov edi, ebx; call qword ptr [rbx + 0x38]; 
94187788805034: mov rdi, rbx; call qword ptr [rbx + 0x38]; 
94187788805033: test byte ptr [rax - 0x77], 0xdf; call qword ptr [rbx + 0x38]; 
94187788805032: mov esi, esi; mov rdi, rbx; call qword ptr [rbx + 0x38]; 
94187788805031: mov rsi, r14; mov rdi, rbx; call qword ptr [rbx + 0x38]; 
94187788805030: ror byte ptr [rcx + rcx*4 - 0xa], cl; mov rdi, rbx; call qword ptr [rbx + 0x38]; 
94187788805029: xor edx, edx; mov rsi, r14; mov rdi, rbx; call qword ptr [rbx + 0x38]; 
94187788805028: wait; xor edx, edx; mov rsi, r14; mov rdi, rbx; call qword ptr [rbx + 0x38]; 
94187788805162: call qword ptr [rdi + 0x18]; 
94187788806280: call qword ptr [rax + 0x10]; 
94187788806278: mov edi, eax; call qword ptr [rax + 0x10]; 
94187788806277: mov rdi, rax; call qword ptr [rax + 0x10]; 
94187788806275: or dword ptr [rcx], eax; mov rdi, rax; call qword ptr [rax + 0x10]; 
94187788806274: or qword ptr [rcx], rax; mov rdi, rax; call qword ptr [rax + 0x10]; 
94187788806273: or byte ptr [rax + 9], 1; mov rdi, rax; call qword ptr [rax + 0x10]; 
94187788806272: or byte ptr [rax + 0x48010948], al; mov edi, eax; call qword ptr [rax + 0x10]; 
94187788806271: push rax; or byte ptr [rax + 0x48010948], al; mov edi, eax; call qword ptr [rax + 0x10]; 
94187788806270: mov byte ptr [rax + 8], dl; or byte ptr [rax + 9], 1; mov rdi, rax; call qword ptr [rax + 0x10]; 
94187788806269: and byte ptr [rax + 0x48800850], cl; or dword ptr [rcx], eax; mov rdi, rax; call qword ptr [rax + 0x10]; 
94187788806267: or edx, 0x20; mov byte ptr [rax + 8], dl; or byte ptr [rax + 9], 1; mov rdi, rax; call qword ptr [rax + 0x10]; 
94187788805653: ret 0xfffa; 
94187788805647: add byte ptr [rbx + 0x48e8187b], cl; ret 0xfffa; 
94187788805645: add byte ptr [rax], al; add byte ptr [rbx + 0x48e8187b], cl; ret 0xfffa; 
94187788805643: add byte ptr [rax], al; add byte ptr [rax], al; add byte ptr [rbx + 0x48e8187b], cl; ret 0xfffa; 
94187788807006: call qword ptr [rax + 0x7bf]; 
94187788807003: sar ebp, -1; call qword ptr [rax + 0x7bf]; 
94187788807000: add byte ptr [rbx - 0x17], bl; sar ebp, -1; call qword ptr [rax + 0x7bf]; 
94187788806998: add byte ptr [rax], al; add byte ptr [rbx - 0x17], bl; sar ebp, -1; call qword ptr [rax + 0x7bf]; 
94187788809819: ret; 
94187788810438: ret; 
94187788810434: rol dword ptr [rdi + rcx - 0x49], 1; ret; 
94187788810431: add byte ptr [rbp - 0x77], cl; rol dword ptr [rdi + rcx - 0x49], 1; ret; 
94187788810430: add byte ptr [rbp - 0x77], cl; rol dword ptr [rdi + rcx - 0x49], 1; ret; 
94187788809856: jmp rax; 
94187788809855: clc; jmp rax; 
94187788809854: add eax, edi; jmp rax; 
94187788809853: add rax, r15; jmp rax; 
94187788809852: lahf; add rax, r15; jmp rax; 
94187788809851: add al, 0x9f; add rax, r15; jmp rax; 
94187788809849: movsxd rax, dword ptr [r15 + rbx*4]; add rax, r15; jmp rax; 
94187788809848: fisttp dword ptr [rcx + 0x63]; add al, 0x9f; add rax, r15; jmp rax; 
94187788809847: mov bh, 0xdb; movsxd rax, dword ptr [r15 + rbx*4]; add rax, r15; jmp rax; 
94187788809846: movzx ebx, bx; movsxd rax, dword ptr [r15 + rbx*4]; add rax, r15; jmp rax; 
94187788809845: sub cl, byte ptr [rdi]; mov bh, 0xdb; movsxd rax, dword ptr [r15 + rbx*4]; add rax, r15; jmp rax; 
94187788809843: add eax, 0xb70f2a77; fisttp dword ptr [rcx + 0x63]; add al, 0x9f; add rax, r15; jmp rax; 
94187788808209: jmp qword ptr [rsi + 0xf]; 
94187788808401: jmp qword ptr [rsi + 0xf]; 
94187788808453: jmp qword ptr [rsi + 0x2e]; 
94187788808486: jmp qword ptr [rsi + 0xf]; 
94187788808773: jmp qword ptr [rsi + 0x2e]; 
94187788808771: idiv bh; jmp qword ptr [rsi + 0x2e]; 
94187788809089: jmp qword ptr [rsi + 0xf]; 
94187788809125: jmp qword ptr [rsi + 0x2e]; 
94187788809241: jmp qword ptr [rsi + 0xf]; 
94187788809529: jmp qword ptr [rsi + 0xf]; 
94187788809553: jmp qword ptr [rsi + 0xf]; 
94187788809551: idiv bh; jmp qword ptr [rsi + 0xf]; 
94187788809550: out dx, al; idiv bh; jmp qword ptr [rsi + 0xf]; 
94187788809585: jmp qword ptr [rsi + 0xf]; 
94187788809625: jmp qword ptr [rsi + 0xf]; 
94187788809698: jmp qword ptr [rsi + 0x66]; 
94187788809953: jmp qword ptr [rsi + 0xf]; 
94187788810374: jmp qword ptr [rsi + 0xf]; 
94187788810902: jmp qword ptr [rsi + 0xf]; 
94187788811017: jmp qword ptr [rsi + 0xf]; 
94187788811225: jmp qword ptr [rsi + 0xf]; 
94187788811413: jmp qword ptr [rsi + 0x2e]; 
94187788811489: jmp qword ptr [rsi + 0xf]; 
94187788811537: jmp qword ptr [rsi + 0xf]; 
94187788811798: jmp qword ptr [rsi + 0xf]; 
94187788812033: jmp qword ptr [rsi + 0xf]; 
94187788812109: jmp qword ptr [rsi - 0x70]; 
94187788812257: jmp qword ptr [rsi + 0xf]; 
94187788808195: call qword ptr [rdx + 0x10]; 
94187788808194: xlatb; call qword ptr [rdx + 0x10]; 
94187788808193: mov edi, edx; call qword ptr [rdx + 0x10]; 
94187788808192: mov rdi, rdx; call qword ptr [rdx + 0x10]; 
94187788808617: call qword ptr [rdx + 0x10]; 
94187788808616: xlatb; call qword ptr [rdx + 0x10]; 
94187788808615: mov edi, edx; call qword ptr [rdx + 0x10]; 
94187788808614: mov rdi, rdx; call qword ptr [rdx + 0x10]; 
94187788808613: dec dword ptr [rax - 0x77]; xlatb; call qword ptr [rdx + 0x10]; 
94187788810220: call qword ptr [rdx + 0x10]; 
94187788810219: xlatb; call qword ptr [rdx + 0x10]; 
94187788810218: mov edi, edx; call qword ptr [rdx + 0x10]; 
94187788810217: mov rdi, rdx; call qword ptr [rdx + 0x10]; 
94187788810214: adc byte ptr [rbp + 7], dh; mov rdi, rdx; call qword ptr [rdx + 0x10]; 
94187788811383: call qword ptr [rax + 0x10]; 
94187788811381: mov edi, eax; call qword ptr [rax + 0x10]; 
94187788811380: mov rdi, rax; call qword ptr [rax + 0x10]; 
94187788811377: mov eax, dword ptr [rdi + 8]; mov rdi, rax; call qword ptr [rax + 0x10]; 
94187788811376: mov rax, qword ptr [r15 + 8]; mov rdi, rax; call qword ptr [rax + 0x10]; 
94187788811374: add byte ptr [rax], al; mov rax, qword ptr [r15 + 8]; mov rdi, rax; call qword ptr [rax + 0x10]; 
94187788811372: add byte ptr [rax], al; add byte ptr [rax], al; mov rax, qword ptr [r15 + 8]; mov rdi, rax; call qword ptr [rax + 0x10]; 
94187788811371: add byte ptr [rax], 0; add byte ptr [rax], al; mov rax, qword ptr [r15 + 8]; mov rdi, rax; call qword ptr [rax + 0x10]; 
94187788811369: nop dword ptr [rax]; mov rax, qword ptr [r15 + 8]; mov rdi, rax; call qword ptr [rax + 0x10]; 
94187788811367: add byte ptr [rax], al; nop dword ptr [rax]; mov rax, qword ptr [r15 + 8]; mov rdi, rax; call qword ptr [rax + 0x10]; 
94187788809414: ret 0x4808; 
94187788809411: xor cl, byte ptr [rax - 0x7d]; ret 0x4808; 
94187788809408: or byte ptr [rax - 0x77], cl; xor cl, byte ptr [rax - 0x7d]; ret 0x4808; 
94187788809407: push rcx; or byte ptr [rax - 0x77], cl; xor cl, byte ptr [rax - 0x7d]; ret 0x4808; 
94187788809404: or cl, byte ptr [rax - 0x75]; push rcx; or byte ptr [rax - 0x77], cl; xor cl, byte ptr [rax - 0x7d]; ret 0x4808; 
94187788812090: ret 0x404; 
94187788808750: call qword ptr [rax + 0x75c08548]; 
94187788809662: call qword ptr [rax + 0x7bf]; 
94187788810878: call qword ptr [rax + 0x6f98348]; 
94187788822001: ret; 
94187788821999: mov eax, esi; ret; 
94187788821998: mov rax, rsi; ret; 
94187788821996: add byte ptr [rax], al; mov rax, rsi; ret; 
94187788821994: add byte ptr [rcx], al; add byte ptr [rax], al; mov rax, rsi; ret; 
94187788821992: mov dword ptr [rdi + 0x100], eax; mov rax, rsi; ret; 
94187788821991: mov qword ptr [rdi + 0x100], rax; mov rax, rsi; ret; 
94187788821989: add byte ptr [rax], al; mov qword ptr [rdi + 0x100], rax; mov rax, rsi; ret; 
94187788821988: sldt word ptr [rax]; mov qword ptr [rdi + 0x100], rax; mov rax, rsi; ret; 
94187788821987: leave; sldt word ptr [rax]; mov qword ptr [rdi + 0x100], rax; mov rax, rsi; ret; 
94187788821986: add eax, 0xfc9; mov qword ptr [rdi + 0x100], rax; mov rax, rsi; ret; 
94187788821985: lea eax, dword ptr [rip + 0xfc9]; mov qword ptr [rdi + 0x100], rax; mov rax, rsi; ret; 
94187788821984: lea rax, qword ptr [rip + 0xfc9]; mov qword ptr [rdi + 0x100], rax; mov rax, rsi; ret; 
94187788821983: nop; lea rax, qword ptr [rip + 0xfc9]; mov qword ptr [rdi + 0x100], rax; mov rax, rsi; ret; 
94187788821982: nop; lea rax, qword ptr [rip + 0xfc9]; mov qword ptr [rdi + 0x100], rax; mov rax, rsi; ret; 
94187788822675: ret; 
94187788820661: jmp qword ptr [rsi + 0x2e]; 
94187788820709: jmp qword ptr [rsi + 0x2e]; 
94187788820902: jmp qword ptr [rsi + 0xf]; 
94187788821861: jmp qword ptr [rsi + 0x2e]; 
94187788821858: sar esi, -1; jmp qword ptr [rsi + 0x2e]; 
94187788821981: jmp qword ptr [rsi - 0x70]; 
94187788822083: jmp qword ptr [rsi + 0x66]; 
94187788823085: jmp qword ptr [rsi - 0x70]; 
94187788823113: jmp qword ptr [rsi + 0xf]; 
94187788823257: jmp qword ptr [rsi + 0xf]; 
94187788823289: jmp qword ptr [rsi + 0xf]; 
94187788824502: jmp qword ptr [rsi + 0xf]; 
94187788824500: idiv bh; jmp qword ptr [rsi + 0xf]; 
94187788824499: cdq; idiv bh; jmp qword ptr [rsi + 0xf]; 
94187788824497: mov ecx, 0xfff699e9; jmp qword ptr [rsi + 0xf]; 
94187788824495: sal byte ptr [rbp - 0x47], 0xe9; cdq; idiv bh; jmp qword ptr [rsi + 0xf]; 
94187788824492: add byte ptr [rax - 0x7b], cl; sal byte ptr [rbp - 0x47], 0xe9; cdq; idiv bh; jmp qword ptr [rsi + 0xf]; 
94187788821470: call qword ptr [rax + 0x18]; 
94187788821468: mov edi, ebx; call qword ptr [rax + 0x18]; 
94187788821467: mov rdi, rbx; call qword ptr [rax + 0x18]; 
94187788821466: out 0x48, al; mov edi, ebx; call qword ptr [rax + 0x18]; 
94187788821465: mov esi, esp; mov rdi, rbx; call qword ptr [rax + 0x18]; 
94187788821464: mov rsi, r12; mov rdi, rbx; call qword ptr [rax + 0x18]; 
94187788821463: adc byte ptr [rcx + rcx*4 - 0x1a], cl; mov rdi, rbx; call qword ptr [rax + 0x18]; 
94187788821462: push rax; adc byte ptr [rcx + rcx*4 - 0x1a], cl; mov rdi, rbx; call qword ptr [rax + 0x18]; 
94187788821461: mov edx, dword ptr [rax + 0x10]; mov rsi, r12; mov rdi, rbx; call qword ptr [rax + 0x18]; 
94187788821460: mov rdx, qword ptr [rax + 0x10]; mov rsi, r12; mov rdi, rbx; call qword ptr [rax + 0x18]; 
94187788821459: add byte ptr [rax - 0x75], cl; push rax; adc byte ptr [rcx + rcx*4 - 0x1a], cl; mov rdi, rbx; call qword ptr [rax + 0x18]; 
94187788821458: add byte ptr [rax], al; mov rdx, qword ptr [rax + 0x10]; mov rsi, r12; mov rdi, rbx; call qword ptr [rax + 0x18]; 
94187788823017: call qword ptr [rax + 0x18]; 
94187788823016: out dx, eax; call qword ptr [rax + 0x18]; 
94187788823015: mov edi, ebp; call qword ptr [rax + 0x18]; 
94187788823014: mov rdi, rbp; call qword ptr [rax + 0x18]; 
94187788823013: dec byte ptr [rax - 0x77]; out dx, eax; call qword ptr [rax + 0x18]; 
94187788823012: mov esi, edi; mov rdi, rbp; call qword ptr [rax + 0x18]; 
94187788823011: mov rsi, r15; mov rdi, rbp; call qword ptr [rax + 0x18]; 
94187788823010: adc byte ptr [rcx + rcx*4 - 2], cl; mov rdi, rbp; call qword ptr [rax + 0x18]; 
94187788823009: push rax; adc byte ptr [rcx + rcx*4 - 2], cl; mov rdi, rbp; call qword ptr [rax + 0x18]; 
94187788823008: mov edx, dword ptr [rax + 0x10]; mov rsi, r15; mov rdi, rbp; call qword ptr [rax + 0x18]; 
94187788823007: mov rdx, qword ptr [rax + 0x10]; mov rsi, r15; mov rdi, rbp; call qword ptr [rax + 0x18]; 
94187788823004: sal byte ptr [rsi + rdx + 0x48], 0x8b; push rax; adc byte ptr [rcx + rcx*4 - 2], cl; mov rdi, rbp; call qword ptr [rax + 0x18]; 
94187788820805: ret 0x55e8; 
94187788820802: fisttp word ptr [rax + 0x29]; ret 0x55e8; 
94187788821264: ret 0xed75; 
94187788821261: add cl, byte ptr [rax + 0x39]; ret 0xed75; 
94187788821260: add cl, byte ptr [r8 + 0x39]; ret 0xed75; 
94187788822217: ret 0xffff; 
94187788822216: push rsp; ret 0xffff; 
94187788822255: ret 0x820f; 
94187788822252: add byte ptr [rax + 0x39], cl; ret 0x820f; 
94187788822250: add byte ptr [rax], al; add byte ptr [rax + 0x39], cl; ret 0x820f; 
94187788822249: nop; add byte ptr [rax], al; add byte ptr [rax + 0x39], cl; ret 0x820f; 
94187788822248: adc dword ptr [rax + 0x48000000], 0x39; ret 0x820f; 
94187788822245: add byte ptr [rax + 3], cl; adc dword ptr [rax + 0x48000000], 0x39; ret 0x820f; 
94187788822243: add byte ptr [rax], al; add byte ptr [rax + 3], cl; adc dword ptr [rax + 0x48000000], 0x39; ret 0x820f; 
94187788822264: ret 0x8d4c; 
94187788822261: add byte ptr [rax + 0x29], cl; ret 0x8d4c; 
94187788822259: add al, byte ptr [rax]; add byte ptr [rax + 0x29], cl; ret 0x8d4c; 
94187788822255: ret 0x820f; 
94187788822377: ret 0x8b49; 
94187788822376: xchg eax, esp; ret 0x8b49; 
94187788822374: cmp cl, byte ptr [rdi]; xchg eax, esp; ret 0x8b49; 
94187788822383: ret 0x2b75; 
94187788822377: ret 0x8b49; 
94187788822422: ret 0x4c01; 
94187788822419: add byte ptr [rax - 0x7d], cl; ret 0x4c01; 
94187788822417: add eax, 0x83480000; ret 0x4c01; 
94187788822413: add cl, byte ptr [rax + 0x5158d]; add byte ptr [rax - 0x7d], cl; ret 0x4c01; 
94187788822412: leave; add cl, byte ptr [rax + 0x5158d]; add byte ptr [rax - 0x7d], cl; ret 0x4c01; 
94187788822426: ret 0x3374; 
94187788822422: ret 0x4c01; 
94187788822472: ret 0x4c01; 
94187788822476: ret 0xce75; 
94187788822472: ret 0x4c01; 
94187788823554: ret 1; 
94187788823882: ret 0x4c10; 
94187788823879: add byte ptr [rax - 0x7d], cl; ret 0x4c10; 
94187788823878: add byte ptr [rax - 0x7d], cl; ret 0x4c10; 
94187788823342: call qword ptr [rax + 0x79814166]; 
94187788824110: call qword ptr [rax - 0x2e5cf0b8]; 
94187788825633: ret; 
94187788825632: pop rbp; ret; 
94187788825631: pop r13; ret; 
94187788825630: pop rsp; pop r13; ret; 
94187788825629: pop r12; pop r13; ret; 
94187788825628: pop rbp; pop r12; pop r13; ret; 
94187788825627: pop rbx; pop rbp; pop r12; pop r13; ret; 
94187788825626: sbb byte ptr [rbx + 0x5d], bl; pop r12; pop r13; ret; 
94187788825668: ret; 
94187788825667: pop rbp; ret; 
94187788825666: pop r13; ret; 
94187788825665: pop rsp; pop r13; ret; 
94187788825664: pop r12; pop r13; ret; 
94187788825663: pop rbp; pop r12; pop r13; ret; 
94187788825662: pop rbx; pop rbp; pop r12; pop r13; ret; 
94187788825661: sbb byte ptr [rbx + 0x5d], bl; pop r12; pop r13; ret; 
94187788825694: ret; 
94187788825693: pop rbp; ret; 
94187788825692: pop r13; ret; 
94187788825691: pop rsp; pop r13; ret; 
94187788825690: pop r12; pop r13; ret; 
94187788825689: pop rbp; pop r12; pop r13; ret; 
94187788825688: pop rbx; pop rbp; pop r12; pop r13; ret; 
94187788825687: sbb byte ptr [rbx + 0x5d], bl; pop r12; pop r13; ret; 
94187788826190: ret; 
94187788826189: pop rbp; ret; 
94187788826188: pop rbx; pop rbp; ret; 
94187788826187: sbb byte ptr [rbx + 0x5d], bl; ret; 
94187788826185: add esp, 0x18; pop rbx; pop rbp; ret; 
94187788826184: add rsp, 0x18; pop rbx; pop rbp; ret; 
94187788826180: push 0x48fffffc; add esp, 0x18; pop rbx; pop rbp; ret; 
94187788826179: call 0x55a9cdb1f2b0; add rsp, 0x18; pop rbx; pop rbp; ret; 
94187788826280: ret; 
94187788826279: pop rbp; ret; 
94187788826278: pop rbx; pop rbp; ret; 
94187788826277: sbb byte ptr [rbx + 0x5d], bl; ret; 
94187788826275: add esp, 0x18; pop rbx; pop rbp; ret; 
94187788826274: add rsp, 0x18; pop rbx; pop rbp; ret; 
94187788826269: call 0x55a9cdb1a920; add rsp, 0x18; pop rbx; pop rbp; ret; 
94187788826367: ret; 
94187788826366: pop rbp; ret; 
94187788826365: pop rbx; pop rbp; ret; 
94187788826364: sbb byte ptr [rbx + 0x5d], bl; ret; 
94187788826362: add esp, 0x18; pop rbx; pop rbp; ret; 
94187788826361: add rsp, 0x18; pop rbx; pop rbp; ret; 
94187788826356: call 0x55a9cdb1a920; add rsp, 0x18; pop rbx; pop rbp; ret; 
94187788826429: ret; 
94187788826554: ret; 
94187788826553: pop rbp; ret; 
94187788826552: pop rbx; pop rbp; ret; 
94187788826551: sbb byte ptr [rbx + 0x5d], bl; ret; 
94187788826549: add esp, 0x18; pop rbx; pop rbp; ret; 
94187788826548: add rsp, 0x18; pop rbx; pop rbp; ret; 
94187788826544: mov esp, 0x48ffffb2; add esp, 0x18; pop rbx; pop rbp; ret; 
94187788826543: call 0x55a9cdb1aa70; add rsp, 0x18; pop rbx; pop rbp; ret; 
94187788827577: ret; 
94187788828238: ret; 
94187788824578: jmp qword ptr [rsi + 0x66]; 
94187788824777: jmp qword ptr [rsi + 0xf]; 
94187788824905: jmp qword ptr [rsi + 0xf]; 
94187788824969: jmp qword ptr [rsi + 0xf]; 
94187788825257: jmp qword ptr [rsi + 0xf]; 
94187788825789: jmp qword ptr [rsi - 0x70]; 
94187788825905: jmp qword ptr [rsi + 0xf]; 
94187788825929: jmp qword ptr [rsi + 0xf]; 
94187788825993: jmp qword ptr [rsi + 0xf]; 
94187788826406: jmp qword ptr [rsi + 0xf]; 
94187788826566: jmp qword ptr [rsi + 0xf]; 
94187788826601: jmp qword ptr [rsi + 0xf]; 
94187788826673: jmp qword ptr [rsi + 0x66]; 
94187788827485: jmp qword ptr [rsi - 0x70]; 
94187788827585: jmp qword ptr [rsi + 0xf]; 
94187788827705: jmp qword ptr [rsi + 0xf]; 
94187788827909: jmp qword ptr [rsi + 0x2e]; 
94187788828109: jmp qword ptr [rsi - 0x70]; 
94187788828107: in al, 0xff; jmp qword ptr [rsi - 0x70]; 
94187788826436: ret 3; 
94187788826782: ret 0x820f; 
94187788824942: call qword ptr [rax - 0x26f272b8]; 
94187788828805: ret; 
94187788828804: pop rdi; ret; 
94187788828803: pop r15; ret; 
94187788828802: pop rsi; pop r15; ret; 
94187788828801: pop r14; pop r15; ret; 
94187788828800: pop rbp; pop r14; pop r15; ret; 
94187788828799: pop r13; pop r14; pop r15; ret; 
94187788828798: pop rsp; pop r13; pop r14; pop r15; ret; 
94187788828797: pop r12; pop r13; pop r14; pop r15; ret; 
94187788829202: ret; 
94187788829201: clc; ret; 
94187788829200: add eax, edi; ret; 
94187788829199: add rax, rdi; ret; 
94187788829196: shl eax, 5; add rax, rdi; ret; 
94187788829195: shl rax, 5; add rax, rdi; ret; 
94187788829190: cmp eax, 0x69f95; shl rax, 5; add rax, rdi; ret; 
94187788829189: lea edi, dword ptr [rip + 0x69f95]; shl rax, 5; add rax, rdi; ret; 
94187788829188: lea rdi, qword ptr [rip + 0x69f95]; shl rax, 5; add rax, rdi; ret; 
94187788829187: dec dword ptr [rax - 0x73]; cmp eax, 0x69f95; shl rax, 5; add rax, rdi; ret; 
94187788829186: dec dword ptr [r8 - 0x73]; cmp eax, 0x69f95; shl rax, 5; add rax, rdi; ret; 
94187788829185: lea eax, dword ptr [rdi - 1]; lea rdi, qword ptr [rip + 0x69f95]; shl rax, 5; add rax, rdi; ret; 
94187788829184: lea rax, qword ptr [rdi - 1]; lea rdi, qword ptr [rip + 0x69f95]; shl rax, 5; add rax, rdi; ret; 
94187788829232: ret; 
94187788829230: cmp al, dh; ret; 
94187788829229: cmp al, r14b; ret; 
94187788829228: lea eax, dword ptr [rax + rdi - 0x10]; ret; 
94187788829227: lea rax, qword ptr [rax + rdi - 0x10]; ret; 
94187788829226: add byte ptr [rax - 0x73], cl; cmp al, r14b; ret; 
94187788829222: add eax, 0x69f75; lea rax, qword ptr [rax + rdi - 0x10]; ret; 
94187788829221: lea eax, dword ptr [rip + 0x69f75]; lea rax, qword ptr [rax + rdi - 0x10]; ret; 
94187788829220: lea rax, qword ptr [rip + 0x69f75]; lea rax, qword ptr [rax + rdi - 0x10]; ret; 
94187788829218: out 5, eax; lea rax, qword ptr [rip + 0x69f75]; lea rax, qword ptr [rax + rdi - 0x10]; ret; 
94187788829217: shl edi, 5; lea rax, qword ptr [rip + 0x69f75]; lea rax, qword ptr [rax + rdi - 0x10]; ret; 
94187788829216: shl rdi, 5; lea rax, qword ptr [rip + 0x69f75]; lea rax, qword ptr [rax + rdi - 0x10]; ret; 
94187788829215: nop; shl rdi, 5; lea rax, qword ptr [rip + 0x69f75]; lea rax, qword ptr [rax + rdi - 0x10]; ret; 
94187788829214: nop; shl rdi, 5; lea rax, qword ptr [rip + 0x69f75]; lea rax, qword ptr [rax + rdi - 0x10]; ret; 
94187788829213: add byte ptr [rsi - 0x70], ah; shl rdi, 5; lea rax, qword ptr [rip + 0x69f75]; lea rax, qword ptr [rax + rdi - 0x10]; ret; 
94187788829369: ret; 
94187788829368: pop rbp; ret; 
94187788829367: pop r13; ret; 
94187788829366: pop rsp; pop r13; ret; 
94187788829365: pop r12; pop r13; ret; 
94187788829364: pop rbp; pop r12; pop r13; ret; 
94187788829363: pop rbx; pop rbp; pop r12; pop r13; ret; 
94187788829362: or byte ptr [rbx + 0x5d], bl; pop r12; pop r13; ret; 
94187788829484: ret; 
94187788829483: pop rbp; ret; 
94187788829482: pop r13; ret; 
94187788829481: pop rsp; pop r13; ret; 
94187788829480: pop r12; pop r13; ret; 
94187788829479: pop rbp; pop r12; pop r13; ret; 
94187788829478: pop rbx; pop rbp; pop r12; pop r13; ret; 
94187788829477: or byte ptr [rbx + 0x5d], bl; pop r12; pop r13; ret; 
94187788829754: ret; 
94187788829753: pop rbp; ret; 
94187788829752: pop r13; ret; 
94187788829751: pop rsp; pop r13; ret; 
94187788829750: pop r12; pop r13; ret; 
94187788829749: pop rbp; pop r12; pop r13; ret; 
94187788829748: pop rbx; pop rbp; pop r12; pop r13; ret; 
94187788829747: rcr byte ptr [rbx + 0x5d], 0x41; pop rsp; pop r13; ret; 
94187788830396: ret; 
94187788830395: pop rdi; ret; 
94187788830394: pop r15; ret; 
94187788830393: pop rsi; pop r15; ret; 
94187788830392: pop r14; pop r15; ret; 
94187788830391: pop rbp; pop r14; pop r15; ret; 
94187788830390: pop r13; pop r14; pop r15; ret; 
94187788830389: pop rsp; pop r13; pop r14; pop r15; ret; 
94187788830388: pop r12; pop r13; pop r14; pop r15; ret; 
94187788831159: ret; 
94187788831158: pop rbp; ret; 
94187788831157: pop rbx; pop rbp; ret; 
94187788831156: fcomp dword ptr [rbx + 0x5d]; ret; 
94187788831155: mov eax, ebx; pop rbx; pop rbp; ret; 
94187788831154: mov rax, rbx; pop rbx; pop rbp; ret; 
94187788831153: or byte ptr [rax - 0x77], cl; fcomp dword ptr [rbx + 0x5d]; ret; 
94187788831151: add esp, 8; mov rax, rbx; pop rbx; pop rbp; ret; 
94187788831150: add rsp, 8; mov rax, rbx; pop rbx; pop rbp; ret; 
94187788831206: ret; 
94187788831203: dec dword ptr [rax - 0x39]; ret; 
94187788831401: ret; 
94187788831400: pop rdi; ret; 
94187788831399: pop r15; ret; 
94187788831398: pop rsi; pop r15; ret; 
94187788831397: pop r14; pop r15; ret; 
94187788831396: pop rbp; pop r14; pop r15; ret; 
94187788831395: pop r13; pop r14; pop r15; ret; 
94187788831394: pop rsp; pop r13; pop r14; pop r15; ret; 
94187788831393: pop r12; pop r13; pop r14; pop r15; ret; 
94187788831634: ret; 
94187788831831: ret; 
94187788831830: pop rdi; ret; 
94187788831829: pop r15; ret; 
94187788831828: pop rsi; pop r15; ret; 
94187788831827: pop r14; pop r15; ret; 
94187788831826: pop rbp; pop r14; pop r15; ret; 
94187788831825: pop r13; pop r14; pop r15; ret; 
94187788831824: pop rsp; pop r13; pop r14; pop r15; ret; 
94187788831823: pop r12; pop r13; pop r14; pop r15; ret; 
94187788831870: ret; 
94187788831869: pop rdi; ret; 
94187788831868: pop r15; ret; 
94187788831867: pop rsi; pop r15; ret; 
94187788831866: pop r14; pop r15; ret; 
94187788831865: pop rbp; pop r14; pop r15; ret; 
94187788831864: pop r13; pop r14; pop r15; ret; 
94187788831863: pop rsp; pop r13; pop r14; pop r15; ret; 
94187788831862: pop r12; pop r13; pop r14; pop r15; ret; 
94187788832298: ret; 
94187788832296: cmp byte ptr [rcx], al; ret; 
94187788832295: cmp byte ptr [rcx], r8b; ret; 
94187788832294: lea eax, dword ptr [rax + rdi + 1]; ret; 
94187788832293: lea rax, qword ptr [rax + rdi + 1]; ret; 
94187788832292: pop rsi; lea rax, qword ptr [rax + rdi + 1]; ret; 
94187788832291: pop r14; lea rax, qword ptr [rax + rdi + 1]; ret; 
94187788832290: pop rsp; pop r14; lea rax, qword ptr [rax + rdi + 1]; ret; 
94187788832289: pop r12; pop r14; lea rax, qword ptr [rax + rdi + 1]; ret; 
94187788832288: add eax, dword ptr [rcx + 0x5c]; pop r14; lea rax, qword ptr [rax + rdi + 1]; ret; 
94187788832287: out dx, eax; add eax, dword ptr [rcx + 0x5c]; pop r14; lea rax, qword ptr [rax + rdi + 1]; ret; 
94187788832286: shr edi, 3; pop r12; pop r14; lea rax, qword ptr [rax + rdi + 1]; ret; 
94187788832285: shr rdi, 3; pop r12; pop r14; lea rax, qword ptr [rax + rdi + 1]; ret; 
94187788832328: ret; 
94187788832327: pop rsi; ret; 
94187788832326: pop r14; ret; 
94187788832325: pop rsp; pop r14; ret; 
94187788832324: pop r12; pop r14; ret; 
94187788832323: pop rbp; pop r12; pop r14; ret; 
94187788832322: pop rbx; pop rbp; pop r12; pop r14; ret; 
94187788832321: rcr byte ptr [rbx + 0x5d], 0x41; pop rsp; pop r14; ret; 
94187788832338: ret; 
94187788832336: xor eax, eax; ret; 
94187788832334: add byte ptr [rax], al; xor eax, eax; ret; 
94187788832332: add byte ptr [rax], al; add byte ptr [rax], al; xor eax, eax; ret; 
94187788832331: add byte ptr [rax], 0; add byte ptr [rax], al; xor eax, eax; ret; 
94187788832329: nop dword ptr [rax]; xor eax, eax; ret; 
94187788832328: ret; 
94187788832367: ret; 
94187788832365: xor eax, eax; ret; 
94187788832363: add al, 0; xor eax, eax; ret; 
94187788832362: add byte ptr [rax + rax], al; xor eax, eax; ret; 
94187788832361: add byte ptr [rax], al; add al, 0; xor eax, eax; ret; 
94187788832359: mov dword ptr [rsi], 0x40000; xor eax, eax; ret; 
94187788832358: mov qword ptr [rsi], 0x40000; xor eax, eax; ret; 
94187788832355: push qword ptr [rbp + 7]; mov qword ptr [rsi], 0x40000; xor eax, eax; ret; 
94187788832354: push qword ptr ds:[rbp + 7]; mov qword ptr [rsi], 0x40000; xor eax, eax; ret; 
94187788832647: ret; 
94187788832645: xor eax, eax; ret; 
94187788832644: xor rax, rax; ret; 
94187788832643: xor rax, rax; ret; 
94187788832642: mov dword ptr [rdx + 0x48], eax; xor eax, eax; ret; 
94187788832641: mov qword ptr [rdx + 0x48], rax; xor eax, eax; ret; 
94187788832640: ror dword ptr [rax - 0x77], 0x42; xor rax, rax; ret; 
94187788832639: ror dword ptr [rax - 0x77], 0x42; xor rax, rax; ret; 
94187788832638: cmove eax, ecx; mov qword ptr [rdx + 0x48], rax; xor eax, eax; ret; 
94187788832637: cmove rax, rcx; mov qword ptr [rdx + 0x48], rax; xor eax, eax; ret; 
94187788832636: dec dword ptr [rax + 0xf]; ror dword ptr [rax - 0x77], 0x42; xor rax, rax; ret; 
94187788832635: clc; dec dword ptr [rax + 0xf]; ror dword ptr [rax - 0x77], 0x42; xor rax, rax; ret; 
94187788832634: cmp eax, -1; cmove rax, rcx; mov qword ptr [rdx + 0x48], rax; xor eax, eax; ret; 
94187788832633: cmp rax, -1; cmove rax, rcx; mov qword ptr [rdx + 0x48], rax; xor eax, eax; ret; 
94187788832726: ret; 
94187788832724: xor eax, eax; ret; 
94187788832721: mov dword ptr [rdx + 8], eax; xor eax, eax; ret; 
94187788832720: mov qword ptr [rdx + 8], rax; xor eax, eax; ret; 
94187788832717: cmove eax, ecx; mov qword ptr [rdx + 8], rax; xor eax, eax; ret; 
94187788832716: cmove rax, rcx; mov qword ptr [rdx + 8], rax; xor eax, eax; ret; 
94187788832713: cmp eax, -1; cmove rax, rcx; mov qword ptr [rdx + 8], rax; xor eax, eax; ret; 
94187788832712: cmp rax, -1; cmove rax, rcx; mov qword ptr [rdx + 8], rax; xor eax, eax; ret; 
94187788828981: jmp qword ptr [rsi + 0x2e]; 
94187788829129: jmp qword ptr [rsi + 0xf]; 
94187788829841: jmp qword ptr [rsi + 0xf]; 
94187788830665: jmp qword ptr [rsi + 0xf]; 
94187788831521: jmp qword ptr [rsi + 0xf]; 
94187788832001: jmp qword ptr [rsi + 0x2e]; 
94187788828877: ret 0x8b49; 
94187788828954: ret 0xff8b; 
94187788828952: fucomi st(0); ret 0xff8b; 
94187788828950: push qword ptr [rcx]; fucomi st(0); ret 0xff8b; 
94187788829050: ret 0x3ca; 
94187788829315: ret 0x8948; 
94187788829311: add byte ptr [rbp + rcx*4 + 0x45], cl; ret 0x8948; 
94187788829309: add dword ptr [rax], eax; add byte ptr [rbp + rcx*4 + 0x45], cl; ret 0x8948; 
94187788829318: ret 0x2b48; 
94187788829315: ret 0x8948; 
94187788829328: ret 0x870f; 
94187788830335: ret 0x2b48; 
94187788830332: add byte ptr [rax - 0x77], cl; ret 0x2b48; 
94187788830330: add dword ptr [rax], eax; add byte ptr [rax - 0x77], cl; ret 0x2b48; 
94187788830328: mov ebp, dword ptr [rax]; add dword ptr [rax], eax; add byte ptr [rax - 0x77], cl; ret 0x2b48; 
94187788830325: add byte ptr [rax - 0x75], cl; mov ebp, dword ptr [rax]; add dword ptr [rax], eax; add byte ptr [rax - 0x77], cl; ret 0x2b48; 
94187788831340: ret 0x4801; 
94187788831476: ret 0x4801; 
94187788831602: ret 0x8944; 
94187788831975: ret 0x8bf; 
94187788832230: ret 0xd348; 
94187788832265: ret 0x4801; 
94187788832804: ret; 
94187788832801: cmova eax, edx; ret; 
94187788832800: cmova rax, rdx; ret; 
94187788832798: add byte ptr [rax], al; cmova rax, rdx; ret; 
94187788832796: add byte ptr [rax], al; add byte ptr [rax], al; cmova rax, rdx; ret; 
94187788832795: mov edx, 0; cmova rax, rdx; ret; 
94187788832794: add byte ptr [rdx], bh; cmova rax, rdx; ret; 
94187788832793: add eax, dword ptr [rax]; mov edx, 0; cmova rax, rdx; ret; 
94187788832792: rol dword ptr [rbx], 0; mov edx, 0; cmova rax, rdx; ret; 
94187788832791: adc ecx, eax; add eax, dword ptr [rax]; mov edx, 0; cmova rax, rdx; ret; 
94187788832790: add eax, 0x3c111; mov edx, 0; cmova rax, rdx; ret; 
94187788832789: lea eax, dword ptr [rip + 0x3c111]; mov edx, 0; cmova rax, rdx; ret; 
94187788832788: lea rax, qword ptr [rip + 0x3c111]; mov edx, 0; cmova rax, rdx; ret; 
94187788832787: and byte ptr [rax - 0x73], cl; add eax, 0x3c111; mov edx, 0; cmova rax, rdx; ret; 
94187788832786: cmp ah, byte ptr [rax]; lea rax, qword ptr [rip + 0x3c111]; mov edx, 0; cmova rax, rdx; ret; 
94187788832785: cmp dword ptr [rdx], 0x20; lea rax, qword ptr [rip + 0x3c111]; mov edx, 0; cmova rax, rdx; ret; 
94187788832784: cmp qword ptr [rdx], 0x20; lea rax, qword ptr [rip + 0x3c111]; mov edx, 0; cmova rax, rdx; ret; 
94187788832783: movabs dword ptr [0x11058d48203a8348], eax; rol dword ptr [rbx], 0; mov edx, 0; cmova rax, rdx; ret; 
94187788832840: ret; 
94187788832853: ret; 
94187788832851: xor eax, eax; ret; 
94187788832849: mov dword ptr [rdx], esi; xor eax, eax; ret; 
94187788832848: mov qword ptr [rdx], rsi; xor eax, eax; ret; 
94187788832846: add byte ptr [rax], al; mov qword ptr [rdx], rsi; xor eax, eax; ret; 
94187788832844: add byte ptr [rax], al; add byte ptr [rax], al; mov qword ptr [rdx], rsi; xor eax, eax; ret; 
94187788832843: add byte ptr [rax], 0; add byte ptr [rax], al; mov qword ptr [rdx], rsi; xor eax, eax; ret; 
94187788832841: nop dword ptr [rax]; mov qword ptr [rdx], rsi; xor eax, eax; ret; 
94187788832840: ret; 
94187788832901: ret; 
94187788832898: add esp, 8; ret; 
94187788832897: add rsp, 8; ret; 
94187788832895: xor eax, eax; add rsp, 8; ret; 
94187788832890: call 0x55a9cdab37b0; xor eax, eax; add rsp, 8; ret; 
94187788832888: add byte ptr [rax], al; call 0x55a9cdab37b0; xor eax, eax; add rsp, 8; ret; 
94187788832885: mov edi, 5; call 0x55a9cdab37b0; xor eax, eax; add rsp, 8; ret; 
94187788832884: sar byte ptr [rdi + 5], cl; call 0x55a9cdab37b0; xor eax, eax; add rsp, 8; ret; 
94187788832957: ret; 
94187788832954: add esp, 8; ret; 
94187788832953: add rsp, 8; ret; 
94187788832950: mov dword ptr [rax + 0x10], edx; add rsp, 8; ret; 
94187788832949: mov qword ptr [rax + 0x10], rdx; add rsp, 8; ret; 
94187788832946: mov dword ptr [rax + 8], edx; mov qword ptr [rax + 0x10], rdx; add rsp, 8; ret; 
94187788832945: mov qword ptr [rax + 8], rdx; mov qword ptr [rax + 0x10], rdx; add rsp, 8; ret; 
94187788832943: mov dword ptr [rax], edx; mov qword ptr [rax + 8], rdx; mov qword ptr [rax + 0x10], rdx; add rsp, 8; ret; 
94187788832942: mov qword ptr [rax], rdx; mov qword ptr [rax + 8], rdx; mov qword ptr [rax + 0x10], rdx; add rsp, 8; ret; 
94187788833033: ret; 
94187788833030: add esp, 8; ret; 
94187788833029: add rsp, 8; ret; 
94187788833028: add rsp, 8; ret; 
94187788833027: push rax; add rsp, 8; ret; 
94187788833026: mov dword ptr [rax + 0x48], edx; add rsp, 8; ret; 
94187788833025: mov qword ptr [rax + 0x48], rdx; add rsp, 8; ret; 
94187788833024: mov qword ptr [rax + 0x48], rdx; add rsp, 8; ret; 
94187788833023: push rax; mov qword ptr [rax + 0x48], rdx; add rsp, 8; ret; 
94187788833022: mov dword ptr [rax + 0x40], edx; mov qword ptr [rax + 0x48], rdx; add rsp, 8; ret; 
94187788833021: mov qword ptr [rax + 0x40], rdx; mov qword ptr [rax + 0x48], rdx; add rsp, 8; ret; 
94187788833020: cmp byte ptr [rax - 0x77], cl; push rax; mov qword ptr [rax + 0x48], rdx; add rsp, 8; ret; 
94187788833074: ret; 
94187788833071: add esp, 8; ret; 
94187788833070: add rsp, 8; ret; 
94187788833064: mov dword ptr [rax], 0xffffffff; add rsp, 8; ret; 
94187788833063: mov qword ptr [rax], -1; add rsp, 8; ret; 
94187788833126: ret; 
94187788833123: sbb byte ptr [rax - 0x7d], cl; ret; 
94187788833122: push rbx; sbb byte ptr [rax - 0x7d], cl; ret; 
94187788833119: add byte ptr [rax - 0x75], cl; push rbx; sbb byte ptr [rax - 0x7d], cl; ret; 
94187788833118: add byte ptr [rax - 0x75], cl; push rbx; sbb byte ptr [rax - 0x7d], cl; ret; 
94187788833179: ret; 
94187788833178: pop rbp; ret; 
94187788833177: pop rbx; pop rbp; ret; 
94187788833176: lcall ptr [rbx + 0x5d]; ret; 
94187788833171: mov eax, 0xffffffff; pop rbx; pop rbp; ret; 
94187788833170: mov rax, -1; pop rbx; pop rbp; ret; 
94187788833167: add esp, 8; mov rax, -1; pop rbx; pop rbp; ret; 
94187788833166: add rsp, 8; mov rax, -1; pop rbx; pop rbp; ret; 
94187788833192: ret; 
94187788833191: pop rbp; ret; 
94187788833190: pop rbx; pop rbp; ret; 
94187788833188: xor eax, eax; pop rbx; pop rbp; ret; 
94187788833185: add esp, 8; xor eax, eax; pop rbx; pop rbp; ret; 
94187788833184: add rsp, 8; xor eax, eax; pop rbx; pop rbp; ret; 
94187788833195: ret; 
94187788833193: xor eax, eax; ret; 
94187788833192: ret; 
94187788833251: ret; 
94187788833249: xor eax, eax; ret; 
94187788833246: mov dword ptr [rsi + 8], eax; xor eax, eax; ret; 
94187788833245: mov qword ptr [rsi + 8], rax; xor eax, eax; ret; 
94187788833243: add al, 0; mov qword ptr [rsi + 8], rax; xor eax, eax; ret; 
94187788833241: sbb al, 0xc; add al, 0; mov qword ptr [rsi + 8], rax; xor eax, eax; ret; 
94187788833240: add eax, 0x40c1c; mov qword ptr [rsi + 8], rax; xor eax, eax; ret; 
94187788833239: lea eax, dword ptr [rip + 0x40c1c]; mov qword ptr [rsi + 8], rax; xor eax, eax; ret; 
94187788833238: lea rax, qword ptr [rip + 0x40c1c]; mov qword ptr [rsi + 8], rax; xor eax, eax; ret; 
94187788833236: mov dword ptr [rsi], eax; lea rax, qword ptr [rip + 0x40c1c]; mov qword ptr [rsi + 8], rax; xor eax, eax; ret; 
94187788833281: ret; 
94187788833279: xor eax, eax; ret; 
94187788833276: mov dword ptr [rsi + 8], eax; xor eax, eax; ret; 
94187788833275: mov qword ptr [rsi + 8], rax; xor eax, eax; ret; 
94187788833273: add eax, dword ptr [rax]; mov qword ptr [rsi + 8], rax; xor eax, eax; ret; 
94187788833270: add eax, 0x3bf5b; mov qword ptr [rsi + 8], rax; xor eax, eax; ret; 
94187788833269: lea eax, dword ptr [rip + 0x3bf5b]; mov qword ptr [rsi + 8], rax; xor eax, eax; ret; 
94187788833268: lea rax, qword ptr [rip + 0x3bf5b]; mov qword ptr [rsi + 8], rax; xor eax, eax; ret; 
94187788833266: mov dword ptr [rsi], eax; lea rax, qword ptr [rip + 0x3bf5b]; mov qword ptr [rsi + 8], rax; xor eax, eax; ret; 
94187788833304: ret; 
94187788833302: adc dword ptr [rsi], eax; ret; 
94187788833301: movups xmmword ptr [rsi], xmm0; ret; 
94187788833299: xor eax, eax; movups xmmword ptr [rsi], xmm0; ret; 
94187788833296: movq mm0, qword ptr [rax]; xor eax, eax; movups xmmword ptr [rsi], xmm0; ret; 
94187788833295: movdqu xmm0, xmmword ptr [rax]; xor eax, eax; movups xmmword ptr [rsi], xmm0; ret; 
94187788833294: add bl, dh; movq mm0, qword ptr [rax]; xor eax, eax; movups xmmword ptr [rsi], xmm0; ret; 
94187788833290: add eax, 0x64381; movdqu xmm0, xmmword ptr [rax]; xor eax, eax; movups xmmword ptr [rsi], xmm0; ret; 
94187788833289: lea eax, dword ptr [rip + 0x64381]; movdqu xmm0, xmmword ptr [rax]; xor eax, eax; movups xmmword ptr [rsi], xmm0; ret; 
94187788833288: lea rax, qword ptr [rip + 0x64381]; movdqu xmm0, xmmword ptr [rax]; xor eax, eax; movups xmmword ptr [rsi], xmm0; ret; 
94187788833338: ret; 
94187788833336: inc dword ptr [rax]; ret; 
94187788833332: mov dword ptr [rdx], 0xffffff; ret; 
94187788833331: mov qword ptr [rdx], 0xffffff; ret; 
94187788833328: add byte ptr [rsi + 0xd], dh; mov qword ptr [rdx], 0xffffff; ret; 
94187788833344: ret; 
94187788833342: add byte ptr [rax], al; ret; 
94187788833341: add byte ptr [rax], r8b; ret; 
94187788833339: nop dword ptr [rax + rax]; ret; 
94187788833338: ret; 
94187788833391: ret; 
94187788833388: add esp, 8; ret; 
94187788833387: add rsp, 8; ret; 
94187788833381: mov eax, 0xffffffff; add rsp, 8; ret; 
94187788833380: mov rax, -1; add rsp, 8; ret; 
94187788833375: call 0x55a9cdab37b0; mov rax, -1; add rsp, 8; ret; 
94187788833373: add byte ptr [rax], al; call 0x55a9cdab37b0; mov rax, -1; add rsp, 8; ret; 
94187788833403: ret; 
94187788833451: ret; 
94187788833448: add esp, 8; ret; 
94187788833447: add rsp, 8; ret; 
94187788833441: mov eax, 0xffffffff; add rsp, 8; ret; 
94187788833440: mov rax, -1; add rsp, 8; ret; 
94187788833435: call 0x55a9cdab37b0; mov rax, -1; add rsp, 8; ret; 
94187788833433: add byte ptr [rax], al; call 0x55a9cdab37b0; mov rax, -1; add rsp, 8; ret; 
94187788833480: ret; 
94187788833477: add esp, 8; ret; 
94187788833476: add rsp, 8; ret; 
94187788833475: or al, 0x48; add esp, 8; ret; 
94187788833473: pcmpeqw mm1, qword ptr [rax + rcx*2]; add esp, 8; ret; 
94187788833470: rol byte ptr [rbx + 0xc750fe2], 0x48; add esp, 8; ret; 
94187788833527: ret; 
94187788833524: add esp, 8; ret; 
94187788833523: add rsp, 8; ret; 
94187788833517: mov eax, 0xffffffff; add rsp, 8; ret; 
94187788833516: mov rax, -1; add rsp, 8; ret; 
94187788833511: call 0x55a9cdab37b0; mov rax, -1; add rsp, 8; ret; 
94187788833509: add eax, dword ptr [rax]; call 0x55a9cdab37b0; mov rax, -1; add rsp, 8; ret; 
94187788833508: add eax, dword ptr [r8]; call 0x55a9cdab37b0; mov rax, -1; add rsp, 8; ret; 
94187788833506: or eax, 0x341d9; call 0x55a9cdab37b0; mov rax, -1; add rsp, 8; ret; 
94187788833505: lea ecx, dword ptr [rip + 0x341d9]; call 0x55a9cdab37b0; mov rax, -1; add rsp, 8; ret; 
94187788833504: lea rcx, qword ptr [rip + 0x341d9]; call 0x55a9cdab37b0; mov rax, -1; add rsp, 8; ret; 
94187788833577: ret; 
94187788833574: add esp, 8; ret; 
94187788833573: add rsp, 8; ret; 
94187788833567: mov eax, 0xffffffff; add rsp, 8; ret; 
94187788833566: mov rax, -1; add rsp, 8; ret; 
94187788833561: call 0x55a9cdab37b0; mov rax, -1; add rsp, 8; ret; 
94187788833559: add byte ptr [rax], al; call 0x55a9cdab37b0; mov rax, -1; add rsp, 8; ret; 
94187788833692: ret; 
94187788833691: pop rsp; ret; 
94187788833690: pop r12; ret; 
94187788833689: pop rbp; pop r12; ret; 
94187788833688: pop rbx; pop rbp; pop r12; ret; 
94187788833687: xor byte ptr [rbx + 0x5d], bl; pop r12; ret; 
94187788833685: add esp, 0x30; pop rbx; pop rbp; pop r12; ret; 
94187788833684: add rsp, 0x30; pop rbx; pop rbp; pop r12; ret; 
94187788833946: ret; 
94187788833943: add esp, 8; ret; 
94187788833942: add rsp, 8; ret; 
94187788833940: xor eax, eax; add rsp, 8; ret; 
94187788833938: mov dword ptr [rax], ecx; xor eax, eax; add rsp, 8; ret; 
94187788833937: mov qword ptr [rax], rcx; xor eax, eax; add rsp, 8; ret; 
94187788833935: add byte ptr [rax], al; mov qword ptr [rax], rcx; xor eax, eax; add rsp, 8; ret; 
94187788833932: or eax, 0x1f; mov qword ptr [rax], rcx; xor eax, eax; add rsp, 8; ret; 
94187788833931: lea ecx, dword ptr [rip + 0x1f]; mov qword ptr [rax], rcx; xor eax, eax; add rsp, 8; ret; 
94187788833930: lea rcx, qword ptr [rip + 0x1f]; mov qword ptr [rax], rcx; xor eax, eax; add rsp, 8; ret; 
94187788834736: ret; 
94187788834735: pop rdi; ret; 
94187788834734: pop r15; ret; 
94187788834733: pop rsi; pop r15; ret; 
94187788834732: pop r14; pop r15; ret; 
94187788834731: pop rbp; pop r14; pop r15; ret; 
94187788834730: pop r13; pop r14; pop r15; ret; 
94187788834729: pop rsp; pop r13; pop r14; pop r15; ret; 
94187788834728: pop r12; pop r13; pop r14; pop r15; ret; 
94187788835579: ret; 
94187788835577: xor eax, eax; ret; 
94187788835575: mov dword ptr [rdx], eax; xor eax, eax; ret; 
94187788835574: mov qword ptr [rdx], rax; xor eax, eax; ret; 
94187788835573: ror dword ptr [rax - 0x77], 2; xor eax, eax; ret; 
94187788835572: ror dword ptr [rax - 0x77], 2; xor eax, eax; ret; 
94187788835571: cmove eax, ecx; mov qword ptr [rdx], rax; xor eax, eax; ret; 
94187788835570: cmove rax, rcx; mov qword ptr [rdx], rax; xor eax, eax; ret; 
94187788835569: dec dword ptr [rax + 0xf]; ror dword ptr [rax - 0x77], 2; xor eax, eax; ret; 
94187788835568: clc; dec dword ptr [rax + 0xf]; ror dword ptr [rax - 0x77], 2; xor eax, eax; ret; 
94187788835567: cmp eax, -1; cmove rax, rcx; mov qword ptr [rdx], rax; xor eax, eax; ret; 
94187788835566: cmp rax, -1; cmove rax, rcx; mov qword ptr [rdx], rax; xor eax, eax; ret; 
94187788835618: ret; 
94187788835615: add esp, 8; ret; 
94187788835614: add rsp, 8; ret; 
94187788835608: mov dword ptr [rax], 0xffffffff; add rsp, 8; ret; 
94187788835607: mov qword ptr [rax], -1; add rsp, 8; ret; 
94187788835690: ret; 
94187788835687: add esp, 8; ret; 
94187788835686: add rsp, 8; ret; 
94187788835684: xor eax, eax; add rsp, 8; ret; 
94187788835682: mov dword ptr [rax], ecx; xor eax, eax; add rsp, 8; ret; 
94187788835681: mov qword ptr [rax], rcx; xor eax, eax; add rsp, 8; ret; 
94187788835679: add byte ptr [rax], al; mov qword ptr [rax], rcx; xor eax, eax; add rsp, 8; ret; 
94187788835676: or eax, 0x1f; mov qword ptr [rax], rcx; xor eax, eax; add rsp, 8; ret; 
94187788835675: lea ecx, dword ptr [rip + 0x1f]; mov qword ptr [rax], rcx; xor eax, eax; add rsp, 8; ret; 
94187788835674: lea rcx, qword ptr [rip + 0x1f]; mov qword ptr [rax], rcx; xor eax, eax; add rsp, 8; ret; 
94187788836205: ret; 
94187788836204: pop rdi; ret; 
94187788836203: pop r15; ret; 
94187788836202: pop rsi; pop r15; ret; 
94187788836201: pop r14; pop r15; ret; 
94187788836200: pop rbp; pop r14; pop r15; ret; 
94187788836199: pop r13; pop r14; pop r15; ret; 
94187788836198: pop rsp; pop r13; pop r14; pop r15; ret; 
94187788836197: pop r12; pop r13; pop r14; pop r15; ret; 
94187788833872: jmp qword ptr [rsi + 0x2e]; 
94187788835237: jmp qword ptr [rsi + 0x2e]; 
94187788835366: jmp qword ptr [rsi + 0xf]; 
94187788835453: jmp qword ptr [rsi - 0x70]; 
94187788835538: jmp qword ptr [rsi + 0x2e]; 
94187788835536: mov bl, 0xf7; jmp qword ptr [rsi + 0x2e]; 
94187788836726: jmp qword ptr [rsi + 0xf]; 
94187788832803: ret 0x66c3; 
94187788832880: ret 3; 
94187788832937: ret 0xffff; 
94187788832934: adc cl, byte ptr [rax - 0x39]; ret 0xffff; 
94187788832932: sal byte ptr [rdx + rdx + 0x48], 0xc7; ret 0xffff; 
94187788832929: dec dword ptr [rax - 0x7b]; sal byte ptr [rdx + rdx + 0x48], 0xc7; ret 0xffff; 
94187788832985: ret 0xffff; 
94187788832980: sal byte ptr [rsi + rbp + 0x48], 0xc7; ret 0xffff; 
94187788832977: dec dword ptr [rax - 0x7b]; sal byte ptr [rsi + rbp + 0x48], 0xc7; ret 0xffff; 
94187788833725: ret 0x8b48; 
94187788834279: ret 0xfff9; 
94187788834278: push rsi; ret 0xfff9; 
94187788834276: out 0xe8, al; push rsi; ret 0xfff9; 
94187788834416: ret 0xe083; 
94187788835084: ret 0xf41; 
94187788835082: add al, 0x89; ret 0xf41; 
94187788835079: rol cl, 0xe0; add al, 0x89; ret 0xf41; 
94187788835078: xchg eax, ebp; rol cl, 0xe0; add al, 0x89; ret 0xf41; 
94187788835076: sbb byte ptr [rdi], cl; xchg eax, ebp; rol cl, 0xe0; add al, 0x89; ret 0xf41; 
94187788835110: ret 0xe083; 
94187788835109: xchg eax, esp; ret 0xe083; 
94187788835107: add byte ptr [rdi], cl; xchg eax, esp; ret 0xe083; 
94187788835105: add al, 0; add byte ptr [rdi], cl; xchg eax, esp; ret 0xe083; 
94187788835104: push 0xf000004; xchg eax, esp; ret 0xe083; 
94187788835103: wait; push 0xf000004; xchg eax, esp; ret 0xe083; 
94187788835806: ret 0x8b49; 
94187788835802: add byte ptr [rbx + rcx*4 + 0x34], cl; ret 0x8b49; 
94187788835799: sub byte ptr [rax - 0x75], cl; add byte ptr [rbx + rcx*4 + 0x34], cl; ret 0x8b49; 
94187788835798: push rdi; sub byte ptr [rax - 0x75], cl; add byte ptr [rbx + rcx*4 + 0x34], cl; ret 0x8b49; 
94187788835795: add byte ptr [rax - 0x75], cl; push rdi; sub byte ptr [rax - 0x75], cl; add byte ptr [rbx + rcx*4 + 0x34], cl; ret 0x8b49; 
94187788835851: ret 0x8b48; 
94187788836271: ret 0xe083; 
94187788836592: ret 0xf41; 
94187788836590: add al, 0x89; ret 0xf41; 
94187788836587: rol cl, 0xe0; add al, 0x89; ret 0xf41; 
94187788836586: xchg eax, ebp; rol cl, 0xe0; add al, 0x89; ret 0xf41; 
94187788836584: sbb byte ptr [rdi], cl; xchg eax, ebp; rol cl, 0xe0; add al, 0x89; ret 0xf41; 
94187788836618: ret 0xe083; 
94187788836617: xchg eax, esp; ret 0xe083; 
94187788836615: add byte ptr [rdi], cl; xchg eax, esp; ret 0xe083; 
94187788836613: add al, 0; add byte ptr [rdi], cl; xchg eax, esp; ret 0xe083; 
94187788836612: push 0xf000004; xchg eax, esp; ret 0xe083; 
94187788836611: wait; push 0xf000004; xchg eax, esp; ret 0xe083; 
94187788837090: ret; 
94187788837088: xor eax, eax; ret; 
94187788837087: nop; xor eax, eax; ret; 
94187788837086: nop; xor eax, eax; ret; 
94187788837084: idiv edi; nop; xor eax, eax; ret; 
94187788837083: lodsd eax, dword ptr [rsi]; idiv edi; nop; xor eax, eax; ret; 
94187788837082: mov dl, 0xad; idiv edi; nop; xor eax, eax; ret; 
94187788837081: call 0x55a9cda9ce90; nop; xor eax, eax; ret; 
94187788837214: ret; 
94187788837212: xor eax, eax; ret; 
94187788837209: mov dword ptr [rdx + 0x18], eax; xor eax, eax; ret; 
94187788837208: mov qword ptr [rdx + 0x18], rax; xor eax, eax; ret; 
94187788837205: cmove eax, ecx; mov qword ptr [rdx + 0x18], rax; xor eax, eax; ret; 
94187788837204: cmove rax, rcx; mov qword ptr [rdx + 0x18], rax; xor eax, eax; ret; 
94187788837201: cmp eax, -1; cmove rax, rcx; mov qword ptr [rdx + 0x18], rax; xor eax, eax; ret; 
94187788837200: cmp rax, -1; cmove rax, rcx; mov qword ptr [rdx + 0x18], rax; xor eax, eax; ret; 
94187788837262: ret; 
94187788837259: add esp, 8; ret; 
94187788837258: add rsp, 8; ret; 
94187788837255: mov dword ptr [rax + 0x18], edx; add rsp, 8; ret; 
94187788837254: mov qword ptr [rax + 0x18], rdx; add rsp, 8; ret; 
94187788837251: mov dword ptr [rax + 8], edx; mov qword ptr [rax + 0x18], rdx; add rsp, 8; ret; 
94187788837250: mov qword ptr [rax + 8], rdx; mov qword ptr [rax + 0x18], rdx; add rsp, 8; ret; 
94187788837247: mov dword ptr [rax + 0x10], edx; mov qword ptr [rax + 8], rdx; mov qword ptr [rax + 0x18], rdx; add rsp, 8; ret; 
94187788837246: mov qword ptr [rax + 0x10], rdx; mov qword ptr [rax + 8], rdx; mov qword ptr [rax + 0x18], rdx; add rsp, 8; ret; 
94187788837322: ret; 
94187788837319: add esp, 8; ret; 
94187788837318: add rsp, 8; ret; 
94187788837316: xor eax, eax; add rsp, 8; ret; 
94187788837314: mov dword ptr [rax], ecx; xor eax, eax; add rsp, 8; ret; 
94187788837313: mov qword ptr [rax], rcx; xor eax, eax; add rsp, 8; ret; 
94187788837311: add byte ptr [rax], al; mov qword ptr [rax], rcx; xor eax, eax; add rsp, 8; ret; 
94187788837308: or eax, 0x13ef; mov qword ptr [rax], rcx; xor eax, eax; add rsp, 8; ret; 
94187788837307: lea ecx, dword ptr [rip + 0x13ef]; mov qword ptr [rax], rcx; xor eax, eax; add rsp, 8; ret; 
94187788837306: lea rcx, qword ptr [rip + 0x13ef]; mov qword ptr [rax], rcx; xor eax, eax; add rsp, 8; ret; 
94187788837375: ret; 
94187788837374: pop rbx; ret; 
94187788837372: mov eax, ebx; pop rbx; ret; 
94187788837371: mov rax, rbx; pop rbx; ret; 
94187788837450: ret; 
94187788837449: pop rbx; ret; 
94187788837447: mov eax, ebx; pop rbx; ret; 
94187788837446: mov rax, rbx; pop rbx; ret; 
94187788837444: idiv edi; mov rax, rbx; pop rbx; ret; 
94187788837442: cmp bl, al; idiv edi; mov rax, rbx; pop rbx; ret; 
94187788837441: call 0x55a9cda9fa80; mov rax, rbx; pop rbx; ret; 
94187788837439: xor eax, eax; call 0x55a9cda9fa80; mov rax, rbx; pop rbx; ret; 
94187788837662: ret; 
94187788837661: pop rbp; ret; 
94187788837660: pop rbx; pop rbp; ret; 
94187788837659: or byte ptr [rbx + 0x5d], bl; ret; 
94187788837657: add esp, 8; pop rbx; pop rbp; ret; 
94187788837656: add rsp, 8; pop rbx; pop rbp; ret; 
94187788837655: ror byte ptr [rax - 0x7d], 0xc4; or byte ptr [rbx + 0x5d], bl; ret; 
94187788837654: xor eax, eax; add rsp, 8; pop rbx; pop rbp; ret; 
94187788837653: sbb byte ptr [rcx], dh; ror byte ptr [rax - 0x7d], 0xc4; or byte ptr [rbx + 0x5d], bl; ret; 
94187788837652: push rax; sbb byte ptr [rcx], dh; ror byte ptr [rax - 0x7d], 0xc4; or byte ptr [rbx + 0x5d], bl; ret; 
94187788837917: ret; 
94187788837916: pop rbp; ret; 
94187788837915: pop r13; ret; 
94187788837914: pop rsp; pop r13; ret; 
94187788837913: pop r12; pop r13; ret; 
94187788837912: pop rbp; pop r12; pop r13; ret; 
94187788837911: pop rbx; pop rbp; pop r12; pop r13; ret; 
94187788837910: or byte ptr [rbx + 0x5d], bl; pop r12; pop r13; ret; 
94187788838173: ret; 
94187788838172: pop rbp; ret; 
94187788838171: pop r13; ret; 
94187788838170: pop rsp; pop r13; ret; 
94187788838169: pop r12; pop r13; ret; 
94187788838168: pop rbp; pop r12; pop r13; ret; 
94187788838167: pop rbx; pop rbp; pop r12; pop r13; ret; 
94187788838166: or byte ptr [rbx + 0x5d], bl; pop r12; pop r13; ret; 
94187788838527: ret; 
94187788838526: pop rbp; ret; 
94187788838525: pop r13; ret; 
94187788838524: pop rsp; pop r13; ret; 
94187788838523: pop r12; pop r13; ret; 
94187788838522: pop rbp; pop r12; pop r13; ret; 
94187788838521: pop rbx; pop rbp; pop r12; pop r13; ret; 
94187788838520: cmp byte ptr [rbx + 0x5d], bl; pop r12; pop r13; ret; 
94187788838671: ret; 
94187788838670: pop rbp; ret; 
94187788838669: pop rbx; pop rbp; ret; 
94187788838667: xor eax, eax; pop rbx; pop rbp; ret; 
94187788838664: add esp, 8; xor eax, eax; pop rbx; pop rbp; ret; 
94187788838663: add rsp, 8; xor eax, eax; pop rbx; pop rbp; ret; 
94187788838747: ret; 
94187788838746: pop rbp; ret; 
94187788838745: pop rbx; pop rbp; ret; 
94187788838743: xor eax, eax; pop rbx; pop rbp; ret; 
94187788838740: add esp, 8; xor eax, eax; pop rbx; pop rbp; ret; 
94187788838739: add rsp, 8; xor eax, eax; pop rbx; pop rbp; ret; 
94187788839235: ret; 
94187788839234: pop rsi; ret; 
94187788839233: pop r14; ret; 
94187788839232: pop rbp; pop r14; ret; 
94187788839231: pop r13; pop r14; ret; 
94187788839230: pop rsp; pop r13; pop r14; ret; 
94187788839229: pop r12; pop r13; pop r14; ret; 
94187788839228: pop rbp; pop r12; pop r13; pop r14; ret; 
94187788839558: ret; 
94187788839573: ret; 
94187788839572: pop rbx; ret; 
94187788839570: mov eax, ebx; pop rbx; ret; 
94187788839569: mov rax, rbx; pop rbx; ret; 
94187788839566: add esi, dword ptr [rdi + 0xf]; mov rax, rbx; pop rbx; ret; 
94187788839565: add esi, dword ptr ds:[rdi + 0xf]; mov rax, rbx; pop rbx; ret; 
94187788839562: dec dword ptr [rax - 0x7d]; add esi, dword ptr ds:[rdi + 0xf]; mov rax, rbx; pop rbx; ret; 
94187788839558: ret; 
94187788839613: ret; 
94187788839612: pop rbx; ret; 
94187788839610: mov eax, ebx; pop rbx; ret; 
94187788839609: mov rax, rbx; pop rbx; ret; 
94187788839607: idiv edi; mov rax, rbx; pop rbx; ret; 
94187788839606: iretd; idiv edi; mov rax, rbx; pop rbx; ret; 
94187788839604: call 0x55a9cda9fa80; mov rax, rbx; pop rbx; ret; 
94187788839602: add byte ptr [rax], al; call 0x55a9cda9fa80; mov rax, rbx; pop rbx; ret; 
94187788839677: ret; 
94187788839674: test dword ptr [rax - 0x39], ecx; ret; 
94187788839670: add byte ptr [rax + rax*8 - 0x38b77a8b], al; ret; 
94187788839695: ret; 
94187788839694: pop rbx; ret; 
94187788839692: mov eax, ebx; pop rbx; ret; 
94187788839691: mov rax, rbx; pop rbx; ret; 
94187788839689: mov ebx, edx; mov rax, rbx; pop rbx; ret; 
94187788839688: mov rbx, rdx; mov rax, rbx; pop rbx; ret; 
94187788839684: nop dword ptr [rax]; mov rbx, rdx; mov rax, rbx; pop rbx; ret; 
94187788839677: ret; 
94187788839879: ret; 
94187788839878: pop rsp; ret; 
94187788839877: pop r12; ret; 
94187788839876: pop rbp; pop r12; ret; 
94187788839875: pop rbx; pop rbp; pop r12; ret; 
94187788839874: jo 0x55a9cdb22c1f; pop rbp; pop r12; ret; 
94187788839872: add esp, 0x70; pop rbx; pop rbp; pop r12; ret; 
94187788839871: add rsp, 0x70; pop rbx; pop rbp; pop r12; ret; 
94187788840249: ret; 
94187788840248: pop rdi; ret; 
94187788840247: pop r15; ret; 
94187788840246: pop rsi; pop r15; ret; 
94187788840245: pop r14; pop r15; ret; 
94187788840244: pop rbp; pop r14; pop r15; ret; 
94187788840243: pop r13; pop r14; pop r15; ret; 
94187788840242: pop rsp; pop r13; pop r14; pop r15; ret; 
94187788840241: pop r12; pop r13; pop r14; pop r15; ret; 
94187788840258: ret; 
94187788840255: add byte ptr [rax - 0x7d], cl; ret; 
94187788840249: ret; 
94187788837623: jmp qword ptr [rsi]; 
94187788837017: jmp qword ptr [rsi + 0xf]; 
94187788837085: jmp qword ptr [rsi - 0x70]; 
94187788837953: jmp qword ptr [rsi + 0xf]; 
94187788838209: jmp qword ptr [rsi + 0xf]; 
94187788838614: jmp qword ptr [rsi + 0xf]; 
94187788839373: jmp qword ptr [rsi - 0x70]; 
94187788839413: jmp qword ptr [rsi + 0x2e]; 
94187788839965: jmp qword ptr [rsi - 0x70]; 
94187788837241: ret 0xffff; 
94187788837238: adc ecx, dword ptr [rax - 0x39]; ret 0xffff; 
94187788837236: sal byte ptr [rbx + rdx + 0x48], 0xc7; ret 0xffff; 
94187788837233: dec dword ptr [rax - 0x7b]; sal byte ptr [rbx + rdx + 0x48], 0xc7; ret 0xffff; 
94187788838999: ret 0xb60f; 
94187788839828: ret 0xf4b8; 
94187788839825: dec dword ptr [rax - 0x77]; ret 0xf4b8; 
94187788839824: clc; dec dword ptr [rax - 0x77]; ret 0xf4b8; 
94187788840379: ret 0xffff; 
94187788840376: or byte ptr [rax - 0x39], cl; ret 0xffff; 
94187788839518: call qword ptr [rax - 0x97ab7ad]; 
94187788841436: ret; 
94187788841433: dec dword ptr [rax - 0x77]; ret; 
94187788841584: ret; 
94187788841581: dec dword ptr [rax - 0x77]; ret; 
94187788841753: ret; 
94187788841843: ret; 
94187788841840: dec dword ptr [rax - 0x77]; ret; 
94187788841838: idiv edi; dec dword ptr [rax - 0x77]; ret; 
94187788841837: lahf; idiv edi; dec dword ptr [rax - 0x77]; ret; 
94187788841835: out 0xe8, al; lahf; idiv edi; dec dword ptr [rax - 0x77]; ret; 
94187788842069: ret; 
94187788842066: dec dword ptr [rax - 0x77]; ret; 
94187788842231: ret; 
94187788842228: dec dword ptr [rax - 0x77]; ret; 
94187788842335: ret; 
94187788842334: pop rbp; ret; 
94187788842333: pop rbx; pop rbp; ret; 
94187788842331: xor eax, eax; pop rbx; pop rbp; ret; 
94187788842328: add esp, 8; xor eax, eax; pop rbx; pop rbp; ret; 
94187788842327: add rsp, 8; xor eax, eax; pop rbx; pop rbp; ret; 
94187788842411: ret; 
94187788842410: pop rbp; ret; 
94187788842409: pop rbx; pop rbp; ret; 
94187788842407: xor eax, eax; pop rbx; pop rbp; ret; 
94187788842404: add esp, 8; xor eax, eax; pop rbx; pop rbp; ret; 
94187788842403: add rsp, 8; xor eax, eax; pop rbx; pop rbp; ret; 
94187788842524: ret; 
94187788842521: dec dword ptr [rax - 0x77]; ret; 
94187788842519: idiv bh; dec dword ptr [rax - 0x77]; ret; 
94187788842560: ret; 
94187788842559: pop rbp; ret; 
94187788842558: pop rbx; pop rbp; ret; 
94187788842557: add byte ptr [rbx + 0x5d], bl; ret; 
94187788842556: add byte ptr [rax], al; pop rbx; pop rbp; ret; 
94187788842555: add byte ptr [rax], al; add byte ptr [rbx + 0x5d], bl; ret; 
94187788842552: add esp, 0xc8; pop rbx; pop rbp; ret; 
94187788842551: add rsp, 0xc8; pop rbx; pop rbp; ret; 
94187788842549: add byte ptr [rax], al; add rsp, 0xc8; pop rbx; pop rbp; ret; 
94187788842851: ret; 
94187788842866: ret; 
94187788842863: add byte ptr [rax - 0x39], cl; ret; 
94187788843139: ret; 
94187788843136: dec dword ptr [rax - 0x77]; ret; 
94187788843135: cld; dec dword ptr [rax - 0x77]; ret; 
94187788843134: mov ecx, 0x8948fffc; ret; 
94187788843129: add eax, 0x2fe80000; mov ecx, 0x8948fffc; ret; 
94187788843127: xchg dword ptr [rsi], edx; add eax, 0x2fe80000; mov ecx, 0x8948fffc; ret; 
94187788843423: ret; 
94187788843420: dec dword ptr [rax - 0x77]; ret; 
94187788843418: call 0x55a956fb399e; ret; 
94187788843417: call 0x55a956fb399e; ret; 
94187788843415: add al, ch; call 0x55a956fb399e; ret; 
94187788843413: add dword ptr [rax], eax; add al, ch; call 0x55a956fb399e; ret; 
94187788843412: cdq; add dword ptr [rax], eax; add al, ch; call 0x55a956fb399e; ret; 
94187788843628: ret; 
94187788843625: dec dword ptr [rax - 0x77]; ret; 
94187788843735: ret; 
94187788843732: dec dword ptr [rax - 0x77]; ret; 
94187788843730: out 0xff, eax; dec dword ptr [rax - 0x77]; ret; 
94187788843999: ret; 
94187788843997: xor eax, eax; ret; 
94187788843994: mov dword ptr [rdx + 0x18], eax; xor eax, eax; ret; 
94187788843993: mov qword ptr [rdx + 0x18], rax; xor eax, eax; ret; 
94187788843990: cmove eax, ecx; mov qword ptr [rdx + 0x18], rax; xor eax, eax; ret; 
94187788843989: cmove rax, rcx; mov qword ptr [rdx + 0x18], rax; xor eax, eax; ret; 
94187788843986: cmp eax, -1; cmove rax, rcx; mov qword ptr [rdx + 0x18], rax; xor eax, eax; ret; 
94187788843985: cmp rax, -1; cmove rax, rcx; mov qword ptr [rdx + 0x18], rax; xor eax, eax; ret; 
94187788844049: ret; 
94187788844046: add esp, 8; ret; 
94187788844045: add rsp, 8; ret; 
94187788844042: mov dword ptr [rax + 0x18], edx; add rsp, 8; ret; 
94187788844041: mov qword ptr [rax + 0x18], rdx; add rsp, 8; ret; 
94187788844038: mov dword ptr [rax + 0x10], edx; mov qword ptr [rax + 0x18], rdx; add rsp, 8; ret; 
94187788844037: mov qword ptr [rax + 0x10], rdx; mov qword ptr [rax + 0x18], rdx; add rsp, 8; ret; 
94187788844034: mov dword ptr [rax + 8], edx; mov qword ptr [rax + 0x10], rdx; mov qword ptr [rax + 0x18], rdx; add rsp, 8; ret; 
94187788844033: mov qword ptr [rax + 8], rdx; mov qword ptr [rax + 0x10], rdx; mov qword ptr [rax + 0x18], rdx; add rsp, 8; ret; 
94187788844122: ret; 
94187788844119: add esp, 8; ret; 
94187788844118: add rsp, 8; ret; 
94187788844116: xor eax, eax; add rsp, 8; ret; 
94187788844114: mov dword ptr [rax], ecx; xor eax, eax; add rsp, 8; ret; 
94187788844113: mov qword ptr [rax], rcx; xor eax, eax; add rsp, 8; ret; 
94187788844111: add byte ptr [rax], al; mov qword ptr [rax], rcx; xor eax, eax; add rsp, 8; ret; 
94187788844108: or eax, 0x3af; mov qword ptr [rax], rcx; xor eax, eax; add rsp, 8; ret; 
94187788844107: lea ecx, dword ptr [rip + 0x3af]; mov qword ptr [rax], rcx; xor eax, eax; add rsp, 8; ret; 
94187788844106: lea rcx, qword ptr [rip + 0x3af]; mov qword ptr [rax], rcx; xor eax, eax; add rsp, 8; ret; 
94187788844185: ret; 
94187788844183: add byte ptr [rax], al; ret; 
94187788844181: add dword ptr [rax], eax; add byte ptr [rax], al; ret; 
94187788844180: mov eax, 1; ret; 
94187788844179: in eax, dx; mov eax, 1; ret; 
94187788844191: ret; 
94187788844186: mov eax, 0xffffffff; ret; 
94187788844185: ret; 
94187788844243: ret; 
94187788844240: sub eax, 1; ret; 
94187788844239: sub rax, 1; ret; 
94187788844237: add byte ptr [rax], al; sub rax, 1; ret; 
94187788844234: and eax, 0x1f5; sub rax, 1; ret; 
94187788844233: shl byte ptr [rip + 0x1f5], 0x48; sub eax, 1; ret; 
94187788844232: sbb eax, eax; and eax, 0x1f5; sub rax, 1; ret; 
94187788844231: sbb rax, rax; and eax, 0x1f5; sub rax, 1; ret; 
94187788844230: add dword ptr [rax + 0x19], ecx; shl byte ptr [rip + 0x1f5], 0x48; sub eax, 1; ret; 
94187788844229: cmp al, 1; sbb rax, rax; and eax, 0x1f5; sub rax, 1; ret; 
94187788844228: and byte ptr [rcx + rax], bh; sbb rax, rax; and eax, 0x1f5; sub rax, 1; ret; 
94187788844469: ret; 
94187788844468: pop rdi; ret; 
94187788844467: pop r15; ret; 
94187788844466: pop rsi; pop r15; ret; 
94187788844465: pop r14; pop r15; ret; 
94187788844464: pop rbp; pop r14; pop r15; ret; 
94187788844463: pop r13; pop r14; pop r15; ret; 
94187788844462: pop rsp; pop r13; pop r14; pop r15; ret; 
94187788844461: pop r12; pop r13; pop r14; pop r15; ret; 
94187788841165: jmp qword ptr [rsi - 0x70]; 
94187788841197: jmp qword ptr [rsi - 0x70]; 
94187788842272: jmp qword ptr [rsi + 0x66]; 
94187788843117: jmp qword ptr [rsi + 0x25]; 
94187788843161: jmp qword ptr [rsi + 0xf]; 
94187788843158: cmp ebp, -1; jmp qword ptr [rsi + 0xf]; 
94187788843156: fsubr st(1); cmp ebp, -1; jmp qword ptr [rsi + 0xf]; 
94187788843155: fsubr st(1); cmp ebp, -1; jmp qword ptr [rsi + 0xf]; 
94187788843152: dec dword ptr [rax + 0xf]; fsubr st(1); cmp ebp, -1; jmp qword ptr [rsi + 0xf]; 
94187788843377: jmp qword ptr [rsi + 0xf]; 
94187788843462: jmp qword ptr [rsi + 0xf]; 
94187788843645: jmp qword ptr [rsi - 0x70]; 
94187788843876: jmp qword ptr [rsi + 0x2e]; 
94187788844173: jmp qword ptr [rsi - 0x70]; 
94187788844841: jmp qword ptr [rsi + 0xf]; 
94187788842960: ret 0xfff7; 
94187788842959: lodsd eax, dword ptr [rsi]; ret 0xfff7; 
94187788842957: shr al, 0xad; ret 0xfff7; 
94187788842955: add byte ptr [rcx], dh; shr al, 0xad; ret 0xfff7; 
94187788842953: add byte ptr [rax], al; add byte ptr [rcx], dh; shr al, 0xad; ret 0xfff7; 
94187788843056: ret 0xfff7; 
94187788843053: shr al, 0x4d; ret 0xfff7; 
94187788843051: add byte ptr [rcx], dh; shr al, 0x4d; ret 0xfff7; 
94187788843049: add byte ptr [rax], al; add byte ptr [rcx], dh; shr al, 0x4d; ret 0xfff7; 
94187788843042: movabs eax, dword ptr [0x4bfd2310003]; add byte ptr [rcx], dh; shr al, 0x4d; ret 0xfff7; 
94187788843041: pop rbx; movabs eax, dword ptr [0x4bfd2310003]; add byte ptr [rcx], dh; shr al, 0x4d; ret 0xfff7; 
94187788843719: ret 0x8d48; 
94187788843718: xchg eax, esp; ret 0x8d48; 
94187788843750: ret 0xffff; 
94187788843747: add byte ptr [rax - 0x39], cl; ret 0xffff; 
94187788843745: add dword ptr [rax], eax; add byte ptr [rax - 0x39], cl; ret 0xffff; 
94187788843743: mov bl, 0x88; add dword ptr [rax], eax; add byte ptr [rax - 0x39], cl; ret 0xffff; 
94187788843740: dec dword ptr [rax - 0x75]; mov bl, 0x88; add dword ptr [rax], eax; add byte ptr [rax - 0x39], cl; ret 0xffff; 
94187788844025: ret 0xffff; 
94187788844020: sal byte ptr [rsi + rdx + 0x48], 0xc7; ret 0xffff; 
94187788844017: dec dword ptr [rax - 0x7b]; sal byte ptr [rsi + rdx + 0x48], 0xc7; ret 0xffff; 
94187788844437: ret 0x894c; 
94187788844443: ret 0x394c; 
94187788844437: ret 0x894c; 
94187788844583: ret 1; 
94187788841134: call qword ptr [rax + 0x8478b48]; 
94187788843294: call qword ptr [rax + 0x8478b48]; 
94187788551454: ret; 
94187788551453: pop rbp; ret; 
94187788551452: pop rbx; pop rbp; ret; 
94187788551451: sub byte ptr [rbx + 0x5d], bl; ret; 
94187788551449: add esp, 0x28; pop rbx; pop rbp; ret; 
94187788551448: add rsp, 0x28; pop rbx; pop rbp; ret; 
94187788551446: add byte ptr [rax], al; add rsp, 0x28; pop rbx; pop rbp; ret; 
94187788551991: ret; 
94187788551988: add byte ptr [rax - 0x7d], cl; ret; 
94187788551986: add dword ptr [rax], eax; add byte ptr [rax - 0x7d], cl; ret; 
94187788551984: test dword ptr [rbx], edi; add dword ptr [rax], eax; add byte ptr [rax - 0x7d], cl; ret; 
94187788552236: ret; 
94187788552235: pop rdi; ret; 
94187788552234: pop r15; ret; 
94187788552233: pop rsi; pop r15; ret; 
94187788552232: pop r14; pop r15; ret; 
94187788552231: pop rbp; pop r14; pop r15; ret; 
94187788552230: pop r13; pop r14; pop r15; ret; 
94187788552229: pop rsp; pop r13; pop r14; pop r15; ret; 
94187788552228: pop r12; pop r13; pop r14; pop r15; ret; 
94187788552626: ret; 
94187788552625: pop rdi; ret; 
94187788552624: pop r15; ret; 
94187788552623: pop rsi; pop r15; ret; 
94187788552622: pop r14; pop r15; ret; 
94187788552621: pop rbp; pop r14; pop r15; ret; 
94187788552620: pop r13; pop r14; pop r15; ret; 
94187788552619: pop rsp; pop r13; pop r14; pop r15; ret; 
94187788552618: pop r12; pop r13; pop r14; pop r15; ret; 
94187788552954: ret; 
94187788552951: xor byte ptr [rax - 0x7d], cl; ret; 
94187788553033: ret; 
94187788553030: add dword ptr [rax - 0x7d], ecx; ret; 
94187788553220: ret; 
94187788553219: pop rdi; ret; 
94187788553218: pop r15; ret; 
94187788553217: pop rsi; pop r15; ret; 
94187788553216: pop r14; pop r15; ret; 
94187788553215: pop rbp; pop r14; pop r15; ret; 
94187788553214: pop r13; pop r14; pop r15; ret; 
94187788553213: pop rsp; pop r13; pop r14; pop r15; ret; 
94187788553212: pop r12; pop r13; pop r14; pop r15; ret; 
94187788553565: ret; 
94187788553847: ret; 
94187788553846: pop rdi; ret; 
94187788553845: pop r15; ret; 
94187788553844: pop rsi; pop r15; ret; 
94187788553843: pop r14; pop r15; ret; 
94187788553842: pop rbp; pop r14; pop r15; ret; 
94187788553841: pop r13; pop r14; pop r15; ret; 
94187788553840: pop rsp; pop r13; pop r14; pop r15; ret; 
94187788553839: pop r12; pop r13; pop r14; pop r15; ret; 
94187788550273: jmp qword ptr [rsi + 0xf]; 
94187788550271: idiv bh; jmp qword ptr [rsi + 0xf]; 
94187788550270: xchg eax, ecx; idiv bh; jmp qword ptr [rsi + 0xf]; 
94187788550268: add cl, ch; xchg eax, ecx; idiv bh; jmp qword ptr [rsi + 0xf]; 
94187788550266: add byte ptr [rax], al; add cl, ch; xchg eax, ecx; idiv bh; jmp qword ptr [rsi + 0xf]; 
94187788550705: jmp qword ptr [rsi + 0xf]; 
94187788550757: jmp qword ptr [rsi + 0x2e]; 
94187788551061: jmp qword ptr [rsi + 0x2e]; 
94187788551060: cld; jmp qword ptr [rsi + 0x2e]; 
94187788551059: or bh, ah; jmp qword ptr [rsi + 0x2e]; 
94187788551058: cli; or bh, ah; jmp qword ptr [rsi + 0x2e]; 
94187788551593: jmp qword ptr [rsi + 0xf]; 
94187788552105: jmp qword ptr [rsi + 0xf]; 
94187788552150: jmp qword ptr [rsi + 0xf]; 
94187788552374: jmp qword ptr [rsi + 0xf]; 
94187788552835: jmp qword ptr [rsi + 0x66]; 
94187788554006: jmp qword ptr [rsi + 0xf]; 
94187788550363: ret 0x8948; 
94187788550403: ret 0x8948; 
94187788551126: ret 0x8948; 
94187788551232: ret 0x820f; 
94187788551268: ret 0x8948; 
94187788551305: ret 0x8948; 
94187788551342: ret 0x8948; 
94187788551479: ret 0x830f; 
94187788551624: ret 0x4801; 
94187788551621: add dword ptr [rax - 0x7d], ecx; ret 0x4801; 
94187788552180: ret 0xb60f; 
94187788553402: ret 1; 
94187788554200: ret 0xd138; 
94187788554199: xchg eax, ebp; ret 0xd138; 
94187788554197: ror byte ptr [rdi], 0x95; ret 0xd138; 
94187788554194: add byte ptr [rax - 0x7b], cl; ror byte ptr [rdi], 0x95; ret 0xd138; 
94187788554192: add dword ptr [rdi], eax; add byte ptr [rax - 0x7b], cl; ror byte ptr [rdi], 0x95; ret 0xd138; 
94187788550686: call qword ptr [rax - 0x36fa72b8]; 
94187788552062: call qword ptr [rax + 0x48d1894d]; 
94187788554030: call qword ptr [rax + 0x48d88949]; 
94187788554297: ret; 
94187788554296: pop rdi; ret; 
94187788554295: pop r15; ret; 
94187788554294: pop rsi; pop r15; ret; 
94187788554293: pop r14; pop r15; ret; 
94187788554292: pop rbp; pop r14; pop r15; ret; 
94187788554291: pop r13; pop r14; pop r15; ret; 
94187788554290: pop rsp; pop r13; pop r14; pop r15; ret; 
94187788554289: pop r12; pop r13; pop r14; pop r15; ret; 
94187788555028: ret; 
94187788555025: or byte ptr [rax - 0x7d], cl; ret; 
94187788555024: or byte ptr [r8 - 0x7d], r9b; ret; 
94187788555021: dec dword ptr [rcx - 0x75]; or byte ptr [r8 - 0x7d], r9b; ret; 
94187788555020: cld; dec dword ptr [rcx - 0x75]; or byte ptr [r8 - 0x7d], r9b; ret; 
94187788555019: push -4; dec dword ptr [rcx - 0x75]; or byte ptr [r8 - 0x7d], r9b; ret; 
94187788555494: ret; 
94187788555493: pop rdi; ret; 
94187788555492: pop r15; ret; 
94187788555491: pop rsi; pop r15; ret; 
94187788555490: pop r14; pop r15; ret; 
94187788555489: pop rbp; pop r14; pop r15; ret; 
94187788555488: pop r13; pop r14; pop r15; ret; 
94187788555487: pop rsp; pop r13; pop r14; pop r15; ret; 
94187788555486: pop r12; pop r13; pop r14; pop r15; ret; 
94187788555684: ret; 
94187788555681: add byte ptr [rax - 0x39], cl; ret; 
94187788555679: add dword ptr [rax], eax; add byte ptr [rax - 0x39], cl; ret; 
94187788555677: and al, 0x10; add dword ptr [rax], eax; add byte ptr [rax - 0x39], cl; ret; 
94187788555676: test byte ptr [rax + rdx], ah; add dword ptr [rax], eax; add byte ptr [rax - 0x39], cl; ret; 
94187788555671: sal byte ptr [rsi + rbx*2 + 0x4c], 0x8b; test byte ptr [rax + rdx], ah; add dword ptr [rax], eax; add byte ptr [rax - 0x39], cl; ret; 
94187788555764: ret; 
94187788555763: pop rdi; ret; 
94187788555762: pop r15; ret; 
94187788555761: pop rsi; pop r15; ret; 
94187788555760: pop r14; pop r15; ret; 
94187788555759: pop rbp; pop r14; pop r15; ret; 
94187788555758: pop r13; pop r14; pop r15; ret; 
94187788555757: pop rsp; pop r13; pop r14; pop r15; ret; 
94187788555756: pop r12; pop r13; pop r14; pop r15; ret; 
94187788555943: ret; 
94187788555940: add byte ptr [rax - 0x7d], cl; ret; 
94187788555938: add dword ptr [rax], eax; add byte ptr [rax - 0x7d], cl; ret; 
94187788555936: xchg bl, cl; add dword ptr [rax], eax; add byte ptr [rax - 0x7d], cl; ret; 
94187788555934: add cl, byte ptr [rdi]; xchg bl, cl; add dword ptr [rax], eax; add byte ptr [rax - 0x7d], cl; ret; 
94187788556382: ret; 
94187788556379: add dword ptr [rax - 0x7d], ecx; ret; 
94187788556446: ret; 
94187788556443: add dword ptr [rax - 0x7d], ecx; ret; 
94187788556580: ret; 
94187788556577: dec dword ptr [rax - 0x39]; ret; 
94187788556576: std; dec dword ptr [rax - 0x39]; ret; 
94187788556575: pop rsi; std; dec dword ptr [rax - 0x39]; ret; 
94187788556574: mov ds, word ptr [rsi - 3]; dec dword ptr [rax - 0x39]; ret; 
94187788556572: shr al, 0x8e; pop rsi; std; dec dword ptr [rax - 0x39]; ret; 
94187788557130: ret; 
94187788557128: add cl, ch; ret; 
94187788557593: ret; 
94187788557591: xor al, ch; ret; 
94187788555883: call rax; 
94187788557978: call rax; 
94187788557976: mov edi, ebx; call rax; 
94187788557975: mov rdi, rbx; call rax; 
94187788558027: call rax; 
94187788558025: mov edi, ebx; call rax; 
94187788558024: mov rdi, rbx; call rax; 
94187788554470: jmp qword ptr [rsi + 0xf]; 
94187788555539: jmp qword ptr [rsi + 0x66]; 
94187788555538: sti; jmp qword ptr [rsi + 0x66]; 
94187788555537: stc; sti; jmp qword ptr [rsi + 0x66]; 
94187788556393: jmp qword ptr [rsi + 0xf]; 
94187788556589: jmp qword ptr [rsi - 0x70]; 
94187788556981: jmp qword ptr [rsi + 0x2e]; 
94187788557081: jmp qword ptr [rsi - 0x7f]; 
94187788557764: jmp qword ptr [rsi + 0x66]; 
94187788555890: ret 0xb60f; 
94187788555885: call 0x55a956b6b6f5; ret 0xb60f; 
94187788555883: call rax; call 0x55a956b6b6f5; ret 0xb60f; 
94187788555876: movabs al, byte ptr [0xd0ffffffff000001]; call 0x55a956b6b6f5; ret 0xb60f; 
94187788555987: ret 0xda80; 
94187788555986: xchg eax, edi; ret 0xda80; 
94187788556014: ret 0xda80; 
94187788556013: xchg eax, edi; ret 0xda80; 
94187788556045: ret 0xda80; 
94187788556044: xchg eax, edi; ret 0xda80; 
94187788556076: ret 0xda80; 
94187788556075: xchg eax, edi; ret 0xda80; 
94187788556107: ret 0xda80; 
94187788556106: xchg eax, edi; ret 0xda80; 
94187788556138: ret 0xda80; 
94187788556137: xchg eax, edi; ret 0xda80; 
94187788556169: ret 0xda80; 
94187788556168: xchg eax, edi; ret 0xda80; 
94187788556200: ret 0xda80; 
94187788556199: xchg eax, edi; ret 0xda80; 
94187788556231: ret 0xda80; 
94187788556230: xchg eax, edi; ret 0xda80; 
94187788556262: ret 0xda80; 
94187788556261: xchg eax, edi; ret 0xda80; 
94187788556312: ret 0xda80; 
94187788556311: xchg eax, edi; ret 0xda80; 
94187788556343: ret 0xda80; 
94187788556342: xchg eax, edi; ret 0xda80; 
94187788556683: ret 0xda80; 
94187788556682: xchg eax, edi; ret 0xda80; 
94187788556714: ret 0xda80; 
94187788556713: xchg eax, edi; ret 0xda80; 
94187788556745: ret 0xda80; 
94187788556744: xchg eax, edi; ret 0xda80; 
94187788556776: ret 0xda80; 
94187788556775: xchg eax, edi; ret 0xda80; 
94187788556807: ret 0xda80; 
94187788556806: xchg eax, edi; ret 0xda80; 
94187788556842: ret 0xda80; 
94187788556841: xchg eax, edi; ret 0xda80; 
94187788556873: ret 0xda80; 
94187788556872: xchg eax, edi; ret 0xda80; 
94187788557166: ret 0xda80; 
94187788557165: xchg eax, edi; ret 0xda80; 
94187788557303: ret 0x4801; 
94187788557458: ret 0x1075; 
94187788557455: cmp cl, byte ptr [rax - 0x77]; ret 0x1075; 
94187788557453: jp 0x55a9cdaddc90; cmp cl, byte ptr [rax - 0x77]; ret 0x1075; 
94187788557449: sal dword ptr [rsi - 0x5c], -0x80; jp 0x55a9cdaddc90; cmp cl, byte ptr [rax - 0x77]; ret 0x1075; 
94187788557446: cmp byte ptr [rax + 0x39], cl; sal dword ptr [rsi - 0x5c], -0x80; jp 0x55a9cdaddc90; cmp cl, byte ptr [rax - 0x77]; ret 0x1075; 
94187788557479: ret 0x4801; 
94187788557598: ret 0x8489; 
94187788558109: ret 0x8b48; 
94187788558105: add byte ptr [rbx + rcx*4 + 0x24], cl; ret 0x8b48; 
94187788558102: or byte ptr [rax - 0x75], cl; add byte ptr [rbx + rcx*4 + 0x24], cl; ret 0x8b48; 
94187788558101: push rbp; or byte ptr [rax - 0x75], cl; add byte ptr [rbx + rcx*4 + 0x24], cl; ret 0x8b48; 
94187788558098: add byte ptr [rax - 0x75], cl; push rbp; or byte ptr [rax - 0x75], cl; add byte ptr [rbx + rcx*4 + 0x24], cl; ret 0x8b48; 
94187788558122: ret 0x20e8; 
94187788556430: call qword ptr [rax - 0x6bdb7380]; 
94187788556910: call qword ptr [rax + 0x49038b48]; 
94187788557006: call qword ptr [rax - 0x6bdb7380]; 
94187788472338: ret; 
94187788472335: add byte ptr [rax - 0x7d], cl; ret; 
94187788472394: ret; 
94187788472409: ret; 
94187788472440: ret; 
94187788472439: pop rbp; ret; 
94187788472438: pop r13; ret; 
94187788472437: pop rsp; pop r13; ret; 
94187788472436: pop r12; pop r13; ret; 
94187788472435: pop rbp; pop r12; pop r13; ret; 
94187788472434: pop rbx; pop rbp; pop r12; pop r13; ret; 
94187788472433: or byte ptr [rbx + 0x5d], bl; pop r12; pop r13; ret; 
94187788472532: ret; 
94187788472529: add byte ptr [rax - 0x7d], cl; ret; 
94187788472527: add dword ptr [rax], eax; add byte ptr [rax - 0x7d], cl; ret; 
94187788472526: add dword ptr cs:[rax], eax; add byte ptr [rax - 0x7d], cl; ret; 
94187788472525: test byte ptr [rsi], ch; add dword ptr [rax], eax; add byte ptr [rax - 0x7d], cl; ret; 
94187788472523: dec dword ptr [rdi]; test byte ptr [rsi], ch; add dword ptr [rax], eax; add byte ptr [rax - 0x7d], cl; ret; 
94187788472551: ret; 
94187788472548: dec dword ptr [rax - 0x7d]; ret; 
94187788472547: std; dec dword ptr [rax - 0x7d]; ret; 
94187788472545: sub esi, dword ptr [rdi]; std; dec dword ptr [rax - 0x7d]; ret; 
94187788472543: add al, ch; sub esi, dword ptr [rdi]; std; dec dword ptr [rax - 0x7d]; ret; 
94187788472626: ret; 
94187788472623: or byte ptr [rax - 0x77], cl; ret; 
94187788472821: ret; 
94187788472820: pop rsi; ret; 
94187788472819: pop r14; ret; 
94187788472818: pop rbp; pop r14; ret; 
94187788472817: pop r13; pop r14; ret; 
94187788472816: pop rsp; pop r13; pop r14; ret; 
94187788472815: pop r12; pop r13; pop r14; ret; 
94187788472814: pop rbp; pop r12; pop r13; pop r14; ret; 
94187788472987: ret; 
94187788472986: pop rbp; ret; 
94187788472985: pop rbx; pop rbp; ret; 
94187788472984: or byte ptr [rbx + 0x5d], bl; ret; 
94187788472982: add esp, 8; pop rbx; pop rbp; ret; 
94187788472981: add rsp, 8; pop rbx; pop rbp; ret; 
94187788472978: adc byte ptr [rbp + 0xb], dh; add rsp, 8; pop rbx; pop rbp; ret; 
94187788473077: ret; 
94187788473074: dec dword ptr [rax - 0x77]; ret; 
94187788473314: ret; 
94187788473313: pop rbp; ret; 
94187788473312: pop r13; ret; 
94187788473311: pop rsp; pop r13; ret; 
94187788473310: pop r12; pop r13; ret; 
94187788473309: pop rbp; pop r12; pop r13; ret; 
94187788473308: pop rbx; pop rbp; pop r12; pop r13; ret; 
94187788473307: fcomp dword ptr [rbx + 0x5d]; pop r12; pop r13; ret; 
94187788473377: ret; 
94187788473374: dec dword ptr [rax - 0x39]; ret; 
94187788473373: std; dec dword ptr [rax - 0x39]; ret; 
94187788473372: std; dec dword ptr [rax - 0x39]; ret; 
94187788473369: shr al, 0x61; std; dec dword ptr [rax - 0x39]; ret; 
94187788473367: adc byte ptr [rcx], dh; shr al, 0x61; std; dec dword ptr [rax - 0x39]; ret; 
94187788473417: ret; 
94187788473416: pop rbx; ret; 
94187788473415: pop rbx; ret; 
94187788473465: ret; 
94187788473577: ret; 
94187788473655: ret; 
94187788473654: pop rbp; ret; 
94187788473653: pop r13; ret; 
94187788473652: pop rsp; pop r13; ret; 
94187788473651: pop r12; pop r13; ret; 
94187788473650: pop rbp; pop r12; pop r13; ret; 
94187788473649: pop rbx; pop rbp; pop r12; pop r13; ret; 
94187788473648: add byte ptr [rbx + 0x5d], bl; pop r12; pop r13; ret; 
94187788473755: ret; 
94187788473752: add esp, 8; ret; 
94187788473751: add rsp, 8; ret; 
94187788473748: cmove eax, edx; add rsp, 8; ret; 
94187788473747: cmove rax, rdx; add rsp, 8; ret; 
94187788473745: test eax, eax; cmove rax, rdx; add rsp, 8; ret; 
94187788473744: test rax, rax; cmove rax, rdx; add rsp, 8; ret; 
94187788473742: or dword ptr [rax], eax; test rax, rax; cmove rax, rdx; add rsp, 8; ret; 
94187788473740: mov esp, 0x48000905; test eax, eax; cmove rax, rdx; add rsp, 8; ret; 
94187788473739: adc eax, 0x905bc; test rax, rax; cmove rax, rdx; add rsp, 8; ret; 
94187788473738: lea edx, dword ptr [rip + 0x905bc]; test rax, rax; cmove rax, rdx; add rsp, 8; ret; 
94187788473737: lea rdx, qword ptr [rip + 0x905bc]; test rax, rax; cmove rax, rdx; add rsp, 8; ret; 
94187788473860: ret; 
94187788473857: dec dword ptr [rax - 0x7d]; ret; 
94187788473854: mov es, word ptr [rdi - 2]; dec dword ptr [rax - 0x7d]; ret; 
94187788473852: shr al, 1; mov es, word ptr [rdi - 2]; dec dword ptr [rax - 0x7d]; ret; 
94187788473966: ret; 
94187788473963: sbb cl, byte ptr [rax - 0x7d]; ret; 
94187788474267: ret; 
94187788474264: sbb cl, byte ptr [rax - 0x7d]; ret; 
94187788474321: ret; 
94187788474318: add byte ptr [rax - 0x7d], cl; ret; 
94187788474416: ret; 
94187788474413: add dword ptr [rax - 0x7f], ecx; ret; 
94187788474818: ret; 
94187788474815: dec dword ptr [rax - 0x7d]; ret; 
94187788474860: ret; 
94187788474926: ret; 
94187788474925: pop rdi; ret; 
94187788474924: pop r15; ret; 
94187788474923: pop rsi; pop r15; ret; 
94187788474922: pop r14; pop r15; ret; 
94187788474921: pop rbp; pop r14; pop r15; ret; 
94187788474920: pop r13; pop r14; pop r15; ret; 
94187788474919: pop rsp; pop r13; pop r14; pop r15; ret; 
94187788474918: pop r12; pop r13; pop r14; pop r15; ret; 
94187788475156: ret; 
94187788475155: pop rdi; ret; 
94187788475154: pop r15; ret; 
94187788475153: pop rsi; pop r15; ret; 
94187788475152: pop r14; pop r15; ret; 
94187788475151: pop rbp; pop r14; pop r15; ret; 
94187788475150: pop r13; pop r14; pop r15; ret; 
94187788475149: pop rsp; pop r13; pop r14; pop r15; ret; 
94187788475148: pop r12; pop r13; pop r14; pop r15; ret; 
94187788475587: ret; 
94187788475586: pop rdi; ret; 
94187788475585: pop r15; ret; 
94187788475584: pop rsi; pop r15; ret; 
94187788475583: pop r14; pop r15; ret; 
94187788475582: pop rbp; pop r14; pop r15; ret; 
94187788475581: pop r13; pop r14; pop r15; ret; 
94187788475580: pop rsp; pop r13; pop r14; pop r15; ret; 
94187788475579: pop r12; pop r13; pop r14; pop r15; ret; 
94187788476125: ret; 
94187788476122: sbb cl, byte ptr [rax - 0x7d]; ret; 
94187788476182: ret; 
94187788476179: add byte ptr [rax - 0x7d], cl; ret; 
94187788476178: add byte ptr [r8 - 0x7d], r9b; ret; 
94187788476175: add byte ptr [rcx - 0x75], cl; add byte ptr [r8 - 0x7d], r9b; ret; 
94187788476202: ret; 
94187788476382: ret; 
94187788476381: pop rdi; ret; 
94187788476380: pop r15; ret; 
94187788476379: pop rsi; pop r15; ret; 
94187788476378: pop r14; pop r15; ret; 
94187788476377: pop rbp; pop r14; pop r15; ret; 
94187788476376: pop r13; pop r14; pop r15; ret; 
94187788476375: pop rsp; pop r13; pop r14; pop r15; ret; 
94187788476374: pop r12; pop r13; pop r14; pop r15; ret; 
94187788473851: call rax; 
94187788473849: jp 0x55a9cdac9643; call rax; 
94187788473848: mov edi, dword ptr [rdx + 0x48]; call rax; 
94187788473847: mov rdi, qword ptr [rdx + 0x48]; call rax; 
94187788473846: or ecx, dword ptr [rax - 0x75]; jp 0x55a9cdac9643; call rax; 
94187788473844: sal byte ptr [rbx + rcx + 0x48], 0x8b; jp 0x55a9cdac9643; call rax; 
94187788473951: call rax; 
94187788473950: out dx, eax; call rax; 
94187788473949: mov edi, ebp; call rax; 
94187788473948: mov rdi, rbp; call rax; 
94187788473947: or al, 0x48; mov edi, ebp; call rax; 
94187788473945: sal byte ptr [rsp + rcx + 0x48], 0x89; out dx, eax; call rax; 
94187788473942: add byte ptr [rax - 0x7b], cl; sal byte ptr [rsp + rcx + 0x48], 0x89; out dx, eax; call rax; 
94187788473940: add byte ptr [rax], al; add byte ptr [rax - 0x7b], cl; sal byte ptr [rsp + rcx + 0x48], 0x89; out dx, eax; call rax; 
94187788473939: add byte ptr [rax], 0; add byte ptr [rax - 0x7b], cl; sal byte ptr [rsp + rcx + 0x48], 0x89; out dx, eax; call rax; 
94187788473938: add byte ptr [rax + 0x48000000], 0x85; sal byte ptr [rsp + rcx + 0x48], 0x89; out dx, eax; call rax; 
94187788473935: add byte ptr [rax - 0x75], cl; add byte ptr [rax + 0x48000000], 0x85; sal byte ptr [rsp + rcx + 0x48], 0x89; out dx, eax; call rax; 
94187788474252: call rax; 
94187788474251: out dx, eax; call rax; 
94187788474250: mov edi, ebp; call rax; 
94187788474249: mov rdi, rbp; call rax; 
94187788474248: or al, 0x48; mov edi, ebp; call rax; 
94187788474246: sal byte ptr [rsp + rcx + 0x48], 0x89; out dx, eax; call rax; 
94187788476100: call rax; 
94187788476099: out dx, eax; call rax; 
94187788476098: mov edi, ebp; call rax; 
94187788476097: mov rdi, rbp; call rax; 
94187788476094: sal byte ptr [rsi + rdx + 0x48], 0x89; out dx, eax; call rax; 
94187788472486: jmp qword ptr [rsi + 0xf]; 
94187788472485: std; jmp qword ptr [rsi + 0xf]; 
94187788472483: fldcw word ptr [rcx - 3]; jmp qword ptr [rsi + 0xf]; 
94187788472838: jmp qword ptr [rsi + 0xf]; 
94187788473028: jmp qword ptr [rsi + 0x2e]; 
94187788473027: std; jmp qword ptr [rsi + 0x2e]; 
94187788473026: std; jmp qword ptr [rsi + 0x2e]; 
94187788473716: jmp qword ptr [rsi + 0x2e]; 
94187788473715: std; jmp qword ptr [rsi + 0x2e]; 
94187788473714: cmp ebp, edi; jmp qword ptr [rsi + 0x2e]; 
94187788473713: sbb edi, dword ptr [rcx]; std; jmp qword ptr [rsi + 0x2e]; 
94187788473877: jmp qword ptr [rsi + 0x2e]; 
94187788473876: std; jmp qword ptr [rsi + 0x2e]; 
94187788475188: jmp qword ptr [rsi + 0x66]; 
94187788475187: std; jmp qword ptr [rsi + 0x66]; 
94187788475186: xor edi, ebp; jmp qword ptr [rsi + 0x66]; 
94187788475185: pop rbx; xor edi, ebp; jmp qword ptr [rsi + 0x66]; 
94187788475180: xor eax, 0xe8ffffff; pop rbx; xor edi, ebp; jmp qword ptr [rsi + 0x66]; 
94187788475378: jmp qword ptr [rsi + 0xf]; 
94187788475630: jmp qword ptr [rsi + 0xf]; 
94187788472931: ret 0x7e8; 
94187788472946: ret 0xd74; 
94187788472943: add byte ptr [rax + 0x39], cl; ret 0xd74; 
94187788472951: ret 0xf631; 
94187788472946: ret 0xd74; 
94187788473354: ret 0x87b; 
94187788473750: ret 0x8348; 
94187788473746: ror byte ptr [rax + 0xf], 0x44; ret 0x8348; 
94187788473743: add byte ptr [rax - 0x7b], cl; ror byte ptr [rax + 0xf], 0x44; ret 0x8348; 
94187788473741: add eax, 0x85480009; ror byte ptr [rax + 0xf], 0x44; ret 0x8348; 
94187788474106: ret 0xe33; 
94187788475315: ret 0xda77; 
94187788475312: add dword ptr [rax + 0x39], ecx; ret 0xda77; 
94187788476033: ret 0xf66; 
94187788476059: ret 0xea75; 
94187788476056: add byte ptr [rax + 0x39], cl; ret 0xea75; 
94187788476054: add dword ptr [rax], eax; add byte ptr [rax + 0x39], cl; ret 0xea75; 
94187788480630: ret; 
94187788480645: ret; 
94187788480642: cmp ecx, dword ptr [rax - 0x7d]; ret; 
94187788480639: add byte ptr [rax - 0x75], cl; cmp ecx, dword ptr [rax - 0x7d]; ret; 
94187788480637: add byte ptr [rax], al; add byte ptr [rax - 0x75], cl; cmp ecx, dword ptr [rax - 0x7d]; ret; 
94187788480635: add byte ptr [rax], al; add byte ptr [rax], al; add byte ptr [rax - 0x75], cl; cmp ecx, dword ptr [rax - 0x7d]; ret; 
94187788480630: ret; 
94187788480763: ret; 
94187788480760: fmul dword ptr [rax - 0x7d]; ret; 
94187788481150: ret; 
94187788481147: dec dword ptr [rax - 0x7d]; ret; 
94187788481158: ret; 
94187788481155: xor byte ptr [rax + 0x39], cl; ret; 
94187788481150: ret; 
94187788481238: ret; 
94187788481246: ret; 
94187788481243: xor byte ptr [rax + 0x39], cl; ret; 
94187788481238: ret; 
94187788482399: ret; 
94187788482404: ret; 
94187788482401: dec dword ptr [rax - 0x7d]; ret; 
94187788482399: ret; 
94187788483334: ret; 
94187788483331: add dword ptr [rax - 0x7f], ecx; ret; 
94187788483650: ret; 
94187788483646: add byte ptr [rbp + rcx*4 + 0x2d], cl; ret; 
94187788483739: ret; 
94187788483736: dec dword ptr [rax - 0x77]; ret; 
94187788483733: xchg dword ptr [rdi - 2], edx; dec dword ptr [rax - 0x77]; ret; 
94187788483731: fucompi st(0); xchg dword ptr [rdi - 2], edx; dec dword ptr [rax - 0x77]; ret; 
94187788483728: add byte ptr [rax - 0x77], cl; fucompi st(0); xchg dword ptr [rdi - 2], edx; dec dword ptr [rax - 0x77]; ret; 
94187788484198: ret; 
94187788484197: pop rbp; ret; 
94187788484196: pop rbx; pop rbp; ret; 
94187788484195: add byte ptr [rbx + 0x5d], bl; ret; 
94187788484194: add byte ptr [rax], al; pop rbx; pop rbp; ret; 
94187788484193: add dword ptr [rax], eax; add byte ptr [rbx + 0x5d], bl; ret; 
94187788484192: cwde; add dword ptr [rax], eax; add byte ptr [rbx + 0x5d], bl; ret; 
94187788484190: add esp, 0x198; pop rbx; pop rbp; ret; 
94187788484189: add rsp, 0x198; pop rbx; pop rbp; ret; 
94187788484188: add rsp, 0x198; pop rbx; pop rbp; ret; 
94187788484186: fdiv dword ptr [rbp + 0x40]; add rsp, 0x198; pop rbx; pop rbp; ret; 
94187788484215: ret; 
94187788484212: add dword ptr [rax - 0x39], ecx; ret; 
94187788484278: ret; 
94187788484366: ret; 
94187788484364: xor eax, eax; ret; 
94187788484362: add byte ptr [rax], al; xor eax, eax; ret; 
94187788484360: and byte ptr [rax], al; add byte ptr [rax], al; xor eax, eax; ret; 
94187788484357: mov dword ptr [rsi + 8], 0x20; xor eax, eax; ret; 
94187788484356: mov qword ptr [rsi + 8], 0x20; xor eax, eax; ret; 
94187788484353: push qword ptr [rbp + 8]; mov qword ptr [rsi + 8], 0x20; xor eax, eax; ret; 
94187788484469: ret; 
94187788484468: pop rbp; ret; 
94187788484467: pop rbx; pop rbp; ret; 
94187788484466: or byte ptr [rbx + 0x5d], bl; ret; 
94187788484464: add esp, 8; pop rbx; pop rbp; ret; 
94187788484463: add rsp, 8; pop rbx; pop rbp; ret; 
94187788484461: add byte ptr [rax], al; add rsp, 8; pop rbx; pop rbp; ret; 
94187788483604: call rax; 
94187788483602: mov edi, ebx; call rax; 
94187788483601: mov rdi, rbx; call rax; 
94187788483956: call rax; 
94187788483954: mov edi, ebx; call rax; 
94187788483953: mov rdi, rbx; call rax; 
94187788483952: or al, 0x48; mov edi, ebx; call rax; 
94187788481541: jmp qword ptr [rsi + 0x2e]; 
94187788481577: jmp qword ptr [rsi + 0xf]; 
94187788481702: jmp qword ptr [rsi + 0xf]; 
94187788482166: jmp qword ptr [rsi + 0xf]; 
94187788482517: jmp qword ptr [rsi + 0x2e]; 
94187788482557: jmp qword ptr [rsi - 0x70]; 
94187788482633: jmp qword ptr [rsi + 0xf]; 
94187788482685: jmp qword ptr [rsi - 0x70]; 
94187788483049: jmp qword ptr [rsi + 0xf]; 
94187788483081: jmp qword ptr [rsi + 0xf]; 
94187788483113: jmp qword ptr [rsi + 0xf]; 
94187788483524: jmp qword ptr [rsi + 0x66]; 
94187788483857: jmp qword ptr [rsi + 0xf]; 
94187788483856: std; jmp qword ptr [rsi + 0xf]; 
94187788483889: jmp qword ptr [rsi + 0xf]; 
94187788483985: jmp qword ptr [rsi + 0xf]; 
94187788483983: fdivr st(7); jmp qword ptr [rsi + 0xf]; 
94187788484006: jmp qword ptr [rsi + 0xf]; 
94187788484257: jmp qword ptr [rsi + 0x66]; 
94187788484256: std; jmp qword ptr [rsi + 0x66]; 
94187788484325: jmp qword ptr [rsi + 0x2e]; 
94187788484324: std; jmp qword ptr [rsi + 0x2e]; 
94187788484323: cmp edi, ebp; jmp qword ptr [rsi + 0x2e]; 
94187788480817: ret 0xfffd; 
94187788480814: ror byte ptr [rax - 0x39], 1; ret 0xfffd; 
94187788481203: ret 0xf10; 
94187788481201: sub dh, dh; ret 0xf10; 
94187788481216: ret 0xf08; 
94187788481214: add dh, dh; ret 0xf08; 
94187788481213: add r14b, r14b; ret 0xf08; 
94187788481210: dec dword ptr [rcx - 0x75]; add r14b, r14b; ret 0xf08; 
94187788481203: ret 0xf10; 
94187788481894: ret 0xfffc; 
94187788481891: ror byte ptr [rax - 0x39], 1; ret 0xfffc; 
94187788482753: ret 0xfffd; 
94187788483159: ret 0xfffd; 
94187788483156: sub byte ptr [rax - 0x39], cl; ret 0xfffd; 
94187788482574: call qword ptr [rax + 0x24448b4c]; 
94187788482606: call qword ptr [rax - 0x77f272b8]; 
94187788482830: call qword ptr [rax + 0x10758b48]; 
94187788477177: ret; 
94187788477171: test byte ptr [rsi - 0x17000002], dh; ret; 
94187788477169: add byte ptr [rdi], cl; test byte ptr [rsi - 0x17000002], dh; ret; 
94187788478057: ret; 
94187788478055: fucompi st(0); ret; 
94187788478052: dec dword ptr [rax - 0x77]; fucompi st(0); ret; 
94187788478050: test esi, edi; dec dword ptr [rax - 0x77]; fucompi st(0); ret; 
94187788478049: test r14, rdi; dec dword ptr [rax - 0x77]; fucompi st(0); ret; 
94187788478047: fucompi st(0); test r14, rdi; dec dword ptr [rax - 0x77]; fucompi st(0); ret; 
94187788478923: ret; 
94187788478922: pop rdi; ret; 
94187788478921: pop r15; ret; 
94187788478920: pop rsi; pop r15; ret; 
94187788478919: pop r14; pop r15; ret; 
94187788478918: pop rbp; pop r14; pop r15; ret; 
94187788478917: pop r13; pop r14; pop r15; ret; 
94187788478916: pop rsp; pop r13; pop r14; pop r15; ret; 
94187788478915: pop r12; pop r13; pop r14; pop r15; ret; 
94187788479431: ret; 
94187788479428: or byte ptr [rax - 0x7d], cl; ret; 
94187788479597: ret; 
94187788479591: add byte ptr [rbx - 0x7cb70220], al; ret; 
94187788479650: ret; 
94187788479649: pop rdi; ret; 
94187788479648: pop r15; ret; 
94187788479647: pop rsi; pop r15; ret; 
94187788479646: pop r14; pop r15; ret; 
94187788479645: pop rbp; pop r14; pop r15; ret; 
94187788479644: pop r13; pop r14; pop r15; ret; 
94187788479643: pop rsp; pop r13; pop r14; pop r15; ret; 
94187788479642: pop r12; pop r13; pop r14; pop r15; ret; 
94187788480020: ret; 
94187788480122: ret; 
94187788480121: pop rsi; ret; 
94187788480120: pop r14; ret; 
94187788480119: pop rbp; pop r14; ret; 
94187788480118: pop r13; pop r14; ret; 
94187788480117: pop rsp; pop r13; pop r14; ret; 
94187788480116: pop r12; pop r13; pop r14; ret; 
94187788480115: pop rbp; pop r12; pop r13; pop r14; ret; 
94187788480417: ret; 
94187788480414: add byte ptr [rax - 0x77], cl; ret; 
94187788480412: add byte ptr [rax], al; add byte ptr [rax - 0x77], cl; ret; 
94187788480411: add byte ptr [rax], 0; add byte ptr [rax - 0x77], cl; ret; 
94187788480410: and al, 0x80; add byte ptr [rax], al; add byte ptr [rax - 0x77], cl; ret; 
94187788480409: test byte ptr [rax + rax*4], ah; add byte ptr [rax], al; add byte ptr [rax - 0x77], cl; ret; 
94187788480406: ror byte ptr [rax - 0x73], 0x84; and al, 0x80; add byte ptr [rax], al; add byte ptr [rax - 0x77], cl; ret; 
94187788478553: call qword ptr [rax]; 
94187788478551: mov edi, ebx; call qword ptr [rax]; 
94187788478550: mov rdi, rbx; call qword ptr [rax]; 
94187788478548: add byte ptr [rax], al; mov rdi, rbx; call qword ptr [rax]; 
94187788478546: add dword ptr [rax], esp; add byte ptr [rax], al; mov rdi, rbx; call qword ptr [rax]; 
94187788478545: mov esi, 0x2001; mov rdi, rbx; call qword ptr [rax]; 
94187788478544: sar byte ptr [rsi + 0x2001], cl; mov rdi, rbx; call qword ptr [rax]; 
94187788478543: xor edx, edx; mov esi, 0x2001; mov rdi, rbx; call qword ptr [rax]; 
94187788478542: add byte ptr [rcx], dh; sar byte ptr [rsi + 0x2001], cl; mov rdi, rbx; call qword ptr [rax]; 
94187788478540: sub ecx, dword ptr [rsi]; add byte ptr [rcx], dh; sar byte ptr [rsi + 0x2001], cl; mov rdi, rbx; call qword ptr [rax]; 
94187788478538: add eax, 0xe2bd1; xor edx, edx; mov esi, 0x2001; mov rdi, rbx; call qword ptr [rax]; 
94187788478537: lea eax, dword ptr [rip + 0xe2bd1]; xor edx, edx; mov esi, 0x2001; mov rdi, rbx; call qword ptr [rax]; 
94187788478536: lea rax, qword ptr [rip + 0xe2bd1]; xor edx, edx; mov esi, 0x2001; mov rdi, rbx; call qword ptr [rax]; 
94187788478607: jmp rax; 
94187788478605: add eax, ebp; jmp rax; 
94187788478604: add rax, rbp; jmp rax; 
94187788478602: test dword ptr [rax], eax; add rax, rbp; jmp rax; 
94187788478601: test dword ptr [rax], r8d; add rax, rbp; jmp rax; 
94187788478599: movsxd rax, dword ptr [rbp + r8*4]; add rax, rbp; jmp rax; 
94187788478598: mov dword ptr [rdx + 0x63], ecx; test dword ptr [rax], r8d; add rax, rbp; jmp rax; 
94187788478596: add eax, 0x634a8977; test dword ptr [rax], r8d; add rax, rbp; jmp rax; 
94187788478595: clc; add eax, 0x634a8977; test dword ptr [rax], r8d; add rax, rbp; jmp rax; 
94187788480001: call rax; 
94187788479999: jp 0x55a9cdacae49; call rax; 
94187788479998: mov edi, dword ptr [rdx + 0x48]; call rax; 
94187788479997: mov rdi, qword ptr [rdx + 0x48]; call rax; 
94187788479996: adc cl, byte ptr [rax - 0x75]; jp 0x55a9cdacae49; call rax; 
94187788479994: sal byte ptr [rdx + rdx + 0x48], 0x8b; jp 0x55a9cdacae49; call rax; 
94187788479991: xor byte ptr [rax - 0x7b], cl; sal byte ptr [rdx + rdx + 0x48], 0x8b; jp 0x55a9cdacae49; call rax; 
94187788479990: xor byte ptr [rax - 0x7b], cl; sal byte ptr [rdx + rdx + 0x48], 0x8b; jp 0x55a9cdacae49; call rax; 
94187788479987: fmul qword ptr [rax - 0x75]; xor byte ptr [rax - 0x7b], cl; sal byte ptr [rdx + rdx + 0x48], 0x8b; jp 0x55a9cdacae49; call rax; 
94187788477565: jmp qword ptr [rsi - 0x70]; 
94187788477657: jmp qword ptr [rsi + 0xf]; 
94187788477689: jmp qword ptr [rsi + 0xf]; 
94187788478633: jmp qword ptr [rsi + 0xf]; 
94187788478657: jmp qword ptr [rsi + 0xf]; 
94187788478681: jmp qword ptr [rsi + 0xf]; 
94187788479165: jmp qword ptr [rsi - 0x70]; 
94187788479857: jmp qword ptr [rsi + 0xf]; 
94187788479877: jmp qword ptr [rsi + 0x2e]; 
94187788479901: jmp qword ptr [rsi - 0x70]; 
94187788479922: jmp qword ptr [rsi + 0x66]; 
94187788479921: std; jmp qword ptr [rsi + 0x66]; 
94187788479920: and ch, bh; jmp qword ptr [rsi + 0x66]; 
94187788479919: frstor dword ptr [rax]; std; jmp qword ptr [rsi + 0x66]; 
94187788478878: call qword ptr [rax + 0x28]; 
94187788478876: mov edi, esp; call qword ptr [rax + 0x28]; 
94187788478875: mov rdi, r12; call qword ptr [rax + 0x28]; 
94187788478873: xor esi, esi; mov rdi, r12; call qword ptr [rax + 0x28]; 
94187788478868: add eax, 0xe2a87; xor esi, esi; mov rdi, r12; call qword ptr [rax + 0x28]; 
94187788478867: lea eax, dword ptr [rip + 0xe2a87]; xor esi, esi; mov rdi, r12; call qword ptr [rax + 0x28]; 
94187788478866: lea rax, qword ptr [rip + 0xe2a87]; xor esi, esi; mov rdi, r12; call qword ptr [rax + 0x28]; 
94187788478861: ljmp ptr [rax + 0x480f7440]; lea eax, dword ptr [rip + 0xe2a87]; xor esi, esi; mov rdi, r12; call qword ptr [rax + 0x28]; 
94187788477740: ret 0x877; 
94187788478162: ret 0x12b; 
94187788480188: ret 0x12b; 
94187788479022: call qword ptr [rax + 0x8ec8348]; 
94187788479134: call qword ptr [rax - 0x77f272b8]; 
94187788479614: call qword ptr [rax + 0x24448b48]; 
Gagdet size = 14963
